; ModuleID = 'llvm-link'
source_filename = "llvm-link"
target datalayout = "e-m:e-p270:32:32-p271:32:32-p272:64:64-i64:64-f80:128-n8:16:32:64-S128"
target triple = "x86_64-apple-macosx10.12.0"

%struct.SecpCtx = type { ptr }
%"core::fmt::rt::Placeholder" = type { { i64, i64 }, { i64, i64 }, i64, i32, i32, i8, [7 x i8] }
%"core::fmt::Arguments<'_>" = type { { ptr, i64 }, { ptr, i64 }, { ptr, i64 } }
%"std::thread::JoinHandle<()>" = type { %"std::thread::JoinInner<'_, ()>" }
%"std::thread::JoinInner<'_, ()>" = type { ptr, ptr, i64 }
%"core::ptr::metadata::PtrRepr<[u8]>" = type { [2 x i64] }
%"core::sync::atomic::AtomicUsize" = type { i64 }
%"alloc::sync::ArcInner<Secp>" = type { %"core::sync::atomic::AtomicUsize", %"core::sync::atomic::AtomicUsize", ptr }
%"core::option::Option<core::result::Result<(), alloc::boxed::Box<dyn core::any::Any + core::marker::Send>>>" = type { i64, [2 x i64] }
%"std::thread::Builder" = type { { i64, i64 }, %"core::option::Option<core::result::Result<(), alloc::boxed::Box<dyn core::any::Any + core::marker::Send>>>" }
%"core::result::Result<std::thread::JoinHandle<()>, std::io::error::Error>" = type { ptr, [2 x i64] }
%"core::fmt::Formatter<'_>" = type { { i64, i64 }, { i64, i64 }, { ptr, ptr }, i32, i32, i8, [7 x i8] }
%"alloc::sync::ArcInner<std::thread::Packet<'_, ()>>" = type { %"core::sync::atomic::AtomicUsize", %"core::sync::atomic::AtomicUsize", %"std::thread::Packet<'_, ()>" }
%"std::thread::Packet<'_, ()>" = type { ptr, %"core::cell::UnsafeCell<core::option::Option<core::result::Result<(), alloc::boxed::Box<dyn core::any::Any + core::marker::Send>>>>", %"core::marker::PhantomData<core::option::Option<&std::thread::scoped::ScopeData>>" }
%"core::cell::UnsafeCell<core::option::Option<core::result::Result<(), alloc::boxed::Box<dyn core::any::Any + core::marker::Send>>>>" = type { %"core::option::Option<core::result::Result<(), alloc::boxed::Box<dyn core::any::Any + core::marker::Send>>>" }
%"core::marker::PhantomData<core::option::Option<&std::thread::scoped::ScopeData>>" = type {}
%"core::option::Option<core::result::Result<(), alloc::boxed::Box<dyn core::any::Any + core::marker::Send>>>::Some" = type { [1 x i64], { ptr, ptr } }
%"std::sys::unix::stdio::Stderr" = type { {} }
%"alloc::sync::ArcInner<std::thread::scoped::ScopeData>" = type { %"core::sync::atomic::AtomicUsize", %"core::sync::atomic::AtomicUsize", %"std::thread::scoped::ScopeData" }
%"std::thread::scoped::ScopeData" = type { ptr, %"core::sync::atomic::AtomicUsize", %"core::sync::atomic::AtomicBool", [7 x i8] }
%"core::sync::atomic::AtomicBool" = type { i8 }
%"std::io::error::ErrorData<alloc::boxed::Box<std::io::error::Custom>>" = type { i8, [15 x i8] }
%"core::ptr::metadata::PtrComponents<()>" = type { ptr, {} }
%"core::ptr::metadata::PtrRepr<()>" = type { [1 x i64] }
%"std::io::error::ErrorData<alloc::boxed::Box<std::io::error::Custom>>::Os" = type { [1 x i32], i32 }
%"std::io::error::ErrorData<alloc::boxed::Box<std::io::error::Custom>>::Simple" = type { [1 x i8], i8 }
%"std::io::error::ErrorData<alloc::boxed::Box<std::io::error::Custom>>::Custom" = type { [1 x i64], ptr }
%"core::result::Result<usize, std::io::error::Error>" = type { i64, [1 x i64] }
%"core::result::Result<usize, std::io::error::Error>::Ok" = type { [1 x i64], i64 }
%"std::io::error::SimpleMessage" = type { { ptr, i64 }, i8, [7 x i8] }
%"std::io::error::Custom" = type { { ptr, ptr }, i8, [7 x i8] }
%"alloc::sync::ArcInner<std::thread::Inner>" = type { %"core::sync::atomic::AtomicUsize", %"core::sync::atomic::AtomicUsize", %"std::thread::Inner" }
%"std::thread::Inner" = type { i64, { ptr, i64 }, %"std::sys::unix::thread_parking::darwin::Parker" }
%"std::sys::unix::thread_parking::darwin::Parker" = type { ptr, %"core::sync::atomic::AtomicBool", [7 x i8] }
%"alloc::ffi::c_str::NulError" = type { %"alloc::vec::Vec<u8>", i64 }
%"alloc::vec::Vec<u8>" = type { { i64, ptr }, i64 }
%"core::result::Result<alloc::ffi::c_str::CString, alloc::ffi::c_str::NulError>" = type { i64, [3 x i64] }
%"alloc::string::String" = type { %"alloc::vec::Vec<u8>" }
%"{closure@std::thread::Builder::spawn_unchecked_<'_, '_, {closure@data/RUSTSEC_2022_0070.rs:48:28: 48:35}, ()>::{closure#1}}" = type { ptr, ptr, ptr, ptr }
%"core::result::Result<alloc::ffi::c_str::CString, alloc::ffi::c_str::NulError>::Ok" = type { [1 x i64], { ptr, i64 } }
%"alloc::sync::ArcInner<std::sync::mutex::Mutex<alloc::vec::Vec<u8>>>" = type { %"core::sync::atomic::AtomicUsize", %"core::sync::atomic::AtomicUsize", %"std::sync::mutex::Mutex<alloc::vec::Vec<u8>>" }
%"std::sync::mutex::Mutex<alloc::vec::Vec<u8>>" = type { %"std::sys::unix::locks::pthread_mutex::Mutex", %"std::sync::poison::Flag", [7 x i8], %"alloc::string::String" }
%"std::sys::unix::locks::pthread_mutex::Mutex" = type { %"std::sys_common::lazy_box::LazyBox<std::sys::unix::locks::pthread_mutex::AllocatedMutex>" }
%"std::sys_common::lazy_box::LazyBox<std::sys::unix::locks::pthread_mutex::AllocatedMutex>" = type { %struct.SecpCtx, %"core::marker::PhantomData<core::option::Option<&std::thread::scoped::ScopeData>>" }
%"std::sync::poison::Flag" = type { %"core::sync::atomic::AtomicBool" }
%"core::option::Option<(core::ptr::non_null::NonNull<u8>, core::alloc::layout::Layout)>" = type { [1 x i64], i64, [1 x i64] }
%"core::fmt::builders::DebugList<'_, '_>" = type { %"core::fmt::builders::DebugInner<'_, '_>" }
%"core::fmt::builders::DebugInner<'_, '_>" = type { ptr, i8, i8, [6 x i8] }

@alloc_8d68fcbc011419193bd208f22e2789d1 = private unnamed_addr constant <{ [28 x i8] }> <{ [28 x i8] c"failed to write whole buffer" }>, align 1
@alloc_626cc8bfd6c94d404aa777557e31db63 = private unnamed_addr constant <{ ptr, [9 x i8], [7 x i8] }> <{ ptr @alloc_8d68fcbc011419193bd208f22e2789d1, [9 x i8] c"\1C\00\00\00\00\00\00\00\17", [7 x i8] undef }>, align 8
@alloc_2f83dfc9a60946d6dd4382ae2c85abff = private unnamed_addr constant <{ [73 x i8] }> <{ [73 x i8] c"/rustc/07dca489ac2d933c78d3c5158e3f43beefeb02ce/library/std/src/io/mod.rs" }>, align 1
@alloc_4281a0c14125330c5d3c45e00517e107 = private unnamed_addr constant <{ ptr, [16 x i8] }> <{ ptr @alloc_2f83dfc9a60946d6dd4382ae2c85abff, [16 x i8] c"I\00\00\00\00\00\00\00\8D\06\00\00$\00\00\00" }>, align 8
@vtable.0 = private unnamed_addr constant <{ ptr, [16 x i8], ptr, ptr, ptr }> <{ ptr @"_ZN4core3ptr92drop_in_place$LT$std..io..Write..write_fmt..Adapter$LT$std..sys..unix..stdio..Stderr$GT$$GT$17he2ac9c719f5ba413E", [16 x i8] c"\10\00\00\00\00\00\00\00\08\00\00\00\00\00\00\00", ptr @"_ZN80_$LT$std..io..Write..write_fmt..Adapter$LT$T$GT$$u20$as$u20$core..fmt..Write$GT$9write_str17h6f5a0ab47ca1a750E", ptr @_ZN4core3fmt5Write10write_char17h569d7064a238a1a4E, ptr @_ZN4core3fmt5Write9write_fmt17hf8566509d1da3b56E }>, align 8
@alloc_118e5dd62e18907a47aec3e2be501119 = private unnamed_addr constant <{ [15 x i8] }> <{ [15 x i8] c"formatter error" }>, align 1
@alloc_5d9af7a776dc0d9eecd628aaf786bef9 = private unnamed_addr constant <{ ptr, [9 x i8], [7 x i8] }> <{ ptr @alloc_118e5dd62e18907a47aec3e2be501119, [9 x i8] c"\0F\00\00\00\00\00\00\00(", [7 x i8] undef }>, align 8
@vtable.1 = private unnamed_addr constant <{ ptr, [16 x i8], ptr, ptr, ptr }> <{ ptr @"_ZN4core3ptr26drop_in_place$LT$usize$GT$17hbc39f1cce3731585E", [16 x i8] c"\08\00\00\00\00\00\00\00\08\00\00\00\00\00\00\00", ptr @"_ZN4core3ops8function6FnOnce40call_once$u7b$$u7b$vtable.shim$u7d$$u7d$17hac714ce7ce05acb0E", ptr @"_ZN3std2rt10lang_start28_$u7b$$u7b$closure$u7d$$u7d$17he0612cc368812647E", ptr @"_ZN3std2rt10lang_start28_$u7b$$u7b$closure$u7d$$u7d$17he0612cc368812647E" }>, align 8
@alloc_5f55955de67e57c79064b537689facea = private unnamed_addr constant <{ [43 x i8] }> <{ [43 x i8] c"called `Option::unwrap()` on a `None` value" }>, align 1
@alloc_33b1e69a422a81942b7149db811cc384 = private unnamed_addr constant <{ [77 x i8] }> <{ [77 x i8] c"/rustc/07dca489ac2d933c78d3c5158e3f43beefeb02ce/library/std/src/thread/mod.rs" }>, align 1
@alloc_210632c49b2fd4ef0dc8e7c88d1b4c5b = private unnamed_addr constant <{ ptr, [16 x i8] }> <{ ptr @alloc_33b1e69a422a81942b7149db811cc384, [16 x i8] c"M\00\00\00\00\00\00\00\ED\05\00\00(\00\00\00" }>, align 8
@alloc_75b83b2c75f3b36b94a7518a66ad8875 = private unnamed_addr constant <{ ptr, [16 x i8] }> <{ ptr @alloc_33b1e69a422a81942b7149db811cc384, [16 x i8] c"M\00\00\00\00\00\00\00\ED\05\00\00I\00\00\00" }>, align 8
@alloc_e3605bf48dd8479a638909176cc37fce = private unnamed_addr constant <{ [22 x i8] }> <{ [22 x i8] c"failed to spawn thread" }>, align 1
@alloc_1f8c62d57f163807c7029893ad26ce72 = private unnamed_addr constant <{ ptr, [16 x i8] }> <{ ptr @alloc_33b1e69a422a81942b7149db811cc384, [16 x i8] c"M\00\00\00\00\00\00\00\AC\02\00\00\1D\00\00\00" }>, align 8
@alloc_498705839b3ae85466bce6e7ebfe4996 = private unnamed_addr constant <{ [47 x i8] }> <{ [47 x i8] c"thread name may not contain interior null bytes" }>, align 1
@alloc_10ce3643ab05b89124ccab86e25db141 = private unnamed_addr constant <{ ptr, [16 x i8] }> <{ ptr @alloc_33b1e69a422a81942b7149db811cc384, [16 x i8] c"M\00\00\00\00\00\00\00\DC\01\00\00 \00\00\00" }>, align 8
@vtable.2 = private unnamed_addr constant <{ ptr, [16 x i8], ptr }> <{ ptr @"_ZN4core3ptr159drop_in_place$LT$std..thread..Builder..spawn_unchecked_$LT$RUSTSEC_2022_0070..main..$u7b$$u7b$closure$u7d$$u7d$$C$$LP$$RP$$GT$..$u7b$$u7b$closure$u7d$$u7d$$GT$17hf3aee782d30a72b2E", [16 x i8] c" \00\00\00\00\00\00\00\08\00\00\00\00\00\00\00", ptr @"_ZN4core3ops8function6FnOnce40call_once$u7b$$u7b$vtable.shim$u7d$$u7d$17h4dc0843d7b2f896dE" }>, align 8
@vtable.3 = private unnamed_addr constant <{ ptr, [16 x i8], ptr }> <{ ptr @"_ZN4core3ptr26drop_in_place$LT$usize$GT$17hbc39f1cce3731585E", [16 x i8] c"\08\00\00\00\00\00\00\00\08\00\00\00\00\00\00\00", ptr @"_ZN42_$LT$$RF$T$u20$as$u20$core..fmt..Debug$GT$3fmt17h698a0e7705011ad2E" }>, align 8
@alloc_91c7fa63c3cfeaa3c795652d5cf060e4 = private unnamed_addr constant <{ [12 x i8] }> <{ [12 x i8] c"invalid args" }>, align 1
@alloc_af99043bc04c419363a7f04d23183506 = private unnamed_addr constant <{ ptr, [8 x i8] }> <{ ptr @alloc_91c7fa63c3cfeaa3c795652d5cf060e4, [8 x i8] c"\0C\00\00\00\00\00\00\00" }>, align 8
@alloc_513570631223a12912d85da2bec3b15a = private unnamed_addr constant <{}> zeroinitializer, align 8
@alloc_4243f84a3a879718e5490fe547b0ab9c = private unnamed_addr constant <{ [75 x i8] }> <{ [75 x i8] c"/rustc/07dca489ac2d933c78d3c5158e3f43beefeb02ce/library/core/src/fmt/mod.rs" }>, align 1
@alloc_5f330cd7dff757941d785f386d839300 = private unnamed_addr constant <{ ptr, [16 x i8] }> <{ ptr @alloc_4243f84a3a879718e5490fe547b0ab9c, [16 x i8] c"K\00\00\00\00\00\00\00M\01\00\00\0D\00\00\00" }>, align 8
@alloc_87aade1e32141a008cc1d76d37ad88ac = private unnamed_addr constant <{ [80 x i8] }> <{ [80 x i8] c"/rustc/07dca489ac2d933c78d3c5158e3f43beefeb02ce/library/core/src/char/methods.rs" }>, align 1
@alloc_6a0114d2661e84bef3991f7200e47da8 = private unnamed_addr constant <{ ptr, [16 x i8] }> <{ ptr @alloc_87aade1e32141a008cc1d76d37ad88ac, [16 x i8] c"P\00\00\00\00\00\00\00\05\07\00\00\0D\00\00\00" }>, align 8
@alloc_6b031f9bca8204235732c7c365d04a1d = private unnamed_addr constant <{ [18 x i8] }> <{ [18 x i8] c"encode_utf8: need " }>, align 1
@alloc_28d13efb0f9a95ccb5d02ec33dd195cf = private unnamed_addr constant <{ [19 x i8] }> <{ [19 x i8] c" bytes to encode U+" }>, align 1
@alloc_0d928972d2befd736e581c7fcc5a2f9a = private unnamed_addr constant <{ [21 x i8] }> <{ [21 x i8] c", but the buffer has " }>, align 1
@alloc_d51214f097f67314513b76e97e13aa6b = private unnamed_addr constant <{ ptr, [8 x i8], ptr, [8 x i8], ptr, [8 x i8] }> <{ ptr @alloc_6b031f9bca8204235732c7c365d04a1d, [8 x i8] c"\12\00\00\00\00\00\00\00", ptr @alloc_28d13efb0f9a95ccb5d02ec33dd195cf, [8 x i8] c"\13\00\00\00\00\00\00\00", ptr @alloc_0d928972d2befd736e581c7fcc5a2f9a, [8 x i8] c"\15\00\00\00\00\00\00\00" }>, align 8
@alloc_15e56ccbce15945ea86b75a3c6d59ec8 = private unnamed_addr constant <{ ptr, [16 x i8] }> <{ ptr @alloc_87aade1e32141a008cc1d76d37ad88ac, [16 x i8] c"P\00\00\00\00\00\00\00\FE\06\00\00\0E\00\00\00" }>, align 8
@alloc_9cd20c3e415f4d39f0ceb012cb758628 = private unnamed_addr constant <{ [40 x i8] }> <{ [40 x i8] c"there is no such thing as a release load" }>, align 1
@alloc_cf8f91dd8bc9347b20052f6ccc905cd7 = private unnamed_addr constant <{ ptr, [8 x i8] }> <{ ptr @alloc_9cd20c3e415f4d39f0ceb012cb758628, [8 x i8] c"(\00\00\00\00\00\00\00" }>, align 8
@alloc_6c138c94c234ed7dfd455fcb63eead43 = private unnamed_addr constant <{ [79 x i8] }> <{ [79 x i8] c"/rustc/07dca489ac2d933c78d3c5158e3f43beefeb02ce/library/core/src/sync/atomic.rs" }>, align 1
@alloc_4c32346d01eeb3c0619dc95e0468893e = private unnamed_addr constant <{ ptr, [16 x i8] }> <{ ptr @alloc_6c138c94c234ed7dfd455fcb63eead43, [16 x i8] c"O\00\00\00\00\00\00\00\DB\0C\00\00\18\00\00\00" }>, align 8
@alloc_96ab912d0054b46da785b206a96c9a45 = private unnamed_addr constant <{ [49 x i8] }> <{ [49 x i8] c"there is no such thing as an acquire-release load" }>, align 1
@alloc_7e8e9a1d4bc7d0bbec692f0a50681e22 = private unnamed_addr constant <{ ptr, [8 x i8] }> <{ ptr @alloc_96ab912d0054b46da785b206a96c9a45, [8 x i8] c"1\00\00\00\00\00\00\00" }>, align 8
@alloc_93c532d79ae5a1fe4b07989efd8a35e4 = private unnamed_addr constant <{ ptr, [16 x i8] }> <{ ptr @alloc_6c138c94c234ed7dfd455fcb63eead43, [16 x i8] c"O\00\00\00\00\00\00\00\DC\0C\00\00\17\00\00\00" }>, align 8
@alloc_bf39103a6db665396aab4632362d9353 = private unnamed_addr constant <{ [42 x i8] }> <{ [42 x i8] c"there is no such thing as an acquire store" }>, align 1
@alloc_47c752ba42fbab56d43a37cfd56e4899 = private unnamed_addr constant <{ ptr, [8 x i8] }> <{ ptr @alloc_bf39103a6db665396aab4632362d9353, [8 x i8] c"*\00\00\00\00\00\00\00" }>, align 8
@alloc_cb63d255000c7e9fed7db8f9c4b60326 = private unnamed_addr constant <{ ptr, [16 x i8] }> <{ ptr @alloc_6c138c94c234ed7dfd455fcb63eead43, [16 x i8] c"O\00\00\00\00\00\00\00\CC\0C\00\00\18\00\00\00" }>, align 8
@alloc_00c0bce0fa6327f8ec8e69d6d765d508 = private unnamed_addr constant <{ [50 x i8] }> <{ [50 x i8] c"there is no such thing as an acquire-release store" }>, align 1
@alloc_f8dbac861f87e25e445761cc4af66745 = private unnamed_addr constant <{ ptr, [8 x i8] }> <{ ptr @alloc_00c0bce0fa6327f8ec8e69d6d765d508, [8 x i8] c"2\00\00\00\00\00\00\00" }>, align 8
@alloc_2061bd2e099bb1065f735aed396f79a4 = private unnamed_addr constant <{ ptr, [16 x i8] }> <{ ptr @alloc_6c138c94c234ed7dfd455fcb63eead43, [16 x i8] c"O\00\00\00\00\00\00\00\CD\0C\00\00\17\00\00\00" }>, align 8
@alloc_5a43f8d94dd4505c1dba43832ce73af8 = private unnamed_addr constant <{ [52 x i8] }> <{ [52 x i8] c"there is no such thing as a release failure ordering" }>, align 1
@alloc_04ab601c54c6e0a22ff11d72dc7f4511 = private unnamed_addr constant <{ ptr, [8 x i8] }> <{ ptr @alloc_5a43f8d94dd4505c1dba43832ce73af8, [8 x i8] c"4\00\00\00\00\00\00\00" }>, align 8
@alloc_826fa8dc4bf9d95988bea67cf29fdc26 = private unnamed_addr constant <{ ptr, [16 x i8] }> <{ ptr @alloc_6c138c94c234ed7dfd455fcb63eead43, [16 x i8] c"O\00\00\00\00\00\00\000\0D\00\00\1D\00\00\00" }>, align 8
@alloc_7adef5546d83b439c7829602020737c6 = private unnamed_addr constant <{ [61 x i8] }> <{ [61 x i8] c"there is no such thing as an acquire-release failure ordering" }>, align 1
@alloc_dd7d8f77c173bf31726eae321f955bec = private unnamed_addr constant <{ ptr, [8 x i8] }> <{ ptr @alloc_7adef5546d83b439c7829602020737c6, [8 x i8] c"=\00\00\00\00\00\00\00" }>, align 8
@alloc_69680bf1a9adc0c1931d0dbd2195eaef = private unnamed_addr constant <{ ptr, [16 x i8] }> <{ ptr @alloc_6c138c94c234ed7dfd455fcb63eead43, [16 x i8] c"O\00\00\00\00\00\00\00/\0D\00\00\1C\00\00\00" }>, align 8
@alloc_a65db75132b92a882fd01eb367d64c4a = private unnamed_addr constant <{ [80 x i8] }> <{ [80 x i8] c"/rustc/07dca489ac2d933c78d3c5158e3f43beefeb02ce/library/core/src/slice/memchr.rs" }>, align 1
@alloc_5bc1b291dae9b898876d4e4c4a53a140 = private unnamed_addr constant <{ ptr, [16 x i8] }> <{ ptr @alloc_a65db75132b92a882fd01eb367d64c4a, [16 x i8] c"P\00\00\00\00\00\00\00+\00\00\00\0C\00\00\00" }>, align 8
@vtable.4 = private unnamed_addr constant <{ ptr, [16 x i8], ptr }> <{ ptr @"_ZN4core3ptr48drop_in_place$LT$alloc..ffi..c_str..NulError$GT$17h4aa21eb073a98ac5E", [16 x i8] c" \00\00\00\00\00\00\00\08\00\00\00\00\00\00\00", ptr @"_ZN64_$LT$alloc..ffi..c_str..NulError$u20$as$u20$core..fmt..Debug$GT$3fmt17he3876bb7f467ed0aE" }>, align 8
@vtable.5 = private unnamed_addr constant <{ ptr, [16 x i8], ptr }> <{ ptr @"_ZN4core3ptr42drop_in_place$LT$std..io..error..Error$GT$17h4303a5a38e62dbf2E", [16 x i8] c"\08\00\00\00\00\00\00\00\08\00\00\00\00\00\00\00", ptr @"_ZN58_$LT$std..io..error..Error$u20$as$u20$core..fmt..Debug$GT$3fmt17hebd0cc014ce90354E" }>, align 8
@alloc_00ae4b301f7fab8ac9617c03fcbd7274 = private unnamed_addr constant <{ [43 x i8] }> <{ [43 x i8] c"called `Result::unwrap()` on an `Err` value" }>, align 1
@vtable.6 = private unnamed_addr constant <{ ptr, [16 x i8], ptr }> <{ ptr @"_ZN4core3ptr91drop_in_place$LT$alloc..boxed..Box$LT$dyn$u20$core..any..Any$u2b$core..marker..Send$GT$$GT$17hee4fe6bdc51b86a8E", [16 x i8] c"\10\00\00\00\00\00\00\00\08\00\00\00\00\00\00\00", ptr @"_ZN67_$LT$alloc..boxed..Box$LT$T$C$A$GT$$u20$as$u20$core..fmt..Debug$GT$3fmt17h8860dac356a6bddcE" }>, align 8
@__rust_no_alloc_shim_is_unstable = external global i8
@alloc_49c0eff15ce41ce22a2d8c8b146a94ef = private unnamed_addr constant <{ [8 x i8] }> <{ [8 x i8] c"NulError" }>, align 1
@vtable.7 = private unnamed_addr constant <{ ptr, [16 x i8], ptr }> <{ ptr @"_ZN4core3ptr26drop_in_place$LT$usize$GT$17hbc39f1cce3731585E", [16 x i8] c"\08\00\00\00\00\00\00\00\08\00\00\00\00\00\00\00", ptr @"_ZN4core3fmt3num52_$LT$impl$u20$core..fmt..Debug$u20$for$u20$usize$GT$3fmt17h6cfa0ce3ab19debeE" }>, align 8
@vtable.8 = private unnamed_addr constant <{ ptr, [16 x i8], ptr }> <{ ptr @"_ZN4core3ptr26drop_in_place$LT$usize$GT$17hbc39f1cce3731585E", [16 x i8] c"\08\00\00\00\00\00\00\00\08\00\00\00\00\00\00\00", ptr @"_ZN42_$LT$$RF$T$u20$as$u20$core..fmt..Debug$GT$3fmt17h9de9292adf168005E" }>, align 8
@alloc_3b99cf3889855522042186bfbc89cd01 = private unnamed_addr constant <{ [52 x i8] }> <{ [52 x i8] c"fatal runtime error: thread result panicked on drop\0A" }>, align 1
@alloc_2ca7775364e940040d1ca01e1c1e4d62 = private unnamed_addr constant <{ ptr, [8 x i8] }> <{ ptr @alloc_3b99cf3889855522042186bfbc89cd01, [8 x i8] c"4\00\00\00\00\00\00\00" }>, align 8
@alloc_457553e717e967e0747a8731b830606b = private unnamed_addr constant <{ [25 x i8] }> <{ [25 x i8] c"data/RUSTSEC_2022_0070.rs" }>, align 1
@alloc_de3f6b91cfd1887e185c01b0be93b80d = private unnamed_addr constant <{ ptr, [16 x i8] }> <{ ptr @alloc_457553e717e967e0747a8731b830606b, [16 x i8] c"\19\00\00\00\00\00\00\006\00\00\00\0F\00\00\00" }>, align 8
@alloc_67f38e6f1ae8e860d198bf23a94b61e5 = private unnamed_addr constant <{ [56 x i8] }> <{ [56 x i8] c"[data/RUSTSEC_2022_0070.rs:57:14] *(*secpArc.ctx).ptr = " }>, align 1
@alloc_49a1e817e911805af64bbc7efb390101 = private unnamed_addr constant <{ [1 x i8] }> <{ [1 x i8] c"\0A" }>, align 1
@alloc_e0e6aa899f01a026150fec5a9197e6b5 = private unnamed_addr constant <{ ptr, [8 x i8], ptr, [8 x i8] }> <{ ptr @alloc_67f38e6f1ae8e860d198bf23a94b61e5, [8 x i8] c"8\00\00\00\00\00\00\00", ptr @alloc_49a1e817e911805af64bbc7efb390101, [8 x i8] c"\01\00\00\00\00\00\00\00" }>, align 8

; Function Attrs: noinline nounwind optnone uwtable
define dso_local ptr @prealloc_new(ptr noundef %0) #0 !dbg !13 {
  %2 = alloca ptr, align 8
  %3 = alloca ptr, align 8
  store ptr %0, ptr %2, align 8
  %4 = call noalias ptr @malloc(i64 noundef 8) #29, !dbg !16
  store ptr %4, ptr %3, align 8, !dbg !17
  %5 = load ptr, ptr %2, align 8, !dbg !18
  %6 = load ptr, ptr %3, align 8, !dbg !19
  %7 = getelementptr inbounds %struct.SecpCtx, ptr %6, i32 0, i32 0, !dbg !20
  store ptr %5, ptr %7, align 8, !dbg !21
  %8 = load ptr, ptr %3, align 8, !dbg !22
  ret ptr %8, !dbg !23
}

; Function Attrs: nounwind allocsize(0)
declare noalias ptr @malloc(i64 noundef) #1

; Function Attrs: noinline nounwind optnone uwtable
define dso_local void @use_ctx(ptr noundef %0) #0 !dbg !24 {
  %2 = alloca ptr, align 8
  store ptr %0, ptr %2, align 8
  %3 = load ptr, ptr %2, align 8, !dbg !25
  %4 = getelementptr inbounds %struct.SecpCtx, ptr %3, i32 0, i32 0, !dbg !26
  %5 = load ptr, ptr %4, align 8, !dbg !26
  %6 = load i32, ptr %5, align 4, !dbg !27
  %7 = add nsw i32 %6, 1, !dbg !27
  store i32 %7, ptr %5, align 4, !dbg !27
  ret void, !dbg !28
}

; Function Attrs: noinline nounwind optnone uwtable
define dso_local void @free_ctx(ptr noundef %0) #0 !dbg !29 {
  %2 = alloca ptr, align 8
  store ptr %0, ptr %2, align 8
  %3 = load ptr, ptr %2, align 8, !dbg !30
  call void @free(ptr noundef %3) #30, !dbg !31
  ret void, !dbg !32
}

; Function Attrs: nounwind
declare void @free(ptr noundef) #2

; Function Attrs: nounwind
define hidden i64 @_ZN3std2rt10lang_start17had99dbbf8e1069baE(ptr %main, i64 %argc, ptr %argv, i8 %sigpipe) unnamed_addr #3 !dbg !33 {
start:
  %_8 = alloca ptr, align 8
  %_5 = alloca i64, align 8
  store ptr %main, ptr %_8, align 8, !dbg !37
  %i = call i64 @_ZN3std2rt19lang_start_internal17hba631f1493ca29caE(ptr align 1 %_8, ptr align 8 @vtable.1, i64 %argc, ptr %argv, i8 %sigpipe) #30, !dbg !38
  store i64 %i, ptr %_5, align 8, !dbg !38
  ret i64 %i, !dbg !39
}

; Function Attrs: nounwind
declare i64 @_ZN3std2rt19lang_start_internal17hba631f1493ca29caE(ptr align 1, ptr align 8, i64, ptr, i8) unnamed_addr #3

; Function Attrs: inlinehint mustprogress nofree norecurse nosync nounwind willreturn memory(none)
define internal void @"_ZN4core3ptr26drop_in_place$LT$usize$GT$17hbc39f1cce3731585E"(ptr nocapture align 8 %_1) unnamed_addr #4 !dbg !40 {
start:
  ret void, !dbg !44
}

; Function Attrs: inlinehint nounwind
define internal i32 @"_ZN4core3ops8function6FnOnce40call_once$u7b$$u7b$vtable.shim$u7d$$u7d$17hac714ce7ce05acb0E"(ptr nocapture readonly %_1) unnamed_addr #5 !dbg !45 {
start:
  %i = load ptr, ptr %_1, align 8, !dbg !50, !nonnull !15, !noundef !15
  %_0 = call fastcc i32 @_ZN4core3ops8function6FnOnce9call_once17h23c982c047563a4dE(ptr %i) #30, !dbg !50
  ret i32 %_0, !dbg !50
}

; Function Attrs: inlinehint nounwind
define internal i32 @"_ZN3std2rt10lang_start28_$u7b$$u7b$closure$u7d$$u7d$17he0612cc368812647E"(ptr nocapture readonly align 8 %_1) unnamed_addr #5 !dbg !51 {
start:
  %self = alloca i8, align 1
  %_4 = load ptr, ptr %_1, align 8, !dbg !53, !nonnull !15, !noundef !15
  call fastcc void @_ZN3std10sys_common9backtrace28__rust_begin_short_backtrace17h8b019ae9003d7bfcE(ptr %_4) #30, !dbg !54
  %i = call fastcc i8 @"_ZN54_$LT$$LP$$RP$$u20$as$u20$std..process..Termination$GT$6report17hcfe9dad713021ab9E"() #30, !dbg !54
  store i8 %i, ptr %self, align 1, !dbg !54
  %_0 = zext i8 %i to i32, !dbg !55
  ret i32 %_0, !dbg !71
}

; Function Attrs: noinline nounwind
define internal fastcc void @_ZN3std10sys_common9backtrace28__rust_begin_short_backtrace17h8b019ae9003d7bfcE(ptr nocapture readonly %f) unnamed_addr #6 !dbg !72 {
start:
  call fastcc void @_ZN4core3ops8function6FnOnce9call_once17h530be41a12eb082eE(ptr %f) #30, !dbg !76
  call void asm sideeffect "", "~{memory}"(), !dbg !77, !srcloc !84
  ret void, !dbg !85
}

; Function Attrs: inlinehint mustprogress nofree norecurse nosync nounwind willreturn memory(none)
define internal fastcc i8 @"_ZN54_$LT$$LP$$RP$$u20$as$u20$std..process..Termination$GT$6report17hcfe9dad713021ab9E"() unnamed_addr #4 !dbg !86 {
start:
  ret i8 0, !dbg !88
}

; Function Attrs: inlinehint nounwind
define internal fastcc void @_ZN4core3ops8function6FnOnce9call_once17h530be41a12eb082eE(ptr nocapture readonly %_1) unnamed_addr #5 !dbg !89 {
start:
  call void %_1() #30, !dbg !90
  ret void, !dbg !90
}

; Function Attrs: inlinehint nounwind
define internal fastcc i32 @_ZN4core3ops8function6FnOnce9call_once17h23c982c047563a4dE(ptr %arg) unnamed_addr #5 !dbg !91 {
start:
  %_1 = alloca ptr, align 8
  store ptr %arg, ptr %_1, align 8
  %_0 = call i32 @"_ZN3std2rt10lang_start28_$u7b$$u7b$closure$u7d$$u7d$17he0612cc368812647E"(ptr align 8 %_1) #30, !dbg !92
  ret i32 %_0, !dbg !92
}

; Function Attrs: nounwind
define i32 @main(i32 %arg, ptr %arg1) unnamed_addr #7 {
top:
  %i = sext i32 %arg to i64
  %i2 = call i64 @_ZN3std2rt10lang_start17had99dbbf8e1069baE(ptr @_ZN17RUSTSEC_2022_00704main17had0e9a6610d39333E, i64 %i, ptr %arg1, i8 0)
  %i3 = trunc i64 %i2 to i32
  ret i32 %i3
}

; Function Attrs: nounwind
define internal void @_ZN17RUSTSEC_2022_00704main17had0e9a6610d39333E() unnamed_addr #3 personality ptr @rust_eh_personality !dbg !93 {
start:
  %e.i = alloca { ptr, ptr }, align 8
  %self.i3 = alloca { ptr, ptr }, align 8
  %self.i = alloca ptr, align 8
  %_4.i1 = alloca { ptr, i64 }, align 8
  %layout.i = alloca { i64, i64 }, align 8
  %_0.i = alloca { ptr, ptr }, align 8
  %_36 = alloca { i64, i64 }, align 8
  %_35 = alloca { i64, i64 }, align 8
  %_34 = alloca i8, align 1
  %_33 = alloca %"core::fmt::rt::Placeholder", align 8
  %_32 = alloca [1 x %"core::fmt::rt::Placeholder"], align 8
  %_29 = alloca ptr, align 8
  %_26 = alloca [1 x { ptr, ptr }], align 8
  %_22 = alloca %"core::fmt::Arguments<'_>", align 8
  %tmp = alloca i32, align 4
  %_9 = alloca ptr, align 8
  %t1 = alloca %"std::thread::JoinHandle<()>", align 8
  %secpArc = alloca ptr, align 8
  %data = alloca ptr, align 8
  call void @llvm.lifetime.start.p0(i64 8, ptr %self.i), !dbg !96
  call void @llvm.lifetime.start.p0(i64 16, ptr %_4.i1), !dbg !96
  call void @llvm.lifetime.start.p0(i64 16, ptr %layout.i), !dbg !96
  %i = getelementptr inbounds { i64, i64 }, ptr %layout.i, i32 0, i32 1, !dbg !96
  store i64 4, ptr %i, align 8, !dbg !96
  store i64 4, ptr %layout.i, align 8, !dbg !96
  %i9 = call fastcc { ptr, i64 } @_ZN5alloc5alloc6Global10alloc_impl17hf579a46dd897dcd9E(i64 4, i64 4, i1 zeroext false) #30, !dbg !117
  store { ptr, i64 } %i9, ptr %_4.i1, align 8, !dbg !117
  %i10 = load ptr, ptr %_4.i1, align 8, !dbg !123, !noundef !15
  %i11 = ptrtoint ptr %i10 to i64, !dbg !123
  %i12 = icmp eq i64 %i11, 0, !dbg !123
  %_5.i = select i1 %i12, i64 1, i64 0, !dbg !123
  %i13 = icmp eq i64 %_5.i, 0, !dbg !124
  br i1 %i13, label %bb3.i, label %codeRepl.i, !dbg !124

bb3.i:                                            ; preds = %start
  store ptr %i10, ptr %self.i, align 8, !dbg !125
  call void @llvm.lifetime.end.p0(i64 8, ptr %self.i), !dbg !141
  call void @llvm.lifetime.end.p0(i64 16, ptr %_4.i1), !dbg !141
  call void @llvm.lifetime.end.p0(i64 16, ptr %layout.i), !dbg !141
  store i32 0, ptr %i10, align 4, !dbg !142
  store ptr %i10, ptr %data, align 8, !dbg !143
  %secp = call fastcc ptr @_ZN17RUSTSEC_2022_00704Secp3new17hae62bd2bb2421e81E(ptr %i10) #30, !dbg !144
  %i14 = call fastcc ptr @"_ZN5alloc4sync12Arc$LT$T$GT$3new17h76df464889fb3bd4E"(ptr %secp) #30, !dbg !147
  store ptr %i14, ptr %secpArc, align 8, !dbg !147
  %s1 = call fastcc ptr @"_ZN68_$LT$alloc..sync..Arc$LT$T$C$A$GT$$u20$as$u20$core..clone..Clone$GT$5clone17h36a5152bd7baf03cE"(ptr align 8 %secpArc) #30, !dbg !149
  store ptr %s1, ptr %_9, align 8, !dbg !151
  call fastcc void @_ZN3std6thread5spawn17he54c83c0390fa3aeE(ptr noalias align 8 %t1, ptr %s1) #30, !dbg !153
  %secpArc.val43 = load ptr, ptr %secpArc, align 8, !dbg !154, !nonnull !15, !noundef !15
  %_11 = call fastcc align 8 ptr @"_ZN73_$LT$alloc..sync..Arc$LT$T$C$A$GT$$u20$as$u20$core..ops..deref..Deref$GT$5deref17h85cb7cdca0043135E"(ptr %secpArc.val43) #30, !dbg !154
  %_11.val = load ptr, ptr %_11, align 8, !dbg !154, !noundef !15
  call fastcc void @_ZN17RUSTSEC_2022_00704Secp4free17hc066542c85449a27E(ptr %_11.val) #30, !dbg !154
  %i16 = call fastcc { ptr, ptr } @"_ZN3std6thread19JoinHandle$LT$T$GT$4join17hc441ea1f1a69c9ebE"(ptr align 8 %t1) #30, !dbg !156
  %_14.0 = extractvalue { ptr, ptr } %i16, 0, !dbg !156
  %_14.1 = extractvalue { ptr, ptr } %i16, 1, !dbg !156
  call void @llvm.lifetime.start.p0(i64 16, ptr %e.i)
  call void @llvm.lifetime.start.p0(i64 16, ptr %self.i3)
  store ptr %_14.0, ptr %self.i3, align 8
  %i17 = getelementptr inbounds { ptr, ptr }, ptr %self.i3, i32 0, i32 1
  store ptr %_14.1, ptr %i17, align 8
  %i19 = ptrtoint ptr %_14.0 to i64, !dbg !157
  %i20 = icmp eq i64 %i19, 0, !dbg !157
  br i1 %i20, label %bb3.i5, label %codeRepl.i4, !dbg !163

codeRepl.i:                                       ; preds = %start
  %layout.i.val = load i64, ptr %layout.i, align 8, !dbg !164, !range !165, !noundef !15
  %0 = getelementptr i8, ptr %layout.i, i64 8, !dbg !164
  %layout.i.val41 = load i64, ptr %0, align 8, !dbg !164, !noundef !15
  call fastcc void @_ZN5alloc5alloc15exchange_malloc17hde11603628d604cbE.6.bb1(i64 %layout.i.val, i64 %layout.i.val41), !dbg !164
  unreachable

bb3.i5:                                           ; preds = %bb3.i
  call void @llvm.lifetime.end.p0(i64 16, ptr %e.i), !dbg !166
  call void @llvm.lifetime.end.p0(i64 16, ptr %self.i3), !dbg !166
  %secpArc.val42 = load ptr, ptr %secpArc, align 8, !dbg !167, !nonnull !15, !noundef !15
  %_16 = call fastcc align 8 ptr @"_ZN73_$LT$alloc..sync..Arc$LT$T$C$A$GT$$u20$as$u20$core..ops..deref..Deref$GT$5deref17h85cb7cdca0043135E"(ptr %secpArc.val42) #30, !dbg !167
  %_16.val = load ptr, ptr %_16, align 8, !dbg !167, !noundef !15
  call fastcc void @_ZN17RUSTSEC_2022_00704Secp6update17hef9f6d19344b7aa3E(ptr %_16.val) #30, !dbg !167
  %secpArc.val = load ptr, ptr %secpArc, align 8, !dbg !168, !nonnull !15, !noundef !15
  %_18 = call fastcc align 8 ptr @"_ZN73_$LT$alloc..sync..Arc$LT$T$C$A$GT$$u20$as$u20$core..ops..deref..Deref$GT$5deref17h85cb7cdca0043135E"(ptr %secpArc.val) #30, !dbg !168
  %_39 = load ptr, ptr %_18, align 8, !dbg !170, !noundef !15
  %_40 = load ptr, ptr %_39, align 8, !dbg !170, !noundef !15
  %i21 = load i32, ptr %_40, align 4, !dbg !170, !noundef !15
  store i32 %i21, ptr %tmp, align 4, !dbg !170
  store ptr %tmp, ptr %_29, align 8, !dbg !171
  store ptr %_29, ptr %_0.i, align 8, !dbg !175
  %i22 = getelementptr inbounds { ptr, ptr }, ptr %_0.i, i32 0, i32 1, !dbg !175
  store ptr @"_ZN42_$LT$$RF$T$u20$as$u20$core..fmt..Debug$GT$3fmt17h3eca63a08b71981fE", ptr %i22, align 8, !dbg !175
  store ptr %_29, ptr %_26, align 8, !dbg !171
  %i26 = getelementptr inbounds { ptr, ptr }, ptr %_26, i32 0, i32 1, !dbg !171
  store ptr @"_ZN42_$LT$$RF$T$u20$as$u20$core..fmt..Debug$GT$3fmt17h3eca63a08b71981fE", ptr %i26, align 8, !dbg !171
  store i8 3, ptr %_34, align 1, !dbg !171
  store i64 2, ptr %_35, align 8, !dbg !171
  store i64 2, ptr %_36, align 8, !dbg !171
  %i34 = getelementptr inbounds %"core::fmt::rt::Placeholder", ptr %_33, i32 0, i32 2, !dbg !186
  store i64 0, ptr %i34, align 8, !dbg !186
  %i35 = getelementptr inbounds %"core::fmt::rt::Placeholder", ptr %_33, i32 0, i32 3, !dbg !186
  store i32 32, ptr %i35, align 8, !dbg !186
  %i36 = getelementptr inbounds %"core::fmt::rt::Placeholder", ptr %_33, i32 0, i32 5, !dbg !186
  store i8 3, ptr %i36, align 8, !dbg !186
  %i37 = getelementptr inbounds %"core::fmt::rt::Placeholder", ptr %_33, i32 0, i32 4, !dbg !186
  store i32 4, ptr %i37, align 4, !dbg !186
  store i64 2, ptr %_33, align 8, !dbg !186
  %i38 = getelementptr inbounds { i64, i64 }, ptr %_33, i32 0, i32 1, !dbg !186
  store i64 undef, ptr %i38, align 8, !dbg !186
  %i39 = getelementptr inbounds %"core::fmt::rt::Placeholder", ptr %_33, i32 0, i32 1, !dbg !186
  store i64 2, ptr %i39, align 8, !dbg !186
  %i40 = getelementptr inbounds { i64, i64 }, ptr %i39, i32 0, i32 1, !dbg !186
  store i64 undef, ptr %i40, align 8, !dbg !186
  call void @llvm.memcpy.p0.p0.i64(ptr align 8 %_32, ptr align 8 %_33, i64 56, i1 false), !dbg !171
  call fastcc void @_ZN4core3fmt9Arguments16new_v1_formatted17h4f967bdcd21c8a6eE(ptr noalias align 8 %_22, ptr align 8 @alloc_e0e6aa899f01a026150fec5a9197e6b5, i64 2, ptr align 8 %_26, i64 1, ptr align 8 %_32, i64 1) #30, !dbg !171
  call void @_ZN3std2io5stdio7_eprint17h9e7b70d2bf85f38dE(ptr align 8 %_22) #30, !dbg !171
  call fastcc void @"_ZN4core3ptr68drop_in_place$LT$alloc..sync..Arc$LT$RUSTSEC_2022_0070..Secp$GT$$GT$17h34e98efaa7db700fE"(ptr align 8 %secpArc) #30, !dbg !190
  %data.val = load ptr, ptr %data, align 8, !dbg !191, !nonnull !15, !noundef !15
  call fastcc void @"_ZN4core3ptr49drop_in_place$LT$alloc..boxed..Box$LT$i32$GT$$GT$17hc7bee52ca298b31bE"(ptr %data.val) #30, !dbg !191
  ret void, !dbg !192

codeRepl.i4:                                      ; preds = %bb3.i
  %self.i3.val = load ptr, ptr %self.i3, align 8, !dbg !193, !nonnull !15, !align !194, !noundef !15
  %1 = getelementptr i8, ptr %self.i3, i64 8, !dbg !193
  %self.i3.val44 = load ptr, ptr %1, align 8, !dbg !193, !nonnull !15, !align !195, !noundef !15
  call fastcc void @"_ZN4core6result19Result$LT$T$C$E$GT$6unwrap17ha5292ab542dcb9b9E.7.bb1"(ptr %self.i3.val, ptr %self.i3.val44, ptr %e.i, ptr @alloc_de3f6b91cfd1887e185c01b0be93b80d), !dbg !193
  unreachable
}

; Function Attrs: nounwind
declare i32 @rust_eh_personality(i32, i32, i64, ptr, ptr) unnamed_addr #3

; Function Attrs: nocallback nofree nosync nounwind willreturn memory(argmem: readwrite)
declare void @llvm.lifetime.start.p0(i64 immarg, ptr nocapture) #8

; Function Attrs: inlinehint nounwind
define internal fastcc { ptr, i64 } @_ZN5alloc5alloc6Global10alloc_impl17hf579a46dd897dcd9E(i64 %arg, i64 %arg13, i1 zeroext %zeroed) unnamed_addr #5 !dbg !196 {
start:
  %zeroed.inv = xor i1 %zeroed, true
  %i = alloca i8, align 1
  %_76 = alloca { ptr, i64 }, align 8
  %_75 = alloca %"core::ptr::metadata::PtrRepr<[u8]>", align 8
  %_62 = alloca ptr, align 8
  %_57 = alloca i64, align 8
  %_43 = alloca i64, align 8
  %_34 = alloca { ptr, i64 }, align 8
  %_33 = alloca %"core::ptr::metadata::PtrRepr<[u8]>", align 8
  %_22 = alloca i64, align 8
  %_18 = alloca { ptr, i64 }, align 8
  %self4 = alloca ptr, align 8
  %self3 = alloca ptr, align 8
  %_12 = alloca ptr, align 8
  %layout2 = alloca { i64, i64 }, align 8
  %layout1 = alloca { i64, i64 }, align 8
  %raw_ptr = alloca ptr, align 8
  %data = alloca ptr, align 8
  %_6 = alloca { ptr, i64 }, align 8
  %_0 = alloca { ptr, i64 }, align 8
  %layout = alloca { i64, i64 }, align 8
  store i64 %arg, ptr %layout, align 8
  %i14 = getelementptr inbounds { i64, i64 }, ptr %layout, i32 0, i32 1
  store i64 %arg13, ptr %i14, align 8
  %i16 = icmp ne i64 %arg13, 0, !dbg !198
  br i1 %i16, label %bb1, label %Flow81, !dbg !198

bb2:                                              ; preds = %Flow81
  store i64 %arg, ptr %_22, align 8, !dbg !199
  %ptr = inttoptr i64 %arg to ptr, !dbg !213
  store ptr %ptr, ptr %data, align 8, !dbg !218
  store ptr %ptr, ptr %_34, align 8, !dbg !223
  %i17 = getelementptr inbounds { ptr, i64 }, ptr %_34, i32 0, i32 1, !dbg !223
  store i64 0, ptr %i17, align 8, !dbg !223
  store ptr %ptr, ptr %_33, align 8, !dbg !237
  %i21 = getelementptr inbounds { ptr, i64 }, ptr %_33, i32 0, i32 1, !dbg !237
  store i64 0, ptr %i21, align 8, !dbg !237
  store ptr %ptr, ptr %_6, align 8, !dbg !238
  %i23 = getelementptr inbounds { ptr, i64 }, ptr %_6, i32 0, i32 1, !dbg !238
  store i64 0, ptr %i23, align 8, !dbg !238
  store ptr %ptr, ptr %_0, align 8, !dbg !243
  %i27 = getelementptr inbounds { ptr, i64 }, ptr %_0, i32 0, i32 1, !dbg !243
  store i64 0, ptr %i27, align 8, !dbg !243
  br label %bb9, !dbg !244

bb1:                                              ; preds = %start
  br i1 %zeroed.inv, label %bb4, label %Flow80, !dbg !245

Flow76:                                           ; preds = %bb6, %Flow
  %0 = phi ptr [ %ptr10, %bb6 ], [ null, %Flow ]
  br label %Flow81, !dbg !248

bb9:                                              ; preds = %Flow81, %bb2
  %i30 = phi i64 [ %arg13, %Flow81 ], [ 0, %bb2 ], !dbg !250
  %i28 = phi ptr [ %3, %Flow81 ], [ %ptr, %bb2 ], !dbg !250
  %i31 = insertvalue { ptr, i64 } poison, ptr %i28, 0, !dbg !250
  %i32 = insertvalue { ptr, i64 } %i31, i64 %i30, 1, !dbg !250
  ret { ptr, i64 } %i32, !dbg !250

bb4:                                              ; preds = %bb1
  store i64 %arg, ptr %layout2, align 8, !dbg !251
  %i36 = getelementptr inbounds { i64, i64 }, ptr %layout2, i32 0, i32 1, !dbg !251
  store i64 %arg13, ptr %i36, align 8, !dbg !251
  %i37 = load volatile i8, ptr @__rust_no_alloc_shim_is_unstable, align 1, !dbg !252
  store i8 %i37, ptr %i, align 1, !dbg !252
  store i64 %arg, ptr %_57, align 8, !dbg !261
  %i39 = call ptr @__rust_alloc(i64 %arg13, i64 %arg) #30, !dbg !266
  store ptr %i39, ptr %raw_ptr, align 8, !dbg !266
  br label %Flow80, !dbg !267

Flow80:                                           ; preds = %bb4, %bb1
  %1 = phi ptr [ %i39, %bb4 ], [ undef, %bb1 ]
  %2 = phi i1 [ false, %bb4 ], [ true, %bb1 ], !dbg !245
  br i1 %2, label %bb3, label %bb5, !dbg !245

bb3:                                              ; preds = %Flow80
  store i64 %arg, ptr %layout1, align 8, !dbg !268
  %i43 = getelementptr inbounds { i64, i64 }, ptr %layout1, i32 0, i32 1, !dbg !268
  store i64 %arg13, ptr %i43, align 8, !dbg !268
  store i64 %arg, ptr %_43, align 8, !dbg !269
  %i45 = call ptr @__rust_alloc_zeroed(i64 %arg13, i64 %arg) #30, !dbg !278
  store ptr %i45, ptr %raw_ptr, align 8, !dbg !278
  br label %bb5, !dbg !267

Flow81:                                           ; preds = %Flow76, %start
  %3 = phi ptr [ %0, %Flow76 ], [ undef, %start ]
  %4 = phi i1 [ false, %Flow76 ], [ true, %start ], !dbg !198
  br i1 %4, label %bb2, label %bb9, !dbg !198

bb5:                                              ; preds = %bb3, %Flow80
  %ptr8 = phi ptr [ %i45, %bb3 ], [ %1, %Flow80 ], !dbg !279
  %_63 = ptrtoint ptr %ptr8 to i64, !dbg !280
  %i46 = icmp ne i64 %_63, 0, !dbg !298
  br i1 %i46, label %bb15, label %Flow79, !dbg !298

Flow79:                                           ; preds = %bb15, %bb5
  %5 = phi i1 [ false, %bb15 ], [ true, %bb5 ], !dbg !298
  br i1 %5, label %bb14, label %bb13, !dbg !298

bb14:                                             ; preds = %Flow79
  store ptr null, ptr %self4, align 8, !dbg !299
  br label %bb13, !dbg !300

bb15:                                             ; preds = %bb5
  store ptr %ptr8, ptr %_62, align 8, !dbg !301
  store ptr %ptr8, ptr %self4, align 8, !dbg !306
  br label %Flow79, !dbg !300

bb13:                                             ; preds = %bb14, %Flow79
  %v = phi ptr [ null, %bb14 ], [ %ptr8, %Flow79 ], !dbg !307
  %i49 = ptrtoint ptr %v to i64, !dbg !307
  %i50 = icmp ne i64 %i49, 0, !dbg !307
  br i1 %i50, label %bb17, label %Flow78, !dbg !314

Flow78:                                           ; preds = %bb17, %bb13
  %6 = phi i1 [ false, %bb17 ], [ true, %bb13 ], !dbg !314
  br i1 %6, label %bb16, label %bb18, !dbg !314

bb16:                                             ; preds = %Flow78
  store ptr null, ptr %self3, align 8, !dbg !315
  br label %bb18, !dbg !316

bb17:                                             ; preds = %bb13
  store ptr %v, ptr %self3, align 8, !dbg !317
  br label %Flow78, !dbg !319

bb18:                                             ; preds = %bb16, %Flow78
  %v9 = phi ptr [ null, %bb16 ], [ %v, %Flow78 ], !dbg !320
  %i52 = ptrtoint ptr %v9 to i64, !dbg !320
  %i53 = icmp eq i64 %i52, 0, !dbg !320
  br i1 %i53, label %bb20, label %Flow77, !dbg !324

Flow77:                                           ; preds = %bb20, %bb18
  %7 = phi i1 [ false, %bb20 ], [ true, %bb18 ], !dbg !324
  br i1 %7, label %bb21, label %bb19, !dbg !324

bb21:                                             ; preds = %Flow77
  store ptr %v9, ptr %_12, align 8, !dbg !325
  br label %bb19, !dbg !327

bb20:                                             ; preds = %bb18
  store ptr null, ptr %_12, align 8, !dbg !328
  br label %Flow77, !dbg !330

bb19:                                             ; preds = %bb21, %Flow77
  %ptr10 = phi ptr [ %v9, %bb21 ], [ null, %Flow77 ], !dbg !248
  %i56 = ptrtoint ptr %ptr10 to i64, !dbg !248
  %i57 = icmp eq i64 %i56, 0, !dbg !248
  br i1 %i57, label %bb8, label %Flow, !dbg !248

Flow:                                             ; preds = %bb8, %bb19
  %8 = phi i1 [ false, %bb8 ], [ true, %bb19 ], !dbg !248
  br i1 %8, label %bb6, label %Flow76, !dbg !248

bb6:                                              ; preds = %Flow
  store ptr %ptr10, ptr %_76, align 8, !dbg !331
  %i59 = getelementptr inbounds { ptr, i64 }, ptr %_76, i32 0, i32 1, !dbg !331
  store i64 %arg13, ptr %i59, align 8, !dbg !331
  store ptr %ptr10, ptr %_75, align 8, !dbg !341
  %i63 = getelementptr inbounds { ptr, i64 }, ptr %_75, i32 0, i32 1, !dbg !341
  store i64 %arg13, ptr %i63, align 8, !dbg !341
  store ptr %ptr10, ptr %_18, align 8, !dbg !342
  %i65 = getelementptr inbounds { ptr, i64 }, ptr %_18, i32 0, i32 1, !dbg !342
  store i64 %arg13, ptr %i65, align 8, !dbg !342
  store ptr %ptr10, ptr %_0, align 8, !dbg !346
  %i69 = getelementptr inbounds { ptr, i64 }, ptr %_0, i32 0, i32 1, !dbg !346
  store i64 %arg13, ptr %i69, align 8, !dbg !346
  br label %Flow76, !dbg !347

bb8:                                              ; preds = %bb19
  store ptr null, ptr %_0, align 8, !dbg !348
  br label %Flow, !dbg !250
}

; Function Attrs: nocallback nofree nosync nounwind willreturn memory(argmem: readwrite)
declare void @llvm.lifetime.end.p0(i64 immarg, ptr nocapture) #8

; Function Attrs: nounwind
define internal fastcc ptr @_ZN17RUSTSEC_2022_00704Secp3new17hae62bd2bb2421e81E(ptr %data) unnamed_addr #3 !dbg !356 {
start:
  %_0 = alloca ptr, align 8
  %_2 = call ptr @prealloc_new(ptr %data) #30, !dbg !358
  store ptr %_2, ptr %_0, align 8, !dbg !360
  ret ptr %_2, !dbg !361
}

; Function Attrs: inlinehint nounwind
define internal fastcc ptr @"_ZN5alloc4sync12Arc$LT$T$GT$3new17h76df464889fb3bd4E"(ptr %data) unnamed_addr #5 personality ptr @rust_eh_personality !dbg !362 {
start:
  %self.i = alloca ptr, align 8
  %_4.i1 = alloca { ptr, i64 }, align 8
  %layout.i = alloca { i64, i64 }, align 8
  %_11 = alloca ptr, align 8
  %ptr = alloca ptr, align 8
  %_5 = alloca %"core::sync::atomic::AtomicUsize", align 8
  %_4 = alloca %"core::sync::atomic::AtomicUsize", align 8
  %_3 = alloca %"alloc::sync::ArcInner<Secp>", align 8
  %_0 = alloca ptr, align 8
  store i64 1, ptr %_4, align 8, !dbg !366
  store i64 1, ptr %_5, align 8, !dbg !374
  call void @llvm.memcpy.p0.p0.i64(ptr align 8 %_3, ptr align 8 %_4, i64 8, i1 false), !dbg !377
  %i = getelementptr inbounds %"alloc::sync::ArcInner<Secp>", ptr %_3, i32 0, i32 1, !dbg !377
  call void @llvm.memcpy.p0.p0.i64(ptr align 8 %i, ptr align 8 %_5, i64 8, i1 false), !dbg !377
  %i3 = getelementptr inbounds %"alloc::sync::ArcInner<Secp>", ptr %_3, i32 0, i32 2, !dbg !377
  store ptr %data, ptr %i3, align 8, !dbg !377
  call void @llvm.lifetime.start.p0(i64 8, ptr %self.i), !dbg !378
  call void @llvm.lifetime.start.p0(i64 16, ptr %_4.i1), !dbg !378
  call void @llvm.lifetime.start.p0(i64 16, ptr %layout.i), !dbg !378
  %i4 = getelementptr inbounds { i64, i64 }, ptr %layout.i, i32 0, i32 1, !dbg !378
  store i64 24, ptr %i4, align 8, !dbg !378
  store i64 8, ptr %layout.i, align 8, !dbg !378
  %i8 = call fastcc { ptr, i64 } @_ZN5alloc5alloc6Global10alloc_impl17hf579a46dd897dcd9E(i64 8, i64 24, i1 zeroext false) #30, !dbg !384
  store { ptr, i64 } %i8, ptr %_4.i1, align 8, !dbg !384
  %i9 = load ptr, ptr %_4.i1, align 8, !dbg !386, !noundef !15
  %i10 = ptrtoint ptr %i9 to i64, !dbg !386
  %i11 = icmp eq i64 %i10, 0, !dbg !386
  %_5.i = select i1 %i11, i64 1, i64 0, !dbg !386
  %i12 = icmp eq i64 %_5.i, 0, !dbg !387
  br i1 %i12, label %bb3.i, label %codeRepl.i, !dbg !387

bb3.i:                                            ; preds = %start
  store ptr %i9, ptr %self.i, align 8, !dbg !388
  call void @llvm.lifetime.end.p0(i64 8, ptr %self.i), !dbg !392
  call void @llvm.lifetime.end.p0(i64 16, ptr %_4.i1), !dbg !392
  call void @llvm.lifetime.end.p0(i64 16, ptr %layout.i), !dbg !392
  call void @llvm.memcpy.p0.p0.i64(ptr align 8 %i9, ptr align 8 %_3, i64 24, i1 false), !dbg !393
  store ptr %i9, ptr %_11, align 8, !dbg !394
  store ptr %i9, ptr %ptr, align 8, !dbg !409
  store ptr %i9, ptr %_0, align 8, !dbg !421
  ret ptr %i9, !dbg !429

codeRepl.i:                                       ; preds = %start
  %layout.i.val = load i64, ptr %layout.i, align 8, !dbg !430, !range !165, !noundef !15
  %0 = getelementptr i8, ptr %layout.i, i64 8, !dbg !430
  %layout.i.val15 = load i64, ptr %0, align 8, !dbg !430, !noundef !15
  call fastcc void @_ZN5alloc5alloc15exchange_malloc17hde11603628d604cbE.6.bb1(i64 %layout.i.val, i64 %layout.i.val15), !dbg !430
  unreachable
}

; Function Attrs: inlinehint nounwind
define internal fastcc nonnull ptr @"_ZN68_$LT$alloc..sync..Arc$LT$T$C$A$GT$$u20$as$u20$core..clone..Clone$GT$5clone17h36a5152bd7baf03cE"(ptr nocapture readonly align 8 %self) unnamed_addr #5 !dbg !431 {
start:
  %i = alloca i64, align 8
  %_0 = alloca ptr, align 8
  %self1 = load ptr, ptr %self, align 8, !dbg !433, !nonnull !15, !noundef !15
  %i2 = atomicrmw add ptr %self1, i64 1 monotonic, align 8, !dbg !442
  store i64 %i2, ptr %i, align 8, !dbg !442
  %_4 = icmp ugt i64 %i2, 9223372036854775807, !dbg !451
  br i1 %_4, label %bb1, label %bb2, !dbg !451

bb2:                                              ; preds = %start
  %ptr = load ptr, ptr %self, align 8, !dbg !453, !nonnull !15, !noundef !15
  store ptr %ptr, ptr %_0, align 8, !dbg !455
  ret ptr %ptr, !dbg !459

bb1:                                              ; preds = %start
  call void @llvm.trap(), !dbg !460
  unreachable, !dbg !460
}

; Function Attrs: nounwind
define internal fastcc void @_ZN3std6thread5spawn17he54c83c0390fa3aeE(ptr noalias nocapture writeonly align 8 %_0, ptr %arg) unnamed_addr #3 personality ptr @rust_eh_personality !dbg !461 {
start:
  %e.i = alloca ptr, align 8
  %_8 = alloca { i64, i64 }, align 8
  %_7 = alloca %"core::option::Option<core::result::Result<(), alloc::boxed::Box<dyn core::any::Any + core::marker::Send>>>", align 8
  %self = alloca %"std::thread::Builder", align 8
  %_2 = alloca %"core::result::Result<std::thread::JoinHandle<()>, std::io::error::Error>", align 8
  %f = alloca ptr, align 8
  store ptr %arg, ptr %f, align 8
  store i64 -9223372036854775808, ptr %_7, align 8, !dbg !464
  store i64 0, ptr %_8, align 8, !dbg !469
  %i = getelementptr inbounds %"std::thread::Builder", ptr %self, i32 0, i32 1, !dbg !470
  call void @llvm.memcpy.p0.p0.i64(ptr align 8 %i, ptr align 8 %_7, i64 24, i1 false), !dbg !470
  store i64 0, ptr %self, align 8, !dbg !470
  %i5 = getelementptr inbounds { i64, i64 }, ptr %self, i32 0, i32 1, !dbg !470
  store i64 undef, ptr %i5, align 8, !dbg !470
  call fastcc void @_ZN3std6thread7Builder15spawn_unchecked17hc6cabdf85666c934E(ptr noalias align 8 %_2, ptr align 8 %self, ptr %arg) #30, !dbg !471
  call void @llvm.lifetime.start.p0(i64 8, ptr %e.i), !dbg !476
  %i6 = load ptr, ptr %_2, align 8, !dbg !476, !noundef !15
  %i7 = ptrtoint ptr %i6 to i64, !dbg !476
  %i8 = icmp eq i64 %i7, 0, !dbg !476
  %_3.i = select i1 %i8, i64 1, i64 0, !dbg !476
  %i9 = icmp eq i64 %_3.i, 0, !dbg !479
  br i1 %i9, label %bb3.i, label %codeRepl.i, !dbg !479

bb3.i:                                            ; preds = %start
  call void @llvm.memcpy.p0.p0.i64(ptr align 8 %_0, ptr align 8 %_2, i64 24, i1 false), !dbg !480
  call void @llvm.lifetime.end.p0(i64 8, ptr %e.i), !dbg !481
  ret void, !dbg !482

codeRepl.i:                                       ; preds = %start
  %0 = getelementptr i8, ptr %_2, i64 8, !dbg !483
  %_2.val = load ptr, ptr %0, align 8, !dbg !483, !nonnull !15, !noundef !15
  call fastcc void @"_ZN4core6result19Result$LT$T$C$E$GT$6expect17heea16b9d55143a61E.8.bb1"(ptr %_2.val, ptr %e.i, ptr @alloc_e3605bf48dd8479a638909176cc37fce, i64 22, ptr @alloc_1f8c62d57f163807c7029893ad26ce72), !dbg !483
  unreachable
}

; Function Attrs: inlinehint mustprogress nofree norecurse nosync nounwind willreturn memory(argmem: read)
define internal fastcc nonnull align 8 ptr @"_ZN73_$LT$alloc..sync..Arc$LT$T$C$A$GT$$u20$as$u20$core..ops..deref..Deref$GT$5deref17h85cb7cdca0043135E"(ptr %self.0.val) unnamed_addr #9 !dbg !484 {
start:
  %0 = icmp ne ptr %self.0.val, null
  call void @llvm.assume(i1 %0)
  %_0 = getelementptr inbounds %"alloc::sync::ArcInner<Secp>", ptr %self.0.val, i32 0, i32 2, !dbg !486
  ret ptr %_0, !dbg !487
}

; Function Attrs: nounwind
define internal fastcc void @_ZN17RUSTSEC_2022_00704Secp4free17hc066542c85449a27E(ptr %self.0.val) unnamed_addr #3 !dbg !488 {
start:
  call void @free_ctx(ptr %self.0.val) #30, !dbg !489
  ret void, !dbg !491
}

; Function Attrs: nounwind
define internal fastcc { ptr, ptr } @"_ZN3std6thread19JoinHandle$LT$T$GT$4join17hc441ea1f1a69c9ebE"(ptr nocapture readonly align 8 %self) unnamed_addr #3 !dbg !492 {
start:
  %_2 = alloca %"std::thread::JoinInner<'_, ()>", align 8
  call void @llvm.memcpy.p0.p0.i64(ptr align 8 %_2, ptr align 8 %self, i64 24, i1 false), !dbg !494
  %i = call fastcc { ptr, ptr } @"_ZN3std6thread18JoinInner$LT$T$GT$4join17h02d0758b921f0bfbE"(ptr align 8 %_2) #30, !dbg !494
  ret { ptr, ptr } %i, !dbg !495
}

; Function Attrs: inlinehint noreturn nounwind
define internal fastcc void @_ZN5alloc5alloc15exchange_malloc17hde11603628d604cbE.6.bb1(i64 %layout.0.val, i64 %layout.8.val) unnamed_addr #10 !dbg !496 {
newFuncRoot:
  call void @_ZN5alloc5alloc18handle_alloc_error17h5128c77aa14eddcaE(i64 %layout.0.val, i64 %layout.8.val) #31, !dbg !497
  unreachable, !dbg !497
}

; Function Attrs: nounwind
define internal fastcc void @_ZN17RUSTSEC_2022_00704Secp6update17hef9f6d19344b7aa3E(ptr %self.0.val) unnamed_addr #3 !dbg !499 {
start:
  call void @use_ctx(ptr %self.0.val) #30, !dbg !500
  ret void, !dbg !502
}

; Function Attrs: nounwind
define internal zeroext i1 @"_ZN42_$LT$$RF$T$u20$as$u20$core..fmt..Debug$GT$3fmt17h3eca63a08b71981fE"(ptr nocapture readonly align 8 %self, ptr align 8 %f) unnamed_addr #3 !dbg !503 {
start:
  %_3 = load ptr, ptr %self, align 8, !dbg !506, !nonnull !15, !align !507, !noundef !15
  %_0 = call fastcc zeroext i1 @"_ZN4core3fmt3num50_$LT$impl$u20$core..fmt..Debug$u20$for$u20$i32$GT$3fmt17h27058fa8ce9be234E"(ptr align 4 %_3, ptr align 8 %f) #30, !dbg !508
  ret i1 %_0, !dbg !509
}

; Function Attrs: nocallback nofree nounwind willreturn memory(argmem: readwrite)
declare void @llvm.memcpy.p0.p0.i64(ptr noalias nocapture writeonly, ptr noalias nocapture readonly, i64, i1 immarg) #11

; Function Attrs: inlinehint mustprogress nofree norecurse nosync nounwind willreturn memory(argmem: write)
define internal fastcc void @_ZN4core3fmt9Arguments16new_v1_formatted17h4f967bdcd21c8a6eE(ptr noalias nocapture writeonly align 8 %_0, ptr align 8 %pieces.0, i64 %pieces.1, ptr align 8 %args.0, i64 %args.1, ptr align 8 %fmt.0, i64 %fmt.1) unnamed_addr #12 !dbg !510 {
start:
  %_5 = alloca { ptr, i64 }, align 8
  store ptr %fmt.0, ptr %_5, align 8, !dbg !512
  %i = getelementptr inbounds { ptr, i64 }, ptr %_5, i32 0, i32 1, !dbg !512
  store i64 %fmt.1, ptr %i, align 8, !dbg !512
  store ptr %pieces.0, ptr %_0, align 8, !dbg !513
  %i1 = getelementptr inbounds { ptr, i64 }, ptr %_0, i32 0, i32 1, !dbg !513
  store i64 %pieces.1, ptr %i1, align 8, !dbg !513
  %i5 = getelementptr inbounds %"core::fmt::Arguments<'_>", ptr %_0, i32 0, i32 2, !dbg !513
  store ptr %fmt.0, ptr %i5, align 8, !dbg !513
  %i6 = getelementptr inbounds { ptr, i64 }, ptr %i5, i32 0, i32 1, !dbg !513
  store i64 %fmt.1, ptr %i6, align 8, !dbg !513
  %i7 = getelementptr inbounds %"core::fmt::Arguments<'_>", ptr %_0, i32 0, i32 1, !dbg !513
  store ptr %args.0, ptr %i7, align 8, !dbg !513
  %i8 = getelementptr inbounds { ptr, i64 }, ptr %i7, i32 0, i32 1, !dbg !513
  store i64 %args.1, ptr %i8, align 8, !dbg !513
  ret void, !dbg !514
}

; Function Attrs: nounwind
declare void @_ZN3std2io5stdio7_eprint17h9e7b70d2bf85f38dE(ptr align 8) unnamed_addr #3

; Function Attrs: nounwind
define internal fastcc void @"_ZN4core3ptr68drop_in_place$LT$alloc..sync..Arc$LT$RUSTSEC_2022_0070..Secp$GT$$GT$17h34e98efaa7db700fE"(ptr align 8 %_1) unnamed_addr #3 !dbg !515 {
start:
  call fastcc void @"_ZN71_$LT$alloc..sync..Arc$LT$T$C$A$GT$$u20$as$u20$core..ops..drop..Drop$GT$4drop17h2a779545e227f7a4E"(ptr align 8 %_1) #30, !dbg !516
  ret void, !dbg !516
}

; Function Attrs: nounwind
define internal fastcc void @"_ZN4core3ptr49drop_in_place$LT$alloc..boxed..Box$LT$i32$GT$$GT$17hc7bee52ca298b31bE"(ptr %_1.0.val) unnamed_addr #3 !dbg !517 {
start:
  %0 = icmp ne ptr %_1.0.val, null
  call void @llvm.assume(i1 %0)
  call fastcc void @"_ZN72_$LT$alloc..boxed..Box$LT$T$C$A$GT$$u20$as$u20$core..ops..drop..Drop$GT$4drop17hf2b3bcd6d4728067E"(ptr %_1.0.val) #30, !dbg !518
  ret void, !dbg !518
}

; Function Attrs: inlinehint noreturn nounwind
define internal fastcc void @"_ZN4core6result19Result$LT$T$C$E$GT$6unwrap17ha5292ab542dcb9b9E.7.bb1"(ptr %self.0.val, ptr %self.8.val, ptr %e, ptr %arg) unnamed_addr #10 personality ptr @rust_eh_personality !dbg !519 {
newFuncRoot:
  %0 = icmp ne ptr %self.0.val, null
  call void @llvm.assume(i1 %0)
  %1 = icmp ne ptr %self.8.val, null
  call void @llvm.assume(i1 %1)
  store ptr %self.0.val, ptr %e, align 8, !dbg !520
  %i3 = getelementptr inbounds { ptr, ptr }, ptr %e, i32 0, i32 1, !dbg !520
  store ptr %self.8.val, ptr %i3, align 8, !dbg !520
  call void @_ZN4core6result13unwrap_failed17h951d84d71b0bada2E(ptr align 1 @alloc_00ae4b301f7fab8ac9617c03fcbd7274, i64 43, ptr align 1 %e, ptr align 8 @vtable.6, ptr align 8 %arg) #31, !dbg !521
  unreachable, !dbg !521
}

; Function Attrs: nocallback nofree nosync nounwind willreturn memory(inaccessiblemem: readwrite)
declare void @llvm.assume(i1 noundef) #13

; Function Attrs: cold noinline noreturn nounwind
declare void @_ZN4core6result13unwrap_failed17h951d84d71b0bada2E(ptr align 1, i64, ptr align 1, ptr align 8, ptr align 8) unnamed_addr #14

; Function Attrs: nounwind
define internal void @"_ZN4core3ptr91drop_in_place$LT$alloc..boxed..Box$LT$dyn$u20$core..any..Any$u2b$core..marker..Send$GT$$GT$17hee4fe6bdc51b86a8E"(ptr nocapture readonly align 8 %_1) unnamed_addr #3 !dbg !523 {
start:
  %_6.0 = load ptr, ptr %_1, align 8, !dbg !524, !noundef !15
  %i = getelementptr inbounds { ptr, ptr }, ptr %_1, i32 0, i32 1, !dbg !524
  %_6.1 = load ptr, ptr %i, align 8, !dbg !524, !nonnull !15, !align !195, !noundef !15
  %i1 = load ptr, ptr %_6.1, align 8, !dbg !524, !invariant.load !15, !nonnull !15
  call void %i1(ptr align 1 %_6.0) #30, !dbg !524
  %_1.val = load ptr, ptr %_1, align 8, !dbg !524, !nonnull !15, !noundef !15
  %0 = getelementptr i8, ptr %_1, i64 8, !dbg !524
  %_1.val2 = load ptr, ptr %0, align 8, !dbg !524, !nonnull !15, !align !195, !noundef !15
  call fastcc void @"_ZN72_$LT$alloc..boxed..Box$LT$T$C$A$GT$$u20$as$u20$core..ops..drop..Drop$GT$4drop17h6b4660690f6ce654E"(ptr %_1.val, ptr %_1.val2) #30, !dbg !524
  ret void, !dbg !524
}

; Function Attrs: nounwind
define internal zeroext i1 @"_ZN67_$LT$alloc..boxed..Box$LT$T$C$A$GT$$u20$as$u20$core..fmt..Debug$GT$3fmt17h8860dac356a6bddcE"(ptr nocapture readonly align 8 %self, ptr align 8 %f) unnamed_addr #3 !dbg !525 {
start:
  %_4.0 = load ptr, ptr %self, align 8, !dbg !527, !nonnull !15, !align !194, !noundef !15
  %i = getelementptr inbounds { ptr, ptr }, ptr %self, i32 0, i32 1, !dbg !527
  %_4.1 = load ptr, ptr %i, align 8, !dbg !527, !nonnull !15, !align !195, !noundef !15
  %_0 = call zeroext i1 @"_ZN82_$LT$dyn$u20$core..any..Any$u2b$core..marker..Send$u20$as$u20$core..fmt..Debug$GT$3fmt17h50acd652c1116b28E"(ptr align 1 %_4.0, ptr align 8 %_4.1, ptr align 8 %f) #30, !dbg !528
  ret i1 %_0, !dbg !529
}

; Function Attrs: nounwind
declare zeroext i1 @"_ZN82_$LT$dyn$u20$core..any..Any$u2b$core..marker..Send$u20$as$u20$core..fmt..Debug$GT$3fmt17h50acd652c1116b28E"(ptr align 1, ptr align 8, ptr align 8) unnamed_addr #3

; Function Attrs: inlinehint nounwind
define internal fastcc void @"_ZN72_$LT$alloc..boxed..Box$LT$T$C$A$GT$$u20$as$u20$core..ops..drop..Drop$GT$4drop17h6b4660690f6ce654E"(ptr %self.0.val, ptr %self.8.val) unnamed_addr #5 !dbg !530 {
start:
  %i = alloca i64, align 8
  %i2 = alloca i64, align 8
  %unique = alloca ptr, align 8
  %self1 = alloca ptr, align 8
  %_9 = alloca ptr, align 8
  %layout = alloca { i64, i64 }, align 8
  %0 = icmp ne ptr %self.0.val, null
  call void @llvm.assume(i1 %0)
  %1 = icmp ne ptr %self.8.val, null
  call void @llvm.assume(i1 %1)
  %i4 = getelementptr inbounds i64, ptr %self.8.val, i64 1, !dbg !532
  %i5 = load i64, ptr %i4, align 8, !dbg !532, !range !544, !invariant.load !15
  store i64 %i5, ptr %i2, align 8, !dbg !532
  %i6 = getelementptr inbounds i64, ptr %self.8.val, i64 2, !dbg !545
  %i7 = load i64, ptr %i6, align 8, !dbg !545, !range !550, !invariant.load !15
  store i64 %i7, ptr %i, align 8, !dbg !545
  %i8 = getelementptr inbounds { i64, i64 }, ptr %layout, i32 0, i32 1, !dbg !551
  store i64 %i5, ptr %i8, align 8, !dbg !551
  store i64 %i7, ptr %layout, align 8, !dbg !551
  %i10 = icmp ne i64 %i5, 0, !dbg !558
  br i1 %i10, label %bb1, label %bb4, !dbg !558

bb1:                                              ; preds = %start
  store ptr %self.0.val, ptr %self1, align 8, !dbg !560
  store ptr %self.0.val, ptr %unique, align 8, !dbg !576
  store ptr %self.0.val, ptr %_9, align 8, !dbg !584
  call fastcc void @"_ZN63_$LT$alloc..alloc..Global$u20$as$u20$core..alloc..Allocator$GT$10deallocate17haf021917e5b963cbE"(ptr %self.0.val, i64 %i7, i64 %i5) #30, !dbg !593
  br label %bb4, !dbg !594

bb4:                                              ; preds = %bb1, %start
  ret void, !dbg !595
}

; Function Attrs: inlinehint nounwind
define internal fastcc void @"_ZN63_$LT$alloc..alloc..Global$u20$as$u20$core..alloc..Allocator$GT$10deallocate17haf021917e5b963cbE"(ptr %ptr, i64 %arg, i64 %arg3) unnamed_addr #5 !dbg !596 {
start:
  %_14 = alloca i64, align 8
  %layout1 = alloca { i64, i64 }, align 8
  %layout = alloca { i64, i64 }, align 8
  store i64 %arg, ptr %layout, align 8
  %i = getelementptr inbounds { i64, i64 }, ptr %layout, i32 0, i32 1
  store i64 %arg3, ptr %i, align 8
  %i5 = icmp ne i64 %arg3, 0, !dbg !597
  br i1 %i5, label %bb1, label %bb3, !dbg !597

bb1:                                              ; preds = %start
  store i64 %arg, ptr %layout1, align 8, !dbg !598
  %i9 = getelementptr inbounds { i64, i64 }, ptr %layout1, i32 0, i32 1, !dbg !598
  store i64 %arg3, ptr %i9, align 8, !dbg !598
  store i64 %arg, ptr %_14, align 8, !dbg !600
  call void @__rust_dealloc(ptr %ptr, i64 %arg3, i64 %arg) #30, !dbg !611
  br label %bb3, !dbg !612

bb3:                                              ; preds = %bb1, %start
  ret void, !dbg !613
}

; Function Attrs: nounwind allockind("free")
declare void @__rust_dealloc(ptr allocptr, i64, i64) unnamed_addr #15

; Function Attrs: inlinehint nounwind
define internal fastcc void @"_ZN72_$LT$alloc..boxed..Box$LT$T$C$A$GT$$u20$as$u20$core..ops..drop..Drop$GT$4drop17hf2b3bcd6d4728067E"(ptr %self.0.val) unnamed_addr #5 !dbg !614 {
start:
  %i = alloca i64, align 8
  %i2 = alloca i64, align 8
  %unique = alloca ptr, align 8
  %self1 = alloca ptr, align 8
  %_9 = alloca ptr, align 8
  %layout = alloca { i64, i64 }, align 8
  %0 = icmp ne ptr %self.0.val, null
  call void @llvm.assume(i1 %0)
  store i64 4, ptr %i2, align 8, !dbg !615
  store i64 4, ptr %i, align 8, !dbg !626
  %i3 = getelementptr inbounds { i64, i64 }, ptr %layout, i32 0, i32 1, !dbg !631
  store i64 4, ptr %i3, align 8, !dbg !631
  store i64 4, ptr %layout, align 8, !dbg !631
  br label %bb1

bb1:                                              ; preds = %start
  store ptr %self.0.val, ptr %self1, align 8, !dbg !638
  store ptr %self.0.val, ptr %unique, align 8, !dbg !652
  store ptr %self.0.val, ptr %_9, align 8, !dbg !660
  call fastcc void @"_ZN63_$LT$alloc..alloc..Global$u20$as$u20$core..alloc..Allocator$GT$10deallocate17haf021917e5b963cbE"(ptr %self.0.val, i64 4, i64 4) #30, !dbg !668
  br label %bb4, !dbg !669

bb4:                                              ; preds = %bb1
  ret void, !dbg !670
}

; Function Attrs: inlinehint nounwind
define internal fastcc void @"_ZN71_$LT$alloc..sync..Arc$LT$T$C$A$GT$$u20$as$u20$core..ops..drop..Drop$GT$4drop17h2a779545e227f7a4E"(ptr align 8 %self) unnamed_addr #5 !dbg !671 {
start:
  %i = alloca i64, align 8, !dbg !673
  %self1 = load ptr, ptr %self, align 8, !dbg !673, !nonnull !15, !noundef !15
  %i2 = atomicrmw sub ptr %self1, i64 1 release, align 8, !dbg !682
  store i64 %i2, ptr %i, align 8, !dbg !682
  %i3 = icmp eq i64 %i2, 1, !dbg !691
  br i1 %i3, label %bb2, label %bb3, !dbg !691

bb2:                                              ; preds = %start
  fence acquire, !dbg !692
  call fastcc void @"_ZN5alloc4sync16Arc$LT$T$C$A$GT$9drop_slow17hb9b4abf42ee7c18cE"(ptr align 8 %self) #30, !dbg !697
  br label %bb3, !dbg !697

bb3:                                              ; preds = %bb2, %start
  ret void, !dbg !699
}

; Function Attrs: noinline nounwind
define internal fastcc void @"_ZN5alloc4sync16Arc$LT$T$C$A$GT$9drop_slow17hb9b4abf42ee7c18cE"(ptr align 8 %self) unnamed_addr #6 !dbg !700 {
start:
  %_x = alloca { ptr, ptr }, align 8
  %_5 = load ptr, ptr %self, align 8, !dbg !701, !nonnull !15, !noundef !15
  %_6 = getelementptr i8, ptr %self, i64 8, !dbg !702
  store ptr %_5, ptr %_x, align 8, !dbg !703
  %i = getelementptr inbounds { ptr, ptr }, ptr %_x, i32 0, i32 1, !dbg !703
  store ptr %_6, ptr %i, align 8, !dbg !703
  call fastcc void @"_ZN4core3ptr96drop_in_place$LT$alloc..sync..Weak$LT$RUSTSEC_2022_0070..Secp$C$$RF$alloc..alloc..Global$GT$$GT$17hd0d186c8758f90c8E"(ptr align 8 %_x) #30, !dbg !704
  ret void, !dbg !708
}

; Function Attrs: nounwind
define internal fastcc void @"_ZN4core3ptr96drop_in_place$LT$alloc..sync..Weak$LT$RUSTSEC_2022_0070..Secp$C$$RF$alloc..alloc..Global$GT$$GT$17hd0d186c8758f90c8E"(ptr nocapture readonly align 8 %_1) unnamed_addr #3 !dbg !709 {
start:
  call fastcc void @"_ZN72_$LT$alloc..sync..Weak$LT$T$C$A$GT$$u20$as$u20$core..ops..drop..Drop$GT$4drop17h0f5e74da71955fafE"(ptr align 8 %_1) #30, !dbg !710
  ret void, !dbg !710
}

; Function Attrs: nounwind
define internal fastcc void @"_ZN72_$LT$alloc..sync..Weak$LT$T$C$A$GT$$u20$as$u20$core..ops..drop..Drop$GT$4drop17h0f5e74da71955fafE"(ptr nocapture readonly align 8 %self) unnamed_addr #3 !dbg !711 {
start:
  %i = alloca i64, align 8
  %i5 = alloca i64, align 8
  %i6 = alloca i64, align 8
  %_16 = alloca { ptr, ptr }, align 8
  %_9 = alloca { i64, i64 }, align 8
  %_7 = alloca ptr, align 8
  %_2 = alloca { ptr, ptr }, align 8
  %self1 = load ptr, ptr %self, align 8, !dbg !713, !nonnull !15, !noundef !15
  %_20 = ptrtoint ptr %self1 to i64, !dbg !719
  %_15 = icmp ne i64 %_20, -1, !dbg !730
  br i1 %_15, label %bb8, label %Flow24, !dbg !728

bb8:                                              ; preds = %start
  %_18 = getelementptr inbounds %"alloc::sync::ArcInner<Secp>", ptr %self1, i32 0, i32 1, !dbg !731
  store ptr %_18, ptr %_16, align 8, !dbg !733
  %i7 = getelementptr inbounds { ptr, ptr }, ptr %_16, i32 0, i32 1, !dbg !733
  store ptr %self1, ptr %i7, align 8, !dbg !733
  store ptr %_18, ptr %_2, align 8, !dbg !734
  %i11 = getelementptr inbounds { ptr, ptr }, ptr %_2, i32 0, i32 1, !dbg !734
  store ptr %self1, ptr %i11, align 8, !dbg !734
  br label %Flow24, !dbg !735

Flow24:                                           ; preds = %bb8, %start
  %0 = phi ptr [ %_18, %bb8 ], [ undef, %start ]
  %1 = phi i1 [ false, %bb8 ], [ true, %start ], !dbg !728
  br i1 %1, label %bb7, label %bb9, !dbg !728

bb7:                                              ; preds = %Flow24
  store ptr null, ptr %_2, align 8, !dbg !736
  br label %bb9, !dbg !735

bb9:                                              ; preds = %bb7, %Flow24
  %inner = phi ptr [ %0, %Flow24 ], [ null, %bb7 ], !dbg !737
  %i13 = ptrtoint ptr %inner to i64, !dbg !737
  %i14 = icmp eq i64 %i13, 0, !dbg !737
  %_3 = select i1 %i14, i64 0, i64 1, !dbg !737
  %i15 = icmp eq i64 %_3, 1, !dbg !737
  br i1 %i15, label %bb1, label %bb6, !dbg !737

bb1:                                              ; preds = %bb9
  %i16 = atomicrmw sub ptr %inner, i64 1 release, align 8, !dbg !738
  store i64 %i16, ptr %i6, align 8, !dbg !738
  %i17 = icmp eq i64 %i16, 1, !dbg !748
  br i1 %i17, label %bb3, label %Flow, !dbg !748

bb3:                                              ; preds = %bb1
  fence acquire, !dbg !749
  %self3 = load ptr, ptr %self, align 8, !dbg !754, !nonnull !15, !noundef !15
  store ptr %self3, ptr %_7, align 8, !dbg !756
  store i64 24, ptr %i5, align 8, !dbg !765
  store i64 8, ptr %i, align 8, !dbg !774
  %i18 = getelementptr inbounds { i64, i64 }, ptr %_9, i32 0, i32 1, !dbg !779
  store i64 24, ptr %i18, align 8, !dbg !779
  store i64 8, ptr %_9, align 8, !dbg !779
  call fastcc void @"_ZN48_$LT$$RF$A$u20$as$u20$core..alloc..Allocator$GT$10deallocate17h29f9bfd1b7b3f296E"(ptr %self3, i64 8, i64 24) #30, !dbg !786
  br label %Flow, !dbg !787

Flow:                                             ; preds = %bb3, %bb1
  br label %bb6, !dbg !748

bb6:                                              ; preds = %Flow, %bb9
  ret void, !dbg !788
}

; Function Attrs: inlinehint nounwind
define internal fastcc void @"_ZN48_$LT$$RF$A$u20$as$u20$core..alloc..Allocator$GT$10deallocate17h29f9bfd1b7b3f296E"(ptr %ptr, i64 %layout.0, i64 %layout.1) unnamed_addr #5 !dbg !789 {
start:
  call fastcc void @"_ZN63_$LT$alloc..alloc..Global$u20$as$u20$core..alloc..Allocator$GT$10deallocate17haf021917e5b963cbE"(ptr %ptr, i64 %layout.0, i64 %layout.1) #30, !dbg !792
  ret void, !dbg !794
}

; Function Attrs: inlinehint nounwind
define internal fastcc zeroext i1 @"_ZN4core3fmt3num50_$LT$impl$u20$core..fmt..Debug$u20$for$u20$i32$GT$3fmt17h27058fa8ce9be234E"(ptr align 4 %self, ptr align 8 %f) unnamed_addr #5 !dbg !795 {
start:
  %_0 = alloca i8, align 1
  %i = getelementptr inbounds %"core::fmt::Formatter<'_>", ptr %f, i32 0, i32 4, !dbg !799
  %_4 = load i32, ptr %i, align 4, !dbg !799, !noundef !15
  %_3 = and i32 %_4, 16, !dbg !799
  %i1 = icmp ne i32 %_3, 0, !dbg !804
  br i1 %i1, label %bb1, label %Flow14, !dbg !804

Flow14:                                           ; preds = %bb1, %start
  %0 = phi i1 [ %i4, %bb1 ], [ undef, %start ]
  %1 = phi i1 [ false, %bb1 ], [ true, %start ], !dbg !804
  br i1 %1, label %bb2, label %bb5, !dbg !804

bb2:                                              ; preds = %Flow14
  %_5 = and i32 %_4, 32, !dbg !805
  %i3 = icmp ne i32 %_5, 0, !dbg !809
  br i1 %i3, label %bb3, label %Flow, !dbg !809

bb1:                                              ; preds = %start
  %i4 = call zeroext i1 @"_ZN4core3fmt3num53_$LT$impl$u20$core..fmt..LowerHex$u20$for$u20$i32$GT$3fmt17h32a2cddcbebb8c61E"(ptr align 4 %self, ptr align 8 %f) #30, !dbg !810
  %i5 = zext i1 %i4 to i8, !dbg !810
  store i8 %i5, ptr %_0, align 1, !dbg !810
  br label %Flow14, !dbg !810

Flow:                                             ; preds = %bb3, %bb2
  %2 = phi i1 [ %i8, %bb3 ], [ undef, %bb2 ]
  %3 = phi i1 [ false, %bb3 ], [ true, %bb2 ], !dbg !809
  br i1 %3, label %bb4, label %Flow13, !dbg !809

bb4:                                              ; preds = %Flow
  %i6 = call zeroext i1 @"_ZN4core3fmt3num3imp52_$LT$impl$u20$core..fmt..Display$u20$for$u20$i32$GT$3fmt17h5edc7a1346ad1f6fE"(ptr align 4 %self, ptr align 8 %f) #30, !dbg !811
  %i7 = zext i1 %i6 to i8, !dbg !811
  store i8 %i7, ptr %_0, align 1, !dbg !811
  br label %Flow13, !dbg !811

bb3:                                              ; preds = %bb2
  %i8 = call zeroext i1 @"_ZN4core3fmt3num53_$LT$impl$u20$core..fmt..UpperHex$u20$for$u20$i32$GT$3fmt17h14c2ffec3066b69fE"(ptr align 4 %self, ptr align 8 %f) #30, !dbg !812
  %i9 = zext i1 %i8 to i8, !dbg !812
  store i8 %i9, ptr %_0, align 1, !dbg !812
  br label %Flow, !dbg !812

Flow13:                                           ; preds = %bb4, %Flow
  %4 = phi i1 [ %i6, %bb4 ], [ %2, %Flow ]
  br label %bb5, !dbg !809

bb5:                                              ; preds = %Flow13, %Flow14
  %i10 = phi i1 [ %0, %Flow14 ], [ %4, %Flow13 ], !dbg !813
  ret i1 %i10, !dbg !813
}

; Function Attrs: nounwind
declare zeroext i1 @"_ZN4core3fmt3num53_$LT$impl$u20$core..fmt..LowerHex$u20$for$u20$i32$GT$3fmt17h32a2cddcbebb8c61E"(ptr align 4, ptr align 8) unnamed_addr #3

; Function Attrs: nounwind
declare zeroext i1 @"_ZN4core3fmt3num3imp52_$LT$impl$u20$core..fmt..Display$u20$for$u20$i32$GT$3fmt17h5edc7a1346ad1f6fE"(ptr align 4, ptr align 8) unnamed_addr #3

; Function Attrs: nounwind
declare zeroext i1 @"_ZN4core3fmt3num53_$LT$impl$u20$core..fmt..UpperHex$u20$for$u20$i32$GT$3fmt17h14c2ffec3066b69fE"(ptr align 4, ptr align 8) unnamed_addr #3

; Function Attrs: cold noreturn nounwind
declare void @_ZN5alloc5alloc18handle_alloc_error17h5128c77aa14eddcaE(i64, i64) unnamed_addr #16

; Function Attrs: nounwind
define internal fastcc { ptr, ptr } @"_ZN3std6thread18JoinInner$LT$T$GT$4join17h02d0758b921f0bfbE"(ptr align 8 %self) unnamed_addr #3 personality ptr @rust_eh_personality !dbg !814 {
start:
  %src = alloca %"core::option::Option<core::result::Result<(), alloc::boxed::Box<dyn core::any::Any + core::marker::Send>>>", align 8
  %self1 = alloca ptr, align 8
  %result = alloca %"core::option::Option<core::result::Result<(), alloc::boxed::Box<dyn core::any::Any + core::marker::Send>>>", align 8
  %i = getelementptr inbounds %"std::thread::JoinInner<'_, ()>", ptr %self, i32 0, i32 2, !dbg !816
  %_3 = load i64, ptr %i, align 8, !dbg !816, !noundef !15
  call void @_ZN3std3sys4unix6thread6Thread4join17h85746201e5a6206dE(i64 %_3) #30, !dbg !816
  %this = getelementptr inbounds %"std::thread::JoinInner<'_, ()>", ptr %self, i32 0, i32 1, !dbg !817
  %_10 = call fastcc zeroext i1 @"_ZN5alloc4sync16Arc$LT$T$C$A$GT$9is_unique17h1d258fce313ba774E"(ptr align 8 %this) #30, !dbg !818
  %_10.inv = xor i1 %_10, true
  br i1 %_10.inv, label %bb10, label %Flow, !dbg !818

bb10:                                             ; preds = %start
  store ptr null, ptr %self1, align 8, !dbg !822
  br label %Flow, !dbg !823

Flow:                                             ; preds = %bb10, %start
  %0 = phi i1 [ false, %bb10 ], [ true, %start ], !dbg !818
  br i1 %0, label %bb9, label %bb11, !dbg !818

bb9:                                              ; preds = %Flow
  %self2 = load ptr, ptr %this, align 8, !dbg !824, !nonnull !15, !noundef !15
  %_11 = getelementptr inbounds %"alloc::sync::ArcInner<std::thread::Packet<'_, ()>>", ptr %self2, i32 0, i32 2, !dbg !828
  store ptr %_11, ptr %self1, align 8, !dbg !830
  br label %bb11, !dbg !823

bb11:                                             ; preds = %bb9, %Flow
  %val = phi ptr [ null, %Flow ], [ %_11, %bb9 ], !dbg !831
  %i6 = ptrtoint ptr %val to i64, !dbg !831
  %i7 = icmp eq i64 %i6, 0, !dbg !831
  br i1 %i7, label %bb12, label %bb14, !dbg !835

bb12:                                             ; preds = %bb11
  call void @_ZN4core9panicking5panic17h4b431f82891b8f60E(ptr align 1 @alloc_5f55955de67e57c79064b537689facea, i64 43, ptr align 8 @alloc_210632c49b2fd4ef0dc8e7c88d1b4c5b) #31, !dbg !836
  unreachable

bb14:                                             ; preds = %bb11
  store i64 0, ptr %src, align 8, !dbg !837
  %i8 = getelementptr inbounds %"std::thread::Packet<'_, ()>", ptr %val, i32 0, i32 1, !dbg !841
  call void @llvm.memcpy.p0.p0.i64(ptr align 8 %result, ptr align 8 %i8, i64 24, i1 false), !dbg !841
  call void @llvm.memcpy.p0.p0.i64(ptr align 8 %i8, ptr align 8 %src, i64 24, i1 false), !dbg !850
  %_19 = load i64, ptr %result, align 8, !dbg !856, !range !860, !noundef !15
  %i10 = icmp eq i64 %_19, 0, !dbg !861
  br i1 %i10, label %bb15, label %bb16, !dbg !861

bb15:                                             ; preds = %bb14
  call void @_ZN4core9panicking5panic17h4b431f82891b8f60E(ptr align 1 @alloc_5f55955de67e57c79064b537689facea, i64 43, ptr align 8 @alloc_75b83b2c75f3b36b94a7518a66ad8875) #31, !dbg !862
  unreachable

bb16:                                             ; preds = %bb14
  %i11 = getelementptr inbounds %"core::option::Option<core::result::Result<(), alloc::boxed::Box<dyn core::any::Any + core::marker::Send>>>::Some", ptr %result, i32 0, i32 1, !dbg !863
  %val.0 = load ptr, ptr %i11, align 8, !dbg !863, !align !194, !noundef !15
  %i12 = getelementptr inbounds { ptr, ptr }, ptr %i11, i32 0, i32 1, !dbg !863
  %val.1 = load ptr, ptr %i12, align 8, !dbg !863
  call fastcc void @"_ZN4core3ptr40drop_in_place$LT$std..thread..Thread$GT$17h51532233b6119ee5E"(ptr align 8 %self) #30, !dbg !864
  call fastcc void @"_ZN4core3ptr80drop_in_place$LT$alloc..sync..Arc$LT$std..thread..Packet$LT$$LP$$RP$$GT$$GT$$GT$17he82bf0d8b6b14108E"(ptr align 8 %this) #30, !dbg !864
  %i14 = insertvalue { ptr, ptr } poison, ptr %val.0, 0, !dbg !865
  %i15 = insertvalue { ptr, ptr } %i14, ptr %val.1, 1, !dbg !865
  ret { ptr, ptr } %i15, !dbg !865
}

; Function Attrs: nounwind
declare void @_ZN3std3sys4unix6thread6Thread4join17h85746201e5a6206dE(i64) unnamed_addr #3

; Function Attrs: nounwind
define internal fastcc zeroext i1 @"_ZN5alloc4sync16Arc$LT$T$C$A$GT$9is_unique17h1d258fce313ba774E"(ptr nocapture readonly align 8 %self) unnamed_addr #3 !dbg !866 {
start:
  %_3 = alloca { i64, i64 }, align 8
  %_0 = alloca i8, align 1
  %self1 = load ptr, ptr %self, align 8, !dbg !867, !nonnull !15, !noundef !15
  %_17 = getelementptr inbounds %"alloc::sync::ArcInner<std::thread::Packet<'_, ()>>", ptr %self1, i32 0, i32 1, !dbg !876
  %i = call fastcc { i64, i64 } @_ZN4core4sync6atomic23atomic_compare_exchange17h8b25b07beb78f3e9E(ptr %_17, i64 1, i64 -1, i8 2, i8 0) #30, !dbg !887
  store { i64, i64 } %i, ptr %_3, align 8, !dbg !887
  %_18 = load i64, ptr %_3, align 8, !dbg !888, !range !860, !noundef !15
  %i8 = icmp ne i64 %_18, 0, !dbg !892
  br i1 %i8, label %bb2, label %Flow, !dbg !892

Flow:                                             ; preds = %bb2, %start
  %0 = phi i1 [ false, %bb2 ], [ true, %start ], !dbg !892
  br i1 %0, label %bb1, label %bb3, !dbg !892

bb1:                                              ; preds = %Flow
  %self4 = load ptr, ptr %self, align 8, !dbg !893, !nonnull !15, !noundef !15
  %_6 = call fastcc i64 @_ZN4core4sync6atomic11atomic_load17h28b1f880c87f07e1E(ptr %self4, i8 2) #30, !dbg !900
  %unique = icmp eq i64 %_6, 1, !dbg !905
  %self5 = load ptr, ptr %self, align 8, !dbg !906, !nonnull !15, !noundef !15
  %_38 = getelementptr inbounds %"alloc::sync::ArcInner<std::thread::Packet<'_, ()>>", ptr %self5, i32 0, i32 1, !dbg !914
  call fastcc void @_ZN4core4sync6atomic12atomic_store17hba467db7bb2754c1E(ptr %_38, i64 1, i8 1) #30, !dbg !921
  %i9 = zext i1 %unique to i8, !dbg !922
  store i8 %i9, ptr %_0, align 1, !dbg !922
  br label %bb3, !dbg !923

bb2:                                              ; preds = %start
  store i8 0, ptr %_0, align 1, !dbg !924
  br label %Flow, !dbg !923

bb3:                                              ; preds = %bb1, %Flow
  %i10 = phi i1 [ false, %Flow ], [ %unique, %bb1 ], !dbg !925
  ret i1 %i10, !dbg !925
}

; Function Attrs: cold noinline noreturn nounwind
declare void @_ZN4core9panicking5panic17h4b431f82891b8f60E(ptr align 1, i64, ptr align 8) unnamed_addr #14

; Function Attrs: nounwind
define internal fastcc void @"_ZN4core3ptr40drop_in_place$LT$std..thread..Thread$GT$17h51532233b6119ee5E"(ptr align 8 %_1) unnamed_addr #3 !dbg !926 {
start:
  call fastcc void @"_ZN4core3ptr85drop_in_place$LT$core..pin..Pin$LT$alloc..sync..Arc$LT$std..thread..Inner$GT$$GT$$GT$17hd3e9cd6cc76cc3d3E"(ptr align 8 %_1) #30, !dbg !927
  ret void, !dbg !927
}

; Function Attrs: nounwind
define internal fastcc void @"_ZN4core3ptr80drop_in_place$LT$alloc..sync..Arc$LT$std..thread..Packet$LT$$LP$$RP$$GT$$GT$$GT$17he82bf0d8b6b14108E"(ptr align 8 %_1) unnamed_addr #3 !dbg !928 {
start:
  call fastcc void @"_ZN71_$LT$alloc..sync..Arc$LT$T$C$A$GT$$u20$as$u20$core..ops..drop..Drop$GT$4drop17h87e1b8c0809c6454E"(ptr align 8 %_1) #30, !dbg !929
  ret void, !dbg !929
}

; Function Attrs: inlinehint nounwind
define internal fastcc void @"_ZN71_$LT$alloc..sync..Arc$LT$T$C$A$GT$$u20$as$u20$core..ops..drop..Drop$GT$4drop17h87e1b8c0809c6454E"(ptr align 8 %self) unnamed_addr #5 !dbg !930 {
start:
  %i = alloca i64, align 8, !dbg !931
  %self1 = load ptr, ptr %self, align 8, !dbg !931, !nonnull !15, !noundef !15
  %i2 = atomicrmw sub ptr %self1, i64 1 release, align 8, !dbg !940
  store i64 %i2, ptr %i, align 8, !dbg !940
  %i3 = icmp eq i64 %i2, 1, !dbg !949
  br i1 %i3, label %bb2, label %bb3, !dbg !949

bb2:                                              ; preds = %start
  fence acquire, !dbg !950
  call fastcc void @"_ZN5alloc4sync16Arc$LT$T$C$A$GT$9drop_slow17hfa0b64c1ea92e444E"(ptr align 8 %self) #30, !dbg !955
  br label %bb3, !dbg !955

bb3:                                              ; preds = %bb2, %start
  ret void, !dbg !957
}

; Function Attrs: noinline nounwind
define internal fastcc void @"_ZN5alloc4sync16Arc$LT$T$C$A$GT$9drop_slow17hfa0b64c1ea92e444E"(ptr align 8 %self) unnamed_addr #6 !dbg !958 {
start:
  %_x = alloca { ptr, ptr }, align 8
  %self1 = load ptr, ptr %self, align 8, !dbg !959, !nonnull !15, !noundef !15
  %_3 = getelementptr inbounds %"alloc::sync::ArcInner<std::thread::Packet<'_, ()>>", ptr %self1, i32 0, i32 2, !dbg !963
  call fastcc void @"_ZN4core3ptr56drop_in_place$LT$std..thread..Packet$LT$$LP$$RP$$GT$$GT$17heda62443ade3d726E"(ptr align 8 %_3) #30, !dbg !965
  %_5 = load ptr, ptr %self, align 8, !dbg !966, !nonnull !15, !noundef !15
  %_6 = getelementptr i8, ptr %self, i64 8, !dbg !967
  store ptr %_5, ptr %_x, align 8, !dbg !968
  %i = getelementptr inbounds { ptr, ptr }, ptr %_x, i32 0, i32 1, !dbg !968
  store ptr %_6, ptr %i, align 8, !dbg !968
  call fastcc void @"_ZN4core3ptr108drop_in_place$LT$alloc..sync..Weak$LT$std..thread..Packet$LT$$LP$$RP$$GT$$C$$RF$alloc..alloc..Global$GT$$GT$17h440b49855b77f216E"(ptr align 8 %_x) #30, !dbg !969
  ret void, !dbg !973
}

; Function Attrs: nounwind
define internal fastcc void @"_ZN4core3ptr56drop_in_place$LT$std..thread..Packet$LT$$LP$$RP$$GT$$GT$17heda62443ade3d726E"(ptr align 8 %_1) unnamed_addr #3 !dbg !974 {
start:
  call fastcc void @"_ZN70_$LT$std..thread..Packet$LT$T$GT$$u20$as$u20$core..ops..drop..Drop$GT$4drop17h9a7a470bc066c74eE"(ptr align 8 %_1) #30, !dbg !975
  %i = load ptr, ptr %_1, align 8, !dbg !976, !noundef !15
  %i1 = ptrtoint ptr %i to i64, !dbg !976
  %i2 = icmp ne i64 %i1, 0, !dbg !976
  br i1 %i2, label %codeRepl.i, label %"_ZN4core3ptr103drop_in_place$LT$core..option..Option$LT$alloc..sync..Arc$LT$std..thread..scoped..ScopeData$GT$$GT$$GT$17h6d0743ec699514d0E.20.exit", !dbg !976

codeRepl.i:                                       ; preds = %start
  call fastcc void @"_ZN4core3ptr103drop_in_place$LT$core..option..Option$LT$alloc..sync..Arc$LT$std..thread..scoped..ScopeData$GT$$GT$$GT$17h6d0743ec699514d0E.20.bb2"(ptr %_1), !dbg !976
  br label %"_ZN4core3ptr103drop_in_place$LT$core..option..Option$LT$alloc..sync..Arc$LT$std..thread..scoped..ScopeData$GT$$GT$$GT$17h6d0743ec699514d0E.20.exit"

"_ZN4core3ptr103drop_in_place$LT$core..option..Option$LT$alloc..sync..Arc$LT$std..thread..scoped..ScopeData$GT$$GT$$GT$17h6d0743ec699514d0E.20.exit": ; preds = %codeRepl.i, %start
  %i3 = getelementptr inbounds %"std::thread::Packet<'_, ()>", ptr %_1, i32 0, i32 1, !dbg !975
  call fastcc void @"_ZN4core3ptr188drop_in_place$LT$core..cell..UnsafeCell$LT$core..option..Option$LT$core..result..Result$LT$$LP$$RP$$C$alloc..boxed..Box$LT$dyn$u20$core..any..Any$u2b$core..marker..Send$GT$$GT$$GT$$GT$$GT$17h9eb8246dc9acfb0bE"(ptr align 8 %i3) #30, !dbg !975
  ret void, !dbg !975
}

; Function Attrs: nounwind
define internal fastcc void @"_ZN4core3ptr108drop_in_place$LT$alloc..sync..Weak$LT$std..thread..Packet$LT$$LP$$RP$$GT$$C$$RF$alloc..alloc..Global$GT$$GT$17h440b49855b77f216E"(ptr nocapture readonly align 8 %_1) unnamed_addr #3 !dbg !979 {
start:
  call fastcc void @"_ZN72_$LT$alloc..sync..Weak$LT$T$C$A$GT$$u20$as$u20$core..ops..drop..Drop$GT$4drop17h51e64019ecda9b25E"(ptr align 8 %_1) #30, !dbg !980
  ret void, !dbg !980
}

; Function Attrs: nounwind
define internal fastcc void @"_ZN72_$LT$alloc..sync..Weak$LT$T$C$A$GT$$u20$as$u20$core..ops..drop..Drop$GT$4drop17h51e64019ecda9b25E"(ptr nocapture readonly align 8 %self) unnamed_addr #3 !dbg !981 {
start:
  %i = alloca i64, align 8
  %i5 = alloca i64, align 8
  %i6 = alloca i64, align 8
  %_16 = alloca { ptr, ptr }, align 8
  %_9 = alloca { i64, i64 }, align 8
  %_7 = alloca ptr, align 8
  %_2 = alloca { ptr, ptr }, align 8
  %self1 = load ptr, ptr %self, align 8, !dbg !982, !nonnull !15, !noundef !15
  %_20 = ptrtoint ptr %self1 to i64, !dbg !987
  %_15 = icmp ne i64 %_20, -1, !dbg !996
  br i1 %_15, label %bb8, label %Flow24, !dbg !994

bb8:                                              ; preds = %start
  %_18 = getelementptr inbounds %"alloc::sync::ArcInner<std::thread::Packet<'_, ()>>", ptr %self1, i32 0, i32 1, !dbg !997
  store ptr %_18, ptr %_16, align 8, !dbg !999
  %i7 = getelementptr inbounds { ptr, ptr }, ptr %_16, i32 0, i32 1, !dbg !999
  store ptr %self1, ptr %i7, align 8, !dbg !999
  store ptr %_18, ptr %_2, align 8, !dbg !1000
  %i11 = getelementptr inbounds { ptr, ptr }, ptr %_2, i32 0, i32 1, !dbg !1000
  store ptr %self1, ptr %i11, align 8, !dbg !1000
  br label %Flow24, !dbg !1001

Flow24:                                           ; preds = %bb8, %start
  %0 = phi ptr [ %_18, %bb8 ], [ undef, %start ]
  %1 = phi i1 [ false, %bb8 ], [ true, %start ], !dbg !994
  br i1 %1, label %bb7, label %bb9, !dbg !994

bb7:                                              ; preds = %Flow24
  store ptr null, ptr %_2, align 8, !dbg !1002
  br label %bb9, !dbg !1001

bb9:                                              ; preds = %bb7, %Flow24
  %inner = phi ptr [ %0, %Flow24 ], [ null, %bb7 ], !dbg !1003
  %i13 = ptrtoint ptr %inner to i64, !dbg !1003
  %i14 = icmp eq i64 %i13, 0, !dbg !1003
  %_3 = select i1 %i14, i64 0, i64 1, !dbg !1003
  %i15 = icmp eq i64 %_3, 1, !dbg !1003
  br i1 %i15, label %bb1, label %bb6, !dbg !1003

bb1:                                              ; preds = %bb9
  %i16 = atomicrmw sub ptr %inner, i64 1 release, align 8, !dbg !1004
  store i64 %i16, ptr %i6, align 8, !dbg !1004
  %i17 = icmp eq i64 %i16, 1, !dbg !1014
  br i1 %i17, label %bb3, label %Flow, !dbg !1014

bb3:                                              ; preds = %bb1
  fence acquire, !dbg !1015
  %self3 = load ptr, ptr %self, align 8, !dbg !1020, !nonnull !15, !noundef !15
  store ptr %self3, ptr %_7, align 8, !dbg !1022
  store i64 48, ptr %i5, align 8, !dbg !1031
  store i64 8, ptr %i, align 8, !dbg !1040
  %i18 = getelementptr inbounds { i64, i64 }, ptr %_9, i32 0, i32 1, !dbg !1045
  store i64 48, ptr %i18, align 8, !dbg !1045
  store i64 8, ptr %_9, align 8, !dbg !1045
  call fastcc void @"_ZN48_$LT$$RF$A$u20$as$u20$core..alloc..Allocator$GT$10deallocate17h29f9bfd1b7b3f296E"(ptr %self3, i64 8, i64 48) #30, !dbg !1052
  br label %Flow, !dbg !1053

Flow:                                             ; preds = %bb3, %bb1
  br label %bb6, !dbg !1014

bb6:                                              ; preds = %Flow, %bb9
  ret void, !dbg !1054
}

; Function Attrs: nounwind
define internal fastcc void @"_ZN70_$LT$std..thread..Packet$LT$T$GT$$u20$as$u20$core..ops..drop..Drop$GT$4drop17h9a7a470bc066c74eE"(ptr align 8 %self) unnamed_addr #3 personality ptr @rust_eh_personality !dbg !1055 {
start:
  %_18 = alloca [0 x { ptr, ptr }], align 8
  %_14 = alloca %"core::fmt::Arguments<'_>", align 8
  %_12 = alloca ptr, align 8
  %_11 = alloca %"std::sys::unix::stdio::Stderr", align 1
  %_8 = alloca ptr, align 8
  %f = alloca ptr, align 8
  %_6 = alloca { ptr, ptr }, align 8
  %unhandled_panic = alloca i8, align 1
  %i = getelementptr inbounds %"std::thread::Packet<'_, ()>", ptr %self, i32 0, i32 1, !dbg !1057
  %_5 = load i64, ptr %i, align 8, !dbg !1057, !range !860, !noundef !15
  %i8 = icmp ne i64 %_5, 1, !dbg !1058
  br i1 %i8, label %bb1, label %Flow, !dbg !1058

Flow:                                             ; preds = %bb1, %start
  %0 = phi i1 [ false, %bb1 ], [ true, %start ], !dbg !1058
  br i1 %0, label %bb2, label %bb3, !dbg !1058

bb2:                                              ; preds = %Flow
  %i10 = getelementptr inbounds %"core::option::Option<core::result::Result<(), alloc::boxed::Box<dyn core::any::Any + core::marker::Send>>>::Some", ptr %i, i32 0, i32 1, !dbg !1057
  %i11 = load ptr, ptr %i10, align 8, !dbg !1057, !noundef !15
  %i12 = ptrtoint ptr %i11 to i64, !dbg !1057
  %i13 = icmp eq i64 %i12, 0, !dbg !1057
  %_4 = select i1 %i13, i64 0, i64 1, !dbg !1057
  %i14 = icmp eq i64 %_4, 1, !dbg !1058
  %i15 = zext i1 %i14 to i8, !dbg !1058
  store i8 %i15, ptr %unhandled_panic, align 1, !dbg !1058
  br label %bb3, !dbg !1058

bb1:                                              ; preds = %start
  store i8 0, ptr %unhandled_panic, align 1, !dbg !1058
  br label %Flow, !dbg !1058

bb3:                                              ; preds = %bb2, %Flow
  %i34 = phi i1 [ false, %Flow ], [ %i14, %bb2 ]
  store ptr %i, ptr %_8, align 8, !dbg !1059
  store ptr %i, ptr %f, align 8, !dbg !1062
  %i18 = call fastcc { ptr, ptr } @_ZN3std9panicking3try17h7bdbbbf4e8108266E(ptr align 8 %i) #30, !dbg !1063
  store { ptr, ptr } %i18, ptr %_6, align 8, !dbg !1063
  %i19 = load ptr, ptr %_6, align 8, !dbg !1070, !noundef !15
  %i20 = ptrtoint ptr %i19 to i64, !dbg !1070
  %i21 = icmp eq i64 %i20, 0, !dbg !1070
  %i21.inv = xor i1 %i21, true
  %_10 = select i1 %i21, i64 0, i64 1, !dbg !1070
  %i22 = icmp eq i64 %_10, 1, !dbg !1070
  br i1 %i22, label %bb4, label %bb8, !dbg !1070

bb4:                                              ; preds = %bb3
  call fastcc void @_ZN4core3fmt9Arguments6new_v117hac36017d5c9434d3E(ptr noalias align 8 %_14, ptr align 8 @alloc_2ca7775364e940040d1ca01e1c1e4d62, i64 1, ptr align 8 %_18, i64 0) #30, !dbg !1071
  %i23 = call fastcc ptr @_ZN3std2io5Write9write_fmt17h3546878a16893a13E(ptr align 1 %_11, ptr align 8 %_14) #30, !dbg !1071
  store ptr %i23, ptr %_12, align 8, !dbg !1071
  %i25 = ptrtoint ptr %i23 to i64, !dbg !1074
  %i26 = icmp ne i64 %i25, 0, !dbg !1074
  br i1 %i26, label %codeRepl.i, label %bb7, !dbg !1074

bb8:                                              ; preds = %bb3
  br i1 %i21.inv, label %codeRepl.i6, label %"_ZN4core3ptr130drop_in_place$LT$core..result..Result$LT$$LP$$RP$$C$alloc..boxed..Box$LT$dyn$u20$core..any..Any$u2b$core..marker..Send$GT$$GT$$GT$17h923acdbd0e705735E.18.exit7", !dbg !1077

codeRepl.i6:                                      ; preds = %bb8
  call fastcc void @"_ZN4core3ptr130drop_in_place$LT$core..result..Result$LT$$LP$$RP$$C$alloc..boxed..Box$LT$dyn$u20$core..any..Any$u2b$core..marker..Send$GT$$GT$$GT$17h923acdbd0e705735E.18.bb2"(ptr %_6), !dbg !1077
  br label %"_ZN4core3ptr130drop_in_place$LT$core..result..Result$LT$$LP$$RP$$C$alloc..boxed..Box$LT$dyn$u20$core..any..Any$u2b$core..marker..Send$GT$$GT$$GT$17h923acdbd0e705735E.18.exit7"

"_ZN4core3ptr130drop_in_place$LT$core..result..Result$LT$$LP$$RP$$C$alloc..boxed..Box$LT$dyn$u20$core..any..Any$u2b$core..marker..Send$GT$$GT$$GT$17h923acdbd0e705735E.18.exit7": ; preds = %codeRepl.i6, %bb8
  %i30 = load ptr, ptr %self, align 8, !dbg !1080, !noundef !15
  %i31 = ptrtoint ptr %i30 to i64, !dbg !1080
  %i32 = icmp eq i64 %i31, 0, !dbg !1080
  %_20 = select i1 %i32, i64 0, i64 1, !dbg !1080
  %i33 = icmp eq i64 %_20, 1, !dbg !1080
  br i1 %i33, label %bb10, label %bb12, !dbg !1080

codeRepl.i:                                       ; preds = %bb4
  call fastcc void @"_ZN4core3ptr81drop_in_place$LT$core..result..Result$LT$$LP$$RP$$C$std..io..error..Error$GT$$GT$17h53c6c180255fc9f2E.10.bb2"(ptr %_12), !dbg !1074
  br label %bb7

bb7:                                              ; preds = %codeRepl.i, %bb4
  call void @_ZN3std3sys4unix14abort_internal17hcd710dbef5945af5E() #31, !dbg !1082
  unreachable, !dbg !1082

bb10:                                             ; preds = %"_ZN4core3ptr130drop_in_place$LT$core..result..Result$LT$$LP$$RP$$C$alloc..boxed..Box$LT$dyn$u20$core..any..Any$u2b$core..marker..Send$GT$$GT$$GT$17h923acdbd0e705735E.18.exit7"
  %_23 = getelementptr inbounds %"alloc::sync::ArcInner<std::thread::scoped::ScopeData>", ptr %i30, i32 0, i32 2, !dbg !1083
  call void @_ZN3std6thread6scoped9ScopeData29decrement_num_running_threads17h0404442f59a4214aE(ptr align 8 %_23, i1 zeroext %i34) #30, !dbg !1083
  br label %bb12, !dbg !1084

bb12:                                             ; preds = %bb10, %"_ZN4core3ptr130drop_in_place$LT$core..result..Result$LT$$LP$$RP$$C$alloc..boxed..Box$LT$dyn$u20$core..any..Any$u2b$core..marker..Send$GT$$GT$$GT$17h923acdbd0e705735E.18.exit7"
  ret void, !dbg !1085
}

; Function Attrs: nounwind
define internal fastcc void @"_ZN4core3ptr103drop_in_place$LT$core..option..Option$LT$alloc..sync..Arc$LT$std..thread..scoped..ScopeData$GT$$GT$$GT$17h6d0743ec699514d0E.20.bb2"(ptr %_1) unnamed_addr #3 !dbg !1086 {
newFuncRoot:
  call fastcc void @"_ZN4core3ptr75drop_in_place$LT$alloc..sync..Arc$LT$std..thread..scoped..ScopeData$GT$$GT$17h7eefacec672a57e7E"(ptr align 8 %_1) #30, !dbg !1087
  ret void
}

; Function Attrs: nounwind
define internal fastcc void @"_ZN4core3ptr188drop_in_place$LT$core..cell..UnsafeCell$LT$core..option..Option$LT$core..result..Result$LT$$LP$$RP$$C$alloc..boxed..Box$LT$dyn$u20$core..any..Any$u2b$core..marker..Send$GT$$GT$$GT$$GT$$GT$17h9eb8246dc9acfb0bE"(ptr nocapture readonly align 8 %_1) unnamed_addr #3 !dbg !1088 {
start:
  %_2.i = load i64, ptr %_1, align 8, !dbg !1089, !range !860, !noundef !15
  %i = icmp ne i64 %_2.i, 0, !dbg !1089
  br i1 %i, label %codeRepl.i, label %"_ZN4core3ptr158drop_in_place$LT$core..option..Option$LT$core..result..Result$LT$$LP$$RP$$C$alloc..boxed..Box$LT$dyn$u20$core..any..Any$u2b$core..marker..Send$GT$$GT$$GT$$GT$17h8c12f2f5e20cff39E.17.exit", !dbg !1089

codeRepl.i:                                       ; preds = %start
  call fastcc void @"_ZN4core3ptr158drop_in_place$LT$core..option..Option$LT$core..result..Result$LT$$LP$$RP$$C$alloc..boxed..Box$LT$dyn$u20$core..any..Any$u2b$core..marker..Send$GT$$GT$$GT$$GT$17h8c12f2f5e20cff39E.17.bb2"(ptr %_1), !dbg !1089
  br label %"_ZN4core3ptr158drop_in_place$LT$core..option..Option$LT$core..result..Result$LT$$LP$$RP$$C$alloc..boxed..Box$LT$dyn$u20$core..any..Any$u2b$core..marker..Send$GT$$GT$$GT$$GT$17h8c12f2f5e20cff39E.17.exit"

"_ZN4core3ptr158drop_in_place$LT$core..option..Option$LT$core..result..Result$LT$$LP$$RP$$C$alloc..boxed..Box$LT$dyn$u20$core..any..Any$u2b$core..marker..Send$GT$$GT$$GT$$GT$17h8c12f2f5e20cff39E.17.exit": ; preds = %codeRepl.i, %start
  ret void, !dbg !1092
}

; Function Attrs: nounwind
define internal fastcc void @"_ZN4core3ptr158drop_in_place$LT$core..option..Option$LT$core..result..Result$LT$$LP$$RP$$C$alloc..boxed..Box$LT$dyn$u20$core..any..Any$u2b$core..marker..Send$GT$$GT$$GT$$GT$17h8c12f2f5e20cff39E.17.bb2"(ptr nocapture readonly %_1) unnamed_addr #3 !dbg !1093 {
newFuncRoot:
  %i = getelementptr inbounds %"core::option::Option<core::result::Result<(), alloc::boxed::Box<dyn core::any::Any + core::marker::Send>>>::Some", ptr %_1, i32 0, i32 1, !dbg !1094
  %i1 = load ptr, ptr %i, align 8, !dbg !1095, !noundef !15
  %i2 = ptrtoint ptr %i1 to i64, !dbg !1095
  %i3 = icmp ne i64 %i2, 0, !dbg !1095
  br i1 %i3, label %codeRepl.i, label %bb1.exitStub, !dbg !1095

codeRepl.i:                                       ; preds = %newFuncRoot
  call fastcc void @"_ZN4core3ptr130drop_in_place$LT$core..result..Result$LT$$LP$$RP$$C$alloc..boxed..Box$LT$dyn$u20$core..any..Any$u2b$core..marker..Send$GT$$GT$$GT$17h923acdbd0e705735E.18.bb2"(ptr %i), !dbg !1095
  br label %bb1.exitStub

bb1.exitStub:                                     ; preds = %codeRepl.i, %newFuncRoot
  ret void
}

; Function Attrs: nounwind
define internal fastcc void @"_ZN4core3ptr130drop_in_place$LT$core..result..Result$LT$$LP$$RP$$C$alloc..boxed..Box$LT$dyn$u20$core..any..Any$u2b$core..marker..Send$GT$$GT$$GT$17h923acdbd0e705735E.18.bb2"(ptr nocapture readonly %_1) unnamed_addr #3 !dbg !1097 {
newFuncRoot:
  call void @"_ZN4core3ptr91drop_in_place$LT$alloc..boxed..Box$LT$dyn$u20$core..any..Any$u2b$core..marker..Send$GT$$GT$17hee4fe6bdc51b86a8E"(ptr align 8 %_1) #30, !dbg !1098
  ret void
}

; Function Attrs: nounwind
define internal fastcc void @"_ZN4core3ptr75drop_in_place$LT$alloc..sync..Arc$LT$std..thread..scoped..ScopeData$GT$$GT$17h7eefacec672a57e7E"(ptr align 8 %_1) unnamed_addr #3 !dbg !1099 {
start:
  call fastcc void @"_ZN71_$LT$alloc..sync..Arc$LT$T$C$A$GT$$u20$as$u20$core..ops..drop..Drop$GT$4drop17h32d05fdfe96c83bdE"(ptr align 8 %_1) #30, !dbg !1100
  ret void, !dbg !1100
}

; Function Attrs: inlinehint nounwind
define internal fastcc void @"_ZN71_$LT$alloc..sync..Arc$LT$T$C$A$GT$$u20$as$u20$core..ops..drop..Drop$GT$4drop17h32d05fdfe96c83bdE"(ptr align 8 %self) unnamed_addr #5 !dbg !1101 {
start:
  %i = alloca i64, align 8, !dbg !1102
  %self1 = load ptr, ptr %self, align 8, !dbg !1102, !nonnull !15, !noundef !15
  %i2 = atomicrmw sub ptr %self1, i64 1 release, align 8, !dbg !1111
  store i64 %i2, ptr %i, align 8, !dbg !1111
  %i3 = icmp eq i64 %i2, 1, !dbg !1120
  br i1 %i3, label %bb2, label %bb3, !dbg !1120

bb2:                                              ; preds = %start
  fence acquire, !dbg !1121
  call fastcc void @"_ZN5alloc4sync16Arc$LT$T$C$A$GT$9drop_slow17h0f7280f5c7bfe639E"(ptr align 8 %self) #30, !dbg !1126
  br label %bb3, !dbg !1126

bb3:                                              ; preds = %bb2, %start
  ret void, !dbg !1128
}

; Function Attrs: noinline nounwind
define internal fastcc void @"_ZN5alloc4sync16Arc$LT$T$C$A$GT$9drop_slow17h0f7280f5c7bfe639E"(ptr align 8 %self) unnamed_addr #6 !dbg !1129 {
start:
  %_x = alloca { ptr, ptr }, align 8
  %self1 = load ptr, ptr %self, align 8, !dbg !1130, !nonnull !15, !noundef !15
  %_3 = getelementptr inbounds %"alloc::sync::ArcInner<std::thread::scoped::ScopeData>", ptr %self1, i32 0, i32 2, !dbg !1134
  call fastcc void @"_ZN4core3ptr51drop_in_place$LT$std..thread..scoped..ScopeData$GT$17h85cbd59ec2ed6dabE"(ptr align 8 %_3) #30, !dbg !1136
  %_5 = load ptr, ptr %self, align 8, !dbg !1137, !nonnull !15, !noundef !15
  %_6 = getelementptr i8, ptr %self, i64 8, !dbg !1138
  store ptr %_5, ptr %_x, align 8, !dbg !1139
  %i = getelementptr inbounds { ptr, ptr }, ptr %_x, i32 0, i32 1, !dbg !1139
  store ptr %_6, ptr %i, align 8, !dbg !1139
  call fastcc void @"_ZN4core3ptr103drop_in_place$LT$alloc..sync..Weak$LT$std..thread..scoped..ScopeData$C$$RF$alloc..alloc..Global$GT$$GT$17hee05e47ab34c50c0E"(ptr align 8 %_x) #30, !dbg !1140
  ret void, !dbg !1144
}

; Function Attrs: nounwind
define internal fastcc void @"_ZN4core3ptr51drop_in_place$LT$std..thread..scoped..ScopeData$GT$17h85cbd59ec2ed6dabE"(ptr align 8 %_1) unnamed_addr #3 !dbg !1145 {
start:
  call fastcc void @"_ZN4core3ptr40drop_in_place$LT$std..thread..Thread$GT$17h51532233b6119ee5E"(ptr align 8 %_1) #30, !dbg !1146
  ret void, !dbg !1146
}

; Function Attrs: nounwind
define internal fastcc void @"_ZN4core3ptr103drop_in_place$LT$alloc..sync..Weak$LT$std..thread..scoped..ScopeData$C$$RF$alloc..alloc..Global$GT$$GT$17hee05e47ab34c50c0E"(ptr nocapture readonly align 8 %_1) unnamed_addr #3 !dbg !1147 {
start:
  call fastcc void @"_ZN72_$LT$alloc..sync..Weak$LT$T$C$A$GT$$u20$as$u20$core..ops..drop..Drop$GT$4drop17hbe313b2067ea67a7E"(ptr align 8 %_1) #30, !dbg !1148
  ret void, !dbg !1148
}

; Function Attrs: nounwind
define internal fastcc void @"_ZN72_$LT$alloc..sync..Weak$LT$T$C$A$GT$$u20$as$u20$core..ops..drop..Drop$GT$4drop17hbe313b2067ea67a7E"(ptr nocapture readonly align 8 %self) unnamed_addr #3 !dbg !1149 {
start:
  %i = alloca i64, align 8
  %i5 = alloca i64, align 8
  %i6 = alloca i64, align 8
  %_16 = alloca { ptr, ptr }, align 8
  %_9 = alloca { i64, i64 }, align 8
  %_7 = alloca ptr, align 8
  %_2 = alloca { ptr, ptr }, align 8
  %self1 = load ptr, ptr %self, align 8, !dbg !1150, !nonnull !15, !noundef !15
  %_20 = ptrtoint ptr %self1 to i64, !dbg !1155
  %_15 = icmp ne i64 %_20, -1, !dbg !1164
  br i1 %_15, label %bb8, label %Flow24, !dbg !1162

bb8:                                              ; preds = %start
  %_18 = getelementptr inbounds %"alloc::sync::ArcInner<std::thread::scoped::ScopeData>", ptr %self1, i32 0, i32 1, !dbg !1165
  store ptr %_18, ptr %_16, align 8, !dbg !1167
  %i7 = getelementptr inbounds { ptr, ptr }, ptr %_16, i32 0, i32 1, !dbg !1167
  store ptr %self1, ptr %i7, align 8, !dbg !1167
  store ptr %_18, ptr %_2, align 8, !dbg !1168
  %i11 = getelementptr inbounds { ptr, ptr }, ptr %_2, i32 0, i32 1, !dbg !1168
  store ptr %self1, ptr %i11, align 8, !dbg !1168
  br label %Flow24, !dbg !1169

Flow24:                                           ; preds = %bb8, %start
  %0 = phi ptr [ %_18, %bb8 ], [ undef, %start ]
  %1 = phi i1 [ false, %bb8 ], [ true, %start ], !dbg !1162
  br i1 %1, label %bb7, label %bb9, !dbg !1162

bb7:                                              ; preds = %Flow24
  store ptr null, ptr %_2, align 8, !dbg !1170
  br label %bb9, !dbg !1169

bb9:                                              ; preds = %bb7, %Flow24
  %inner = phi ptr [ %0, %Flow24 ], [ null, %bb7 ], !dbg !1171
  %i13 = ptrtoint ptr %inner to i64, !dbg !1171
  %i14 = icmp eq i64 %i13, 0, !dbg !1171
  %_3 = select i1 %i14, i64 0, i64 1, !dbg !1171
  %i15 = icmp eq i64 %_3, 1, !dbg !1171
  br i1 %i15, label %bb1, label %bb6, !dbg !1171

bb1:                                              ; preds = %bb9
  %i16 = atomicrmw sub ptr %inner, i64 1 release, align 8, !dbg !1172
  store i64 %i16, ptr %i6, align 8, !dbg !1172
  %i17 = icmp eq i64 %i16, 1, !dbg !1182
  br i1 %i17, label %bb3, label %Flow, !dbg !1182

bb3:                                              ; preds = %bb1
  fence acquire, !dbg !1183
  %self3 = load ptr, ptr %self, align 8, !dbg !1188, !nonnull !15, !noundef !15
  store ptr %self3, ptr %_7, align 8, !dbg !1190
  store i64 40, ptr %i5, align 8, !dbg !1199
  store i64 8, ptr %i, align 8, !dbg !1208
  %i18 = getelementptr inbounds { i64, i64 }, ptr %_9, i32 0, i32 1, !dbg !1213
  store i64 40, ptr %i18, align 8, !dbg !1213
  store i64 8, ptr %_9, align 8, !dbg !1213
  call fastcc void @"_ZN48_$LT$$RF$A$u20$as$u20$core..alloc..Allocator$GT$10deallocate17h29f9bfd1b7b3f296E"(ptr %self3, i64 8, i64 40) #30, !dbg !1220
  br label %Flow, !dbg !1221

Flow:                                             ; preds = %bb3, %bb1
  br label %bb6, !dbg !1182

bb6:                                              ; preds = %Flow, %bb9
  ret void, !dbg !1222
}

; Function Attrs: nounwind
define internal fastcc { ptr, ptr } @_ZN3std9panicking3try17h7bdbbbf4e8108266E(ptr align 8 %f) unnamed_addr #3 !dbg !1223 {
start:
  %i = alloca i32, align 4
  %_3 = alloca ptr, align 8
  %data = alloca %"core::ptr::metadata::PtrRepr<[u8]>", align 8
  %_0 = alloca { ptr, ptr }, align 8
  store ptr %f, ptr %_3, align 8, !dbg !1226
  store ptr %f, ptr %data, align 8, !dbg !1230
  %data.val = load ptr, ptr %data, align 8, !dbg !1231, !nonnull !15, !align !195, !noundef !15
  call fastcc void @_ZN3std9panicking3try7do_call17h11369c05614eb454E(ptr %data.val), !dbg !1231
  store i32 0, ptr %i, align 4, !dbg !1231
  br label %bb2

bb2:                                              ; preds = %start
  store ptr null, ptr %_0, align 8, !dbg !1235
  br label %bb4, !dbg !1236

bb4:                                              ; preds = %bb2
  ret { ptr, ptr } { ptr null, ptr undef }, !dbg !1237
}

; Function Attrs: inlinehint nounwind
define internal fastcc void @_ZN4core3fmt9Arguments6new_v117hac36017d5c9434d3E(ptr noalias nocapture writeonly align 8 %_0, ptr align 8 %pieces.0, i64 %pieces.1, ptr align 8 %args.0, i64 %args.1) unnamed_addr #5 !dbg !1238 {
start:
  %_15 = alloca { ptr, i64 }, align 8
  %_13 = alloca { ptr, i64 }, align 8
  %_11 = alloca %"core::fmt::Arguments<'_>", align 8
  %_3 = icmp ult i64 %pieces.1, %args.1, !dbg !1239
  %_8 = add i64 %args.1, 1
  %_6 = icmp ugt i64 %pieces.1, %_8
  %or.cond = or i1 %_3, %_6, !dbg !1239
  br i1 %or.cond, label %bb3, label %bb4, !dbg !1239

bb4:                                              ; preds = %start
  store ptr null, ptr %_13, align 8, !dbg !1240
  store ptr %pieces.0, ptr %_0, align 8, !dbg !1241
  %i = getelementptr inbounds { ptr, i64 }, ptr %_0, i32 0, i32 1, !dbg !1241
  store i64 %pieces.1, ptr %i, align 8, !dbg !1241
  %i4 = getelementptr inbounds %"core::fmt::Arguments<'_>", ptr %_0, i32 0, i32 2, !dbg !1241
  store ptr null, ptr %i4, align 8, !dbg !1241
  %i5 = getelementptr inbounds { ptr, i64 }, ptr %i4, i32 0, i32 1, !dbg !1241
  store i64 undef, ptr %i5, align 8, !dbg !1241
  %i6 = getelementptr inbounds %"core::fmt::Arguments<'_>", ptr %_0, i32 0, i32 1, !dbg !1241
  store ptr %args.0, ptr %i6, align 8, !dbg !1241
  %i7 = getelementptr inbounds { ptr, i64 }, ptr %i6, i32 0, i32 1, !dbg !1241
  store i64 %args.1, ptr %i7, align 8, !dbg !1241
  ret void, !dbg !1242

bb3:                                              ; preds = %start
  store ptr null, ptr %_15, align 8, !dbg !1243
  store ptr @alloc_af99043bc04c419363a7f04d23183506, ptr %_11, align 8, !dbg !1249
  %i8 = getelementptr inbounds { ptr, i64 }, ptr %_11, i32 0, i32 1, !dbg !1249
  store i64 1, ptr %i8, align 8, !dbg !1249
  %i12 = getelementptr inbounds %"core::fmt::Arguments<'_>", ptr %_11, i32 0, i32 2, !dbg !1249
  store ptr null, ptr %i12, align 8, !dbg !1249
  %i13 = getelementptr inbounds { ptr, i64 }, ptr %i12, i32 0, i32 1, !dbg !1249
  store i64 undef, ptr %i13, align 8, !dbg !1249
  %i14 = getelementptr inbounds %"core::fmt::Arguments<'_>", ptr %_11, i32 0, i32 1, !dbg !1249
  store ptr @alloc_513570631223a12912d85da2bec3b15a, ptr %i14, align 8, !dbg !1249
  %i15 = getelementptr inbounds { ptr, i64 }, ptr %i14, i32 0, i32 1, !dbg !1249
  store i64 0, ptr %i15, align 8, !dbg !1249
  call void @_ZN4core9panicking9panic_fmt17hff768cef35397791E(ptr align 8 %_11, ptr align 8 @alloc_5f330cd7dff757941d785f386d839300) #31, !dbg !1250
  unreachable, !dbg !1250
}

; Function Attrs: nounwind
define internal fastcc ptr @_ZN3std2io5Write9write_fmt17h3546878a16893a13E(ptr align 1 %self, ptr align 8 %fmt) unnamed_addr #3 personality ptr @rust_eh_personality !dbg !1251 {
start:
  %_16 = alloca ptr, align 8
  %_15 = alloca ptr, align 8
  %_12 = alloca i8, align 1
  %_10 = alloca ptr, align 8
  %_4 = alloca i8, align 1
  %output = alloca { ptr, ptr }, align 8
  %_0 = alloca ptr, align 8
  store i8 1, ptr %_12, align 1, !dbg !1255
  store ptr %self, ptr %output, align 8, !dbg !1255
  %i = getelementptr inbounds { ptr, ptr }, ptr %output, i32 0, i32 1, !dbg !1255
  store ptr null, ptr %i, align 8, !dbg !1255
  %i2 = call zeroext i1 @_ZN4core3fmt5write17h30346430340bc336E(ptr align 1 %output, ptr align 8 @vtable.0, ptr align 8 %fmt) #30, !dbg !1256
  %i3 = zext i1 %i2 to i8, !dbg !1256
  store i8 %i3, ptr %_4, align 1, !dbg !1256
  br i1 %i2, label %bb2, label %Flow27, !dbg !1258

Flow27:                                           ; preds = %Flow26, %start
  %0 = phi i1 [ %3, %Flow26 ], [ undef, %start ]
  %1 = phi ptr [ %4, %Flow26 ], [ undef, %start ]
  %2 = phi i1 [ false, %Flow26 ], [ true, %start ], !dbg !1258
  br i1 %2, label %bb4, label %bb12, !dbg !1258

bb4:                                              ; preds = %Flow27
  store ptr null, ptr %_0, align 8, !dbg !1259
  br label %bb12, !dbg !1260

bb2:                                              ; preds = %start
  %i8 = load ptr, ptr %i, align 8, !dbg !1261, !noundef !15
  %i9 = ptrtoint ptr %i8 to i64, !dbg !1261
  %i10 = icmp eq i64 %i9, 0, !dbg !1261
  br i1 %i10, label %bb6, label %Flow25, !dbg !1268

Flow26:                                           ; preds = %bb5, %Flow25
  %3 = phi i1 [ false, %bb5 ], [ true, %Flow25 ]
  %4 = phi ptr [ %i8, %bb5 ], [ @alloc_5d9af7a776dc0d9eecd628aaf786bef9, %Flow25 ]
  br label %Flow27, !dbg !1268

bb12:                                             ; preds = %bb4, %Flow27
  %i18 = phi ptr [ %1, %Flow27 ], [ null, %bb4 ]
  %i11 = phi i1 [ %0, %Flow27 ], [ true, %bb4 ], !dbg !1269
  br i1 %i11, label %bb11, label %bb10, !dbg !1269

bb6:                                              ; preds = %bb2
  store ptr @alloc_5d9af7a776dc0d9eecd628aaf786bef9, ptr %_16, align 8, !dbg !1270
  store ptr @alloc_5d9af7a776dc0d9eecd628aaf786bef9, ptr %_15, align 8, !dbg !1289
  store ptr @alloc_5d9af7a776dc0d9eecd628aaf786bef9, ptr %_10, align 8, !dbg !1290
  store ptr @alloc_5d9af7a776dc0d9eecd628aaf786bef9, ptr %_0, align 8, !dbg !1291
  br label %Flow25, !dbg !1292

Flow25:                                           ; preds = %bb6, %bb2
  %5 = phi i1 [ false, %bb6 ], [ true, %bb2 ], !dbg !1268
  br i1 %5, label %bb5, label %Flow26, !dbg !1268

bb5:                                              ; preds = %Flow25
  store i8 0, ptr %_12, align 1, !dbg !1293
  store ptr %i8, ptr %_0, align 8, !dbg !1293
  br label %Flow26, !dbg !1292

Flow:                                             ; preds = %codeRepl.i, %bb11
  br label %bb10, !dbg !1294

bb10:                                             ; preds = %Flow, %bb12
  ret ptr %i18, !dbg !1296

bb11:                                             ; preds = %bb12
  %i20 = load ptr, ptr %i, align 8, !dbg !1294, !noundef !15
  %i21 = ptrtoint ptr %i20 to i64, !dbg !1294
  %i22 = icmp ne i64 %i21, 0, !dbg !1294
  br i1 %i22, label %codeRepl.i, label %Flow, !dbg !1294

codeRepl.i:                                       ; preds = %bb11
  call fastcc void @"_ZN4core3ptr81drop_in_place$LT$core..result..Result$LT$$LP$$RP$$C$std..io..error..Error$GT$$GT$17h53c6c180255fc9f2E.10.bb2"(ptr %i), !dbg !1294
  br label %Flow
}

; Function Attrs: nounwind
define internal fastcc void @"_ZN4core3ptr81drop_in_place$LT$core..result..Result$LT$$LP$$RP$$C$std..io..error..Error$GT$$GT$17h53c6c180255fc9f2E.10.bb2"(ptr nocapture readonly %_1) unnamed_addr #3 !dbg !1297 {
newFuncRoot:
  call void @"_ZN4core3ptr42drop_in_place$LT$std..io..error..Error$GT$17h4303a5a38e62dbf2E"(ptr align 8 %_1) #30, !dbg !1298
  ret void
}

; Function Attrs: noreturn nounwind
declare void @_ZN3std3sys4unix14abort_internal17hcd710dbef5945af5E() unnamed_addr #17

; Function Attrs: nounwind
declare void @_ZN3std6thread6scoped9ScopeData29decrement_num_running_threads17h0404442f59a4214aE(ptr align 8, i1 zeroext) unnamed_addr #3

; Function Attrs: nounwind
define internal void @"_ZN4core3ptr42drop_in_place$LT$std..io..error..Error$GT$17h4303a5a38e62dbf2E"(ptr nocapture readonly align 8 %_1) unnamed_addr #3 !dbg !1299 {
start:
  %_1.val = load ptr, ptr %_1, align 8, !dbg !1300, !nonnull !15, !noundef !15
  call fastcc void @"_ZN4core3ptr57drop_in_place$LT$std..io..error..repr_bitpacked..Repr$GT$17h9b79e925dcdc01a8E"(ptr %_1.val) #30, !dbg !1300
  ret void, !dbg !1300
}

; Function Attrs: nounwind
define internal fastcc void @"_ZN4core3ptr57drop_in_place$LT$std..io..error..repr_bitpacked..Repr$GT$17h9b79e925dcdc01a8E"(ptr %_1.0.val) unnamed_addr #3 !dbg !1301 {
start:
  %0 = icmp ne ptr %_1.0.val, null
  call void @llvm.assume(i1 %0)
  call fastcc void @"_ZN78_$LT$std..io..error..repr_bitpacked..Repr$u20$as$u20$core..ops..drop..Drop$GT$4drop17hbaddbf8cd71c066bE"(ptr %_1.0.val) #30, !dbg !1302
  ret void, !dbg !1302
}

; Function Attrs: inlinehint nounwind
define internal fastcc void @"_ZN78_$LT$std..io..error..repr_bitpacked..Repr$u20$as$u20$core..ops..drop..Drop$GT$4drop17hbaddbf8cd71c066bE"(ptr %self.0.val) unnamed_addr #5 !dbg !1303 {
start:
  %_2 = alloca %"std::io::error::ErrorData<alloc::boxed::Box<std::io::error::Custom>>", align 8
  %0 = icmp ne ptr %self.0.val, null
  call void @llvm.assume(i1 %0)
  call fastcc void @_ZN3std2io5error14repr_bitpacked11decode_repr17h862313a0fc654f48E(ptr noalias align 8 %_2, ptr %self.0.val) #30, !dbg !1305
  call fastcc void @"_ZN4core3ptr101drop_in_place$LT$std..io..error..ErrorData$LT$alloc..boxed..Box$LT$std..io..error..Custom$GT$$GT$$GT$17haa18b8239c27ec88E"(ptr align 8 %_2) #30, !dbg !1307
  ret void, !dbg !1308
}

; Function Attrs: inlinehint mustprogress nofree nosync nounwind willreturn memory(argmem: write, inaccessiblemem: readwrite)
define internal fastcc void @_ZN3std2io5error14repr_bitpacked11decode_repr17h862313a0fc654f48E(ptr noalias nocapture writeonly align 8 %_0, ptr %ptr) unnamed_addr #18 personality ptr @rust_eh_personality !dbg !1309 {
start:
  %i = alloca ptr, align 8
  %_51 = alloca %"core::ptr::metadata::PtrComponents<()>", align 8
  %_50 = alloca %"core::ptr::metadata::PtrRepr<()>", align 8
  %_26 = alloca i8, align 1
  %_24 = alloca ptr, align 8
  %self1 = alloca ptr, align 8
  %self = alloca i8, align 1
  %bits = alloca i64, align 8
  store i8 1, ptr %_26, align 1, !dbg !1310
  %i3 = ptrtoint ptr %ptr to i64, !dbg !1311
  store i64 %i3, ptr %bits, align 8, !dbg !1311
  %_5 = and i64 %i3, 3, !dbg !1316
  switch i64 %_5, label %start.unreachabledefault [
    i64 2, label %bb2
    i64 3, label %bb3
    i64 0, label %bb5
    i64 1, label %bb6
  ], !dbg !1318

start.unreachabledefault:                         ; preds = %start
  unreachable

bb2:                                              ; preds = %start
  %_8 = ashr i64 %i3, 32, !dbg !1319
  %code = trunc i64 %_8 to i32, !dbg !1319
  %i4 = getelementptr inbounds %"std::io::error::ErrorData<alloc::boxed::Box<std::io::error::Custom>>::Os", ptr %_0, i32 0, i32 1, !dbg !1320
  store i32 %code, ptr %i4, align 4, !dbg !1320
  store i8 0, ptr %_0, align 8, !dbg !1320
  br label %bb9, !dbg !1322

bb3:                                              ; preds = %start
  %_12 = lshr i64 %i3, 32, !dbg !1323
  %kind_bits = trunc i64 %_12 to i32, !dbg !1323
  %i5 = call fastcc i8 @_ZN3std2io5error14repr_bitpacked14kind_from_prim17h21bc352ed7be828eE(i32 %kind_bits) #30, !dbg !1324, !range !1326
  store i8 %i5, ptr %self, align 1, !dbg !1324
  %i7 = icmp eq i8 %i5, 41, !dbg !1327
  %_28 = select i1 %i7, i64 0, i64 1, !dbg !1327
  %_53 = icmp eq i64 %_28, 1, !dbg !1331
  call void @llvm.assume(i1 %_53), !dbg !1331
  %i8 = getelementptr inbounds %"std::io::error::ErrorData<alloc::boxed::Box<std::io::error::Custom>>::Simple", ptr %_0, i32 0, i32 1, !dbg !1332
  store i8 %i5, ptr %i8, align 1, !dbg !1332
  store i8 1, ptr %_0, align 8, !dbg !1332
  br label %bb9, !dbg !1334

bb5:                                              ; preds = %start
  store ptr %ptr, ptr %self1, align 8, !dbg !1335
  %i9 = getelementptr inbounds %"std::io::error::ErrorData<alloc::boxed::Box<std::io::error::Custom>>::Custom", ptr %_0, i32 0, i32 1, !dbg !1344
  store ptr %ptr, ptr %i9, align 8, !dbg !1344
  store i8 2, ptr %_0, align 8, !dbg !1344
  br label %bb9, !dbg !1345

bb6:                                              ; preds = %start
  %i10 = getelementptr i8, ptr %ptr, i64 -1, !dbg !1346
  store ptr %i10, ptr %i, align 8, !dbg !1346
  store ptr %i10, ptr %_51, align 8, !dbg !1357
  call void @llvm.memcpy.p0.p0.i64(ptr align 8 %_50, ptr align 8 %_51, i64 8, i1 false), !dbg !1365
  %self2 = load ptr, ptr %_50, align 8, !dbg !1365, !noundef !15
  store i8 0, ptr %_26, align 1, !dbg !1366
  store ptr %self2, ptr %_24, align 8, !dbg !1366
  %_22 = call fastcc align 8 ptr @"_ZN78_$LT$std..io..error..repr_bitpacked..Repr$u20$as$u20$core..ops..drop..Drop$GT$4drop28_$u7b$$u7b$closure$u7d$$u7d$17h8949d34a12c4bdf8E"(ptr %self2) #30, !dbg !1366
  %i12 = getelementptr inbounds %"std::io::error::ErrorData<alloc::boxed::Box<std::io::error::Custom>>::Custom", ptr %_0, i32 0, i32 1, !dbg !1368
  store ptr %_22, ptr %i12, align 8, !dbg !1368
  store i8 3, ptr %_0, align 8, !dbg !1368
  br label %bb9, !dbg !1369

bb9:                                              ; preds = %bb6, %bb5, %bb3, %bb2
  ret void, !dbg !1370
}

; Function Attrs: nounwind
define internal fastcc void @"_ZN4core3ptr101drop_in_place$LT$std..io..error..ErrorData$LT$alloc..boxed..Box$LT$std..io..error..Custom$GT$$GT$$GT$17haa18b8239c27ec88E"(ptr nocapture readonly align 8 %_1) unnamed_addr #3 !dbg !1371 {
start:
  br i1 undef, label %bb2, label %bb1, !dbg !1372

bb2:                                              ; preds = %start
  %i1 = getelementptr inbounds %"std::io::error::ErrorData<alloc::boxed::Box<std::io::error::Custom>>::Custom", ptr %_1, i32 0, i32 1, !dbg !1372
  call fastcc void @"_ZN4core3ptr68drop_in_place$LT$alloc..boxed..Box$LT$std..io..error..Custom$GT$$GT$17h447893a7c012966eE"(ptr align 8 %i1) #30, !dbg !1372
  br label %bb1, !dbg !1372

bb1:                                              ; preds = %bb2, %start
  ret void, !dbg !1372
}

; Function Attrs: nounwind
define internal fastcc void @"_ZN4core3ptr68drop_in_place$LT$alloc..boxed..Box$LT$std..io..error..Custom$GT$$GT$17h447893a7c012966eE"(ptr nocapture readonly align 8 %_1) unnamed_addr #3 !dbg !1373 {
start:
  %_6 = load ptr, ptr %_1, align 8, !dbg !1374, !noundef !15
  call fastcc void @"_ZN4core3ptr43drop_in_place$LT$std..io..error..Custom$GT$17hb0a7d7aa4d08ed34E"(ptr align 8 %_6) #30, !dbg !1374
  %_1.val = load ptr, ptr %_1, align 8, !dbg !1374, !nonnull !15, !noundef !15
  call fastcc void @"_ZN72_$LT$alloc..boxed..Box$LT$T$C$A$GT$$u20$as$u20$core..ops..drop..Drop$GT$4drop17ha337e641a941800fE"(ptr %_1.val) #30, !dbg !1374
  ret void, !dbg !1374
}

; Function Attrs: nounwind
define internal fastcc void @"_ZN4core3ptr43drop_in_place$LT$std..io..error..Custom$GT$17hb0a7d7aa4d08ed34E"(ptr nocapture readonly align 8 %_1) unnamed_addr #3 !dbg !1375 {
start:
  call fastcc void @"_ZN4core3ptr118drop_in_place$LT$alloc..boxed..Box$LT$dyn$u20$core..error..Error$u2b$core..marker..Send$u2b$core..marker..Sync$GT$$GT$17h25b4e1f3dd945d73E"(ptr align 8 %_1) #30, !dbg !1376
  ret void, !dbg !1376
}

; Function Attrs: inlinehint nounwind
define internal fastcc void @"_ZN72_$LT$alloc..boxed..Box$LT$T$C$A$GT$$u20$as$u20$core..ops..drop..Drop$GT$4drop17ha337e641a941800fE"(ptr %self.0.val) unnamed_addr #5 !dbg !1377 {
start:
  %i = alloca i64, align 8
  %i2 = alloca i64, align 8
  %unique = alloca ptr, align 8
  %self1 = alloca ptr, align 8
  %_9 = alloca ptr, align 8
  %layout = alloca { i64, i64 }, align 8
  %0 = icmp ne ptr %self.0.val, null
  call void @llvm.assume(i1 %0)
  store i64 24, ptr %i2, align 8, !dbg !1378
  store i64 8, ptr %i, align 8, !dbg !1389
  %i3 = getelementptr inbounds { i64, i64 }, ptr %layout, i32 0, i32 1, !dbg !1394
  store i64 24, ptr %i3, align 8, !dbg !1394
  store i64 8, ptr %layout, align 8, !dbg !1394
  br label %bb1

bb1:                                              ; preds = %start
  store ptr %self.0.val, ptr %self1, align 8, !dbg !1401
  store ptr %self.0.val, ptr %unique, align 8, !dbg !1415
  store ptr %self.0.val, ptr %_9, align 8, !dbg !1423
  call fastcc void @"_ZN63_$LT$alloc..alloc..Global$u20$as$u20$core..alloc..Allocator$GT$10deallocate17haf021917e5b963cbE"(ptr %self.0.val, i64 8, i64 24) #30, !dbg !1431
  br label %bb4, !dbg !1432

bb4:                                              ; preds = %bb1
  ret void, !dbg !1433
}

; Function Attrs: nounwind
define internal fastcc void @"_ZN4core3ptr118drop_in_place$LT$alloc..boxed..Box$LT$dyn$u20$core..error..Error$u2b$core..marker..Send$u2b$core..marker..Sync$GT$$GT$17h25b4e1f3dd945d73E"(ptr nocapture readonly align 8 %_1) unnamed_addr #3 !dbg !1434 {
start:
  %_6.0 = load ptr, ptr %_1, align 8, !dbg !1435, !noundef !15
  %i = getelementptr inbounds { ptr, ptr }, ptr %_1, i32 0, i32 1, !dbg !1435
  %_6.1 = load ptr, ptr %i, align 8, !dbg !1435, !nonnull !15, !align !195, !noundef !15
  %i1 = load ptr, ptr %_6.1, align 8, !dbg !1435, !invariant.load !15, !nonnull !15
  call void %i1(ptr align 1 %_6.0) #30, !dbg !1435
  %_1.val = load ptr, ptr %_1, align 8, !dbg !1435, !nonnull !15, !noundef !15
  %0 = getelementptr i8, ptr %_1, i64 8, !dbg !1435
  %_1.val2 = load ptr, ptr %0, align 8, !dbg !1435, !nonnull !15, !align !195, !noundef !15
  call fastcc void @"_ZN72_$LT$alloc..boxed..Box$LT$T$C$A$GT$$u20$as$u20$core..ops..drop..Drop$GT$4drop17h6b4660690f6ce654E"(ptr %_1.val, ptr %_1.val2) #30, !dbg !1435
  ret void, !dbg !1435
}

; Function Attrs: inlinehint mustprogress nofree norecurse nosync nounwind willreturn memory(none)
define internal fastcc i8 @_ZN3std2io5error14repr_bitpacked14kind_from_prim17h21bc352ed7be828eE(i32 %arg) unnamed_addr #4 !dbg !1436 {
start:
  %_0 = alloca i8, align 1
  %ek = alloca i32, align 4
  store i32 %arg, ptr %ek, align 4
  %i = icmp ne i32 %arg, 0, !dbg !1437
  br i1 %i, label %bb2, label %Flow162, !dbg !1437

Flow162:                                          ; preds = %Flow161, %start
  %0 = phi i8 [ %41, %Flow161 ], [ undef, %start ]
  %1 = phi i1 [ false, %Flow161 ], [ true, %start ], !dbg !1437
  br i1 %1, label %bb1, label %bb83, !dbg !1437

bb1:                                              ; preds = %Flow162
  store i8 0, ptr %_0, align 1, !dbg !1438
  br label %bb83, !dbg !1437

bb2:                                              ; preds = %start
  %i41 = icmp ne i32 %arg, 1, !dbg !1437
  br i1 %i41, label %bb4, label %Flow160, !dbg !1437

Flow83:                                           ; preds = %bb81, %Flow
  %2 = phi i8 [ 40, %bb81 ], [ 41, %Flow ]
  br label %Flow84, !dbg !1437

Flow85:                                           ; preds = %bb79, %Flow84
  %3 = phi i8 [ 38, %bb79 ], [ %118, %Flow84 ]
  br label %Flow86, !dbg !1437

Flow87:                                           ; preds = %bb77, %Flow86
  %4 = phi i8 [ 36, %bb77 ], [ %116, %Flow86 ]
  br label %Flow88, !dbg !1437

Flow89:                                           ; preds = %bb75, %Flow88
  %5 = phi i8 [ 37, %bb75 ], [ %114, %Flow88 ]
  br label %Flow90, !dbg !1437

Flow91:                                           ; preds = %bb73, %Flow90
  %6 = phi i8 [ 39, %bb73 ], [ %112, %Flow90 ]
  br label %Flow92, !dbg !1437

Flow93:                                           ; preds = %bb71, %Flow92
  %7 = phi i8 [ 35, %bb71 ], [ %110, %Flow92 ]
  br label %Flow94, !dbg !1437

Flow95:                                           ; preds = %bb69, %Flow94
  %8 = phi i8 [ 34, %bb69 ], [ %108, %Flow94 ]
  br label %Flow96, !dbg !1437

Flow97:                                           ; preds = %bb67, %Flow96
  %9 = phi i8 [ 33, %bb67 ], [ %106, %Flow96 ]
  br label %Flow98, !dbg !1437

Flow99:                                           ; preds = %bb65, %Flow98
  %10 = phi i8 [ 32, %bb65 ], [ %104, %Flow98 ]
  br label %Flow100, !dbg !1437

Flow101:                                          ; preds = %bb63, %Flow100
  %11 = phi i8 [ 31, %bb63 ], [ %102, %Flow100 ]
  br label %Flow102, !dbg !1437

Flow103:                                          ; preds = %bb61, %Flow102
  %12 = phi i8 [ 30, %bb61 ], [ %100, %Flow102 ]
  br label %Flow104, !dbg !1437

Flow105:                                          ; preds = %bb59, %Flow104
  %13 = phi i8 [ 29, %bb59 ], [ %98, %Flow104 ]
  br label %Flow106, !dbg !1437

Flow107:                                          ; preds = %bb57, %Flow106
  %14 = phi i8 [ 28, %bb57 ], [ %96, %Flow106 ]
  br label %Flow108, !dbg !1437

Flow109:                                          ; preds = %bb55, %Flow108
  %15 = phi i8 [ 27, %bb55 ], [ %94, %Flow108 ]
  br label %Flow110, !dbg !1437

Flow111:                                          ; preds = %bb53, %Flow110
  %16 = phi i8 [ 26, %bb53 ], [ %92, %Flow110 ]
  br label %Flow112, !dbg !1437

Flow113:                                          ; preds = %bb51, %Flow112
  %17 = phi i8 [ 25, %bb51 ], [ %90, %Flow112 ]
  br label %Flow114, !dbg !1437

Flow115:                                          ; preds = %bb49, %Flow114
  %18 = phi i8 [ 24, %bb49 ], [ %88, %Flow114 ]
  br label %Flow116, !dbg !1437

Flow117:                                          ; preds = %bb47, %Flow116
  %19 = phi i8 [ 23, %bb47 ], [ %86, %Flow116 ]
  br label %Flow118, !dbg !1437

Flow119:                                          ; preds = %bb45, %Flow118
  %20 = phi i8 [ 22, %bb45 ], [ %84, %Flow118 ]
  br label %Flow120, !dbg !1437

Flow121:                                          ; preds = %bb43, %Flow120
  %21 = phi i8 [ 21, %bb43 ], [ %82, %Flow120 ]
  br label %Flow122, !dbg !1437

Flow123:                                          ; preds = %bb41, %Flow122
  %22 = phi i8 [ 20, %bb41 ], [ %80, %Flow122 ]
  br label %Flow124, !dbg !1437

Flow125:                                          ; preds = %bb39, %Flow124
  %23 = phi i8 [ 19, %bb39 ], [ %78, %Flow124 ]
  br label %Flow126, !dbg !1437

Flow127:                                          ; preds = %bb37, %Flow126
  %24 = phi i8 [ 18, %bb37 ], [ %76, %Flow126 ]
  br label %Flow128, !dbg !1437

Flow129:                                          ; preds = %bb35, %Flow128
  %25 = phi i8 [ 17, %bb35 ], [ %74, %Flow128 ]
  br label %Flow130, !dbg !1437

Flow131:                                          ; preds = %bb33, %Flow130
  %26 = phi i8 [ 16, %bb33 ], [ %72, %Flow130 ]
  br label %Flow132, !dbg !1437

Flow133:                                          ; preds = %bb31, %Flow132
  %27 = phi i8 [ 15, %bb31 ], [ %70, %Flow132 ]
  br label %Flow134, !dbg !1437

Flow135:                                          ; preds = %bb29, %Flow134
  %28 = phi i8 [ 14, %bb29 ], [ %68, %Flow134 ]
  br label %Flow136, !dbg !1437

Flow137:                                          ; preds = %bb27, %Flow136
  %29 = phi i8 [ 13, %bb27 ], [ %66, %Flow136 ]
  br label %Flow138, !dbg !1437

Flow139:                                          ; preds = %bb25, %Flow138
  %30 = phi i8 [ 12, %bb25 ], [ %64, %Flow138 ]
  br label %Flow140, !dbg !1437

Flow141:                                          ; preds = %bb23, %Flow140
  %31 = phi i8 [ 11, %bb23 ], [ %62, %Flow140 ]
  br label %Flow142, !dbg !1437

Flow143:                                          ; preds = %bb21, %Flow142
  %32 = phi i8 [ 10, %bb21 ], [ %60, %Flow142 ]
  br label %Flow144, !dbg !1437

Flow145:                                          ; preds = %bb19, %Flow144
  %33 = phi i8 [ 9, %bb19 ], [ %58, %Flow144 ]
  br label %Flow146, !dbg !1437

Flow147:                                          ; preds = %bb17, %Flow146
  %34 = phi i8 [ 8, %bb17 ], [ %56, %Flow146 ]
  br label %Flow148, !dbg !1437

Flow149:                                          ; preds = %bb15, %Flow148
  %35 = phi i8 [ 7, %bb15 ], [ %54, %Flow148 ]
  br label %Flow150, !dbg !1437

Flow151:                                          ; preds = %bb13, %Flow150
  %36 = phi i8 [ 6, %bb13 ], [ %52, %Flow150 ]
  br label %Flow152, !dbg !1437

Flow153:                                          ; preds = %bb11, %Flow152
  %37 = phi i8 [ 5, %bb11 ], [ %50, %Flow152 ]
  br label %Flow154, !dbg !1437

Flow155:                                          ; preds = %bb9, %Flow154
  %38 = phi i8 [ 4, %bb9 ], [ %48, %Flow154 ]
  br label %Flow156, !dbg !1437

Flow157:                                          ; preds = %bb7, %Flow156
  %39 = phi i8 [ 3, %bb7 ], [ %46, %Flow156 ]
  br label %Flow158, !dbg !1437

Flow159:                                          ; preds = %bb5, %Flow158
  %40 = phi i8 [ 2, %bb5 ], [ %44, %Flow158 ]
  br label %Flow160, !dbg !1437

Flow161:                                          ; preds = %bb3, %Flow160
  %41 = phi i8 [ 1, %bb3 ], [ %42, %Flow160 ]
  br label %Flow162, !dbg !1437

bb83:                                             ; preds = %bb1, %Flow162
  %i42 = phi i8 [ %0, %Flow162 ], [ 0, %bb1 ], !dbg !1440
  ret i8 %i42, !dbg !1440

Flow160:                                          ; preds = %Flow159, %bb2
  %42 = phi i8 [ %40, %Flow159 ], [ undef, %bb2 ]
  %43 = phi i1 [ false, %Flow159 ], [ true, %bb2 ], !dbg !1437
  br i1 %43, label %bb3, label %Flow161, !dbg !1437

bb3:                                              ; preds = %Flow160
  store i8 1, ptr %_0, align 1, !dbg !1441
  br label %Flow161, !dbg !1437

bb4:                                              ; preds = %bb2
  %i43 = icmp ne i32 %arg, 2, !dbg !1437
  br i1 %i43, label %bb6, label %Flow158, !dbg !1437

Flow158:                                          ; preds = %bb4, %Flow157
  %44 = phi i8 [ %39, %Flow157 ], [ undef, %bb4 ]
  %45 = phi i1 [ false, %Flow157 ], [ true, %bb4 ], !dbg !1437
  br i1 %45, label %bb5, label %Flow159, !dbg !1437

bb5:                                              ; preds = %Flow158
  store i8 2, ptr %_0, align 1, !dbg !1443
  br label %Flow159, !dbg !1437

bb6:                                              ; preds = %bb4
  %i44 = icmp ne i32 %arg, 3, !dbg !1437
  br i1 %i44, label %bb8, label %Flow156, !dbg !1437

Flow156:                                          ; preds = %bb6, %Flow155
  %46 = phi i8 [ %38, %Flow155 ], [ undef, %bb6 ]
  %47 = phi i1 [ false, %Flow155 ], [ true, %bb6 ], !dbg !1437
  br i1 %47, label %bb7, label %Flow157, !dbg !1437

bb7:                                              ; preds = %Flow156
  store i8 3, ptr %_0, align 1, !dbg !1445
  br label %Flow157, !dbg !1437

bb8:                                              ; preds = %bb6
  %i45 = icmp ne i32 %arg, 4, !dbg !1437
  br i1 %i45, label %bb10, label %Flow154, !dbg !1437

Flow154:                                          ; preds = %bb8, %Flow153
  %48 = phi i8 [ %37, %Flow153 ], [ undef, %bb8 ]
  %49 = phi i1 [ false, %Flow153 ], [ true, %bb8 ], !dbg !1437
  br i1 %49, label %bb9, label %Flow155, !dbg !1437

bb9:                                              ; preds = %Flow154
  store i8 4, ptr %_0, align 1, !dbg !1447
  br label %Flow155, !dbg !1437

bb10:                                             ; preds = %bb8
  %i46 = icmp ne i32 %arg, 5, !dbg !1437
  br i1 %i46, label %bb12, label %Flow152, !dbg !1437

Flow152:                                          ; preds = %bb10, %Flow151
  %50 = phi i8 [ %36, %Flow151 ], [ undef, %bb10 ]
  %51 = phi i1 [ false, %Flow151 ], [ true, %bb10 ], !dbg !1437
  br i1 %51, label %bb11, label %Flow153, !dbg !1437

bb11:                                             ; preds = %Flow152
  store i8 5, ptr %_0, align 1, !dbg !1449
  br label %Flow153, !dbg !1437

bb12:                                             ; preds = %bb10
  %i47 = icmp ne i32 %arg, 6, !dbg !1437
  br i1 %i47, label %bb14, label %Flow150, !dbg !1437

Flow150:                                          ; preds = %bb12, %Flow149
  %52 = phi i8 [ %35, %Flow149 ], [ undef, %bb12 ]
  %53 = phi i1 [ false, %Flow149 ], [ true, %bb12 ], !dbg !1437
  br i1 %53, label %bb13, label %Flow151, !dbg !1437

bb13:                                             ; preds = %Flow150
  store i8 6, ptr %_0, align 1, !dbg !1451
  br label %Flow151, !dbg !1437

bb14:                                             ; preds = %bb12
  %i48 = icmp ne i32 %arg, 7, !dbg !1437
  br i1 %i48, label %bb16, label %Flow148, !dbg !1437

Flow148:                                          ; preds = %bb14, %Flow147
  %54 = phi i8 [ %34, %Flow147 ], [ undef, %bb14 ]
  %55 = phi i1 [ false, %Flow147 ], [ true, %bb14 ], !dbg !1437
  br i1 %55, label %bb15, label %Flow149, !dbg !1437

bb15:                                             ; preds = %Flow148
  store i8 7, ptr %_0, align 1, !dbg !1453
  br label %Flow149, !dbg !1437

bb16:                                             ; preds = %bb14
  %i49 = icmp ne i32 %arg, 8, !dbg !1437
  br i1 %i49, label %bb18, label %Flow146, !dbg !1437

Flow146:                                          ; preds = %bb16, %Flow145
  %56 = phi i8 [ %33, %Flow145 ], [ undef, %bb16 ]
  %57 = phi i1 [ false, %Flow145 ], [ true, %bb16 ], !dbg !1437
  br i1 %57, label %bb17, label %Flow147, !dbg !1437

bb17:                                             ; preds = %Flow146
  store i8 8, ptr %_0, align 1, !dbg !1455
  br label %Flow147, !dbg !1437

bb18:                                             ; preds = %bb16
  %i50 = icmp ne i32 %arg, 9, !dbg !1437
  br i1 %i50, label %bb20, label %Flow144, !dbg !1437

Flow144:                                          ; preds = %bb18, %Flow143
  %58 = phi i8 [ %32, %Flow143 ], [ undef, %bb18 ]
  %59 = phi i1 [ false, %Flow143 ], [ true, %bb18 ], !dbg !1437
  br i1 %59, label %bb19, label %Flow145, !dbg !1437

bb19:                                             ; preds = %Flow144
  store i8 9, ptr %_0, align 1, !dbg !1457
  br label %Flow145, !dbg !1437

bb20:                                             ; preds = %bb18
  %i51 = icmp ne i32 %arg, 10, !dbg !1437
  br i1 %i51, label %bb22, label %Flow142, !dbg !1437

Flow142:                                          ; preds = %bb20, %Flow141
  %60 = phi i8 [ %31, %Flow141 ], [ undef, %bb20 ]
  %61 = phi i1 [ false, %Flow141 ], [ true, %bb20 ], !dbg !1437
  br i1 %61, label %bb21, label %Flow143, !dbg !1437

bb21:                                             ; preds = %Flow142
  store i8 10, ptr %_0, align 1, !dbg !1459
  br label %Flow143, !dbg !1437

bb22:                                             ; preds = %bb20
  %i52 = icmp ne i32 %arg, 11, !dbg !1437
  br i1 %i52, label %bb24, label %Flow140, !dbg !1437

Flow140:                                          ; preds = %bb22, %Flow139
  %62 = phi i8 [ %30, %Flow139 ], [ undef, %bb22 ]
  %63 = phi i1 [ false, %Flow139 ], [ true, %bb22 ], !dbg !1437
  br i1 %63, label %bb23, label %Flow141, !dbg !1437

bb23:                                             ; preds = %Flow140
  store i8 11, ptr %_0, align 1, !dbg !1461
  br label %Flow141, !dbg !1437

bb24:                                             ; preds = %bb22
  %i53 = icmp ne i32 %arg, 12, !dbg !1437
  br i1 %i53, label %bb26, label %Flow138, !dbg !1437

Flow138:                                          ; preds = %bb24, %Flow137
  %64 = phi i8 [ %29, %Flow137 ], [ undef, %bb24 ]
  %65 = phi i1 [ false, %Flow137 ], [ true, %bb24 ], !dbg !1437
  br i1 %65, label %bb25, label %Flow139, !dbg !1437

bb25:                                             ; preds = %Flow138
  store i8 12, ptr %_0, align 1, !dbg !1463
  br label %Flow139, !dbg !1437

bb26:                                             ; preds = %bb24
  %i54 = icmp ne i32 %arg, 13, !dbg !1437
  br i1 %i54, label %bb28, label %Flow136, !dbg !1437

Flow136:                                          ; preds = %bb26, %Flow135
  %66 = phi i8 [ %28, %Flow135 ], [ undef, %bb26 ]
  %67 = phi i1 [ false, %Flow135 ], [ true, %bb26 ], !dbg !1437
  br i1 %67, label %bb27, label %Flow137, !dbg !1437

bb27:                                             ; preds = %Flow136
  store i8 13, ptr %_0, align 1, !dbg !1465
  br label %Flow137, !dbg !1437

bb28:                                             ; preds = %bb26
  %i55 = icmp ne i32 %arg, 14, !dbg !1437
  br i1 %i55, label %bb30, label %Flow134, !dbg !1437

Flow134:                                          ; preds = %bb28, %Flow133
  %68 = phi i8 [ %27, %Flow133 ], [ undef, %bb28 ]
  %69 = phi i1 [ false, %Flow133 ], [ true, %bb28 ], !dbg !1437
  br i1 %69, label %bb29, label %Flow135, !dbg !1437

bb29:                                             ; preds = %Flow134
  store i8 14, ptr %_0, align 1, !dbg !1467
  br label %Flow135, !dbg !1437

bb30:                                             ; preds = %bb28
  %i56 = icmp ne i32 %arg, 15, !dbg !1437
  br i1 %i56, label %bb32, label %Flow132, !dbg !1437

Flow132:                                          ; preds = %bb30, %Flow131
  %70 = phi i8 [ %26, %Flow131 ], [ undef, %bb30 ]
  %71 = phi i1 [ false, %Flow131 ], [ true, %bb30 ], !dbg !1437
  br i1 %71, label %bb31, label %Flow133, !dbg !1437

bb31:                                             ; preds = %Flow132
  store i8 15, ptr %_0, align 1, !dbg !1469
  br label %Flow133, !dbg !1437

bb32:                                             ; preds = %bb30
  %i57 = icmp ne i32 %arg, 16, !dbg !1437
  br i1 %i57, label %bb34, label %Flow130, !dbg !1437

Flow130:                                          ; preds = %bb32, %Flow129
  %72 = phi i8 [ %25, %Flow129 ], [ undef, %bb32 ]
  %73 = phi i1 [ false, %Flow129 ], [ true, %bb32 ], !dbg !1437
  br i1 %73, label %bb33, label %Flow131, !dbg !1437

bb33:                                             ; preds = %Flow130
  store i8 16, ptr %_0, align 1, !dbg !1471
  br label %Flow131, !dbg !1437

bb34:                                             ; preds = %bb32
  %i58 = icmp ne i32 %arg, 17, !dbg !1437
  br i1 %i58, label %bb36, label %Flow128, !dbg !1437

Flow128:                                          ; preds = %bb34, %Flow127
  %74 = phi i8 [ %24, %Flow127 ], [ undef, %bb34 ]
  %75 = phi i1 [ false, %Flow127 ], [ true, %bb34 ], !dbg !1437
  br i1 %75, label %bb35, label %Flow129, !dbg !1437

bb35:                                             ; preds = %Flow128
  store i8 17, ptr %_0, align 1, !dbg !1473
  br label %Flow129, !dbg !1437

bb36:                                             ; preds = %bb34
  %i59 = icmp ne i32 %arg, 18, !dbg !1437
  br i1 %i59, label %bb38, label %Flow126, !dbg !1437

Flow126:                                          ; preds = %bb36, %Flow125
  %76 = phi i8 [ %23, %Flow125 ], [ undef, %bb36 ]
  %77 = phi i1 [ false, %Flow125 ], [ true, %bb36 ], !dbg !1437
  br i1 %77, label %bb37, label %Flow127, !dbg !1437

bb37:                                             ; preds = %Flow126
  store i8 18, ptr %_0, align 1, !dbg !1475
  br label %Flow127, !dbg !1437

bb38:                                             ; preds = %bb36
  %i60 = icmp ne i32 %arg, 19, !dbg !1437
  br i1 %i60, label %bb40, label %Flow124, !dbg !1437

Flow124:                                          ; preds = %bb38, %Flow123
  %78 = phi i8 [ %22, %Flow123 ], [ undef, %bb38 ]
  %79 = phi i1 [ false, %Flow123 ], [ true, %bb38 ], !dbg !1437
  br i1 %79, label %bb39, label %Flow125, !dbg !1437

bb39:                                             ; preds = %Flow124
  store i8 19, ptr %_0, align 1, !dbg !1477
  br label %Flow125, !dbg !1437

bb40:                                             ; preds = %bb38
  %i61 = icmp ne i32 %arg, 20, !dbg !1437
  br i1 %i61, label %bb42, label %Flow122, !dbg !1437

Flow122:                                          ; preds = %bb40, %Flow121
  %80 = phi i8 [ %21, %Flow121 ], [ undef, %bb40 ]
  %81 = phi i1 [ false, %Flow121 ], [ true, %bb40 ], !dbg !1437
  br i1 %81, label %bb41, label %Flow123, !dbg !1437

bb41:                                             ; preds = %Flow122
  store i8 20, ptr %_0, align 1, !dbg !1479
  br label %Flow123, !dbg !1437

bb42:                                             ; preds = %bb40
  %i62 = icmp ne i32 %arg, 21, !dbg !1437
  br i1 %i62, label %bb44, label %Flow120, !dbg !1437

Flow120:                                          ; preds = %bb42, %Flow119
  %82 = phi i8 [ %20, %Flow119 ], [ undef, %bb42 ]
  %83 = phi i1 [ false, %Flow119 ], [ true, %bb42 ], !dbg !1437
  br i1 %83, label %bb43, label %Flow121, !dbg !1437

bb43:                                             ; preds = %Flow120
  store i8 21, ptr %_0, align 1, !dbg !1481
  br label %Flow121, !dbg !1437

bb44:                                             ; preds = %bb42
  %i63 = icmp ne i32 %arg, 22, !dbg !1437
  br i1 %i63, label %bb46, label %Flow118, !dbg !1437

Flow118:                                          ; preds = %bb44, %Flow117
  %84 = phi i8 [ %19, %Flow117 ], [ undef, %bb44 ]
  %85 = phi i1 [ false, %Flow117 ], [ true, %bb44 ], !dbg !1437
  br i1 %85, label %bb45, label %Flow119, !dbg !1437

bb45:                                             ; preds = %Flow118
  store i8 22, ptr %_0, align 1, !dbg !1483
  br label %Flow119, !dbg !1437

bb46:                                             ; preds = %bb44
  %i64 = icmp ne i32 %arg, 23, !dbg !1437
  br i1 %i64, label %bb48, label %Flow116, !dbg !1437

Flow116:                                          ; preds = %bb46, %Flow115
  %86 = phi i8 [ %18, %Flow115 ], [ undef, %bb46 ]
  %87 = phi i1 [ false, %Flow115 ], [ true, %bb46 ], !dbg !1437
  br i1 %87, label %bb47, label %Flow117, !dbg !1437

bb47:                                             ; preds = %Flow116
  store i8 23, ptr %_0, align 1, !dbg !1485
  br label %Flow117, !dbg !1437

bb48:                                             ; preds = %bb46
  %i65 = icmp ne i32 %arg, 24, !dbg !1437
  br i1 %i65, label %bb50, label %Flow114, !dbg !1437

Flow114:                                          ; preds = %bb48, %Flow113
  %88 = phi i8 [ %17, %Flow113 ], [ undef, %bb48 ]
  %89 = phi i1 [ false, %Flow113 ], [ true, %bb48 ], !dbg !1437
  br i1 %89, label %bb49, label %Flow115, !dbg !1437

bb49:                                             ; preds = %Flow114
  store i8 24, ptr %_0, align 1, !dbg !1487
  br label %Flow115, !dbg !1437

bb50:                                             ; preds = %bb48
  %i66 = icmp ne i32 %arg, 25, !dbg !1437
  br i1 %i66, label %bb52, label %Flow112, !dbg !1437

Flow112:                                          ; preds = %bb50, %Flow111
  %90 = phi i8 [ %16, %Flow111 ], [ undef, %bb50 ]
  %91 = phi i1 [ false, %Flow111 ], [ true, %bb50 ], !dbg !1437
  br i1 %91, label %bb51, label %Flow113, !dbg !1437

bb51:                                             ; preds = %Flow112
  store i8 25, ptr %_0, align 1, !dbg !1489
  br label %Flow113, !dbg !1437

bb52:                                             ; preds = %bb50
  %i67 = icmp ne i32 %arg, 26, !dbg !1437
  br i1 %i67, label %bb54, label %Flow110, !dbg !1437

Flow110:                                          ; preds = %bb52, %Flow109
  %92 = phi i8 [ %15, %Flow109 ], [ undef, %bb52 ]
  %93 = phi i1 [ false, %Flow109 ], [ true, %bb52 ], !dbg !1437
  br i1 %93, label %bb53, label %Flow111, !dbg !1437

bb53:                                             ; preds = %Flow110
  store i8 26, ptr %_0, align 1, !dbg !1491
  br label %Flow111, !dbg !1437

bb54:                                             ; preds = %bb52
  %i68 = icmp ne i32 %arg, 27, !dbg !1437
  br i1 %i68, label %bb56, label %Flow108, !dbg !1437

Flow108:                                          ; preds = %bb54, %Flow107
  %94 = phi i8 [ %14, %Flow107 ], [ undef, %bb54 ]
  %95 = phi i1 [ false, %Flow107 ], [ true, %bb54 ], !dbg !1437
  br i1 %95, label %bb55, label %Flow109, !dbg !1437

bb55:                                             ; preds = %Flow108
  store i8 27, ptr %_0, align 1, !dbg !1493
  br label %Flow109, !dbg !1437

bb56:                                             ; preds = %bb54
  %i69 = icmp ne i32 %arg, 28, !dbg !1437
  br i1 %i69, label %bb58, label %Flow106, !dbg !1437

Flow106:                                          ; preds = %bb56, %Flow105
  %96 = phi i8 [ %13, %Flow105 ], [ undef, %bb56 ]
  %97 = phi i1 [ false, %Flow105 ], [ true, %bb56 ], !dbg !1437
  br i1 %97, label %bb57, label %Flow107, !dbg !1437

bb57:                                             ; preds = %Flow106
  store i8 28, ptr %_0, align 1, !dbg !1495
  br label %Flow107, !dbg !1437

bb58:                                             ; preds = %bb56
  %i70 = icmp ne i32 %arg, 29, !dbg !1437
  br i1 %i70, label %bb60, label %Flow104, !dbg !1437

Flow104:                                          ; preds = %bb58, %Flow103
  %98 = phi i8 [ %12, %Flow103 ], [ undef, %bb58 ]
  %99 = phi i1 [ false, %Flow103 ], [ true, %bb58 ], !dbg !1437
  br i1 %99, label %bb59, label %Flow105, !dbg !1437

bb59:                                             ; preds = %Flow104
  store i8 29, ptr %_0, align 1, !dbg !1497
  br label %Flow105, !dbg !1437

bb60:                                             ; preds = %bb58
  %i71 = icmp ne i32 %arg, 30, !dbg !1437
  br i1 %i71, label %bb62, label %Flow102, !dbg !1437

Flow102:                                          ; preds = %bb60, %Flow101
  %100 = phi i8 [ %11, %Flow101 ], [ undef, %bb60 ]
  %101 = phi i1 [ false, %Flow101 ], [ true, %bb60 ], !dbg !1437
  br i1 %101, label %bb61, label %Flow103, !dbg !1437

bb61:                                             ; preds = %Flow102
  store i8 30, ptr %_0, align 1, !dbg !1499
  br label %Flow103, !dbg !1437

bb62:                                             ; preds = %bb60
  %i72 = icmp ne i32 %arg, 31, !dbg !1437
  br i1 %i72, label %bb64, label %Flow100, !dbg !1437

Flow100:                                          ; preds = %bb62, %Flow99
  %102 = phi i8 [ %10, %Flow99 ], [ undef, %bb62 ]
  %103 = phi i1 [ false, %Flow99 ], [ true, %bb62 ], !dbg !1437
  br i1 %103, label %bb63, label %Flow101, !dbg !1437

bb63:                                             ; preds = %Flow100
  store i8 31, ptr %_0, align 1, !dbg !1501
  br label %Flow101, !dbg !1437

bb64:                                             ; preds = %bb62
  %i73 = icmp ne i32 %arg, 32, !dbg !1437
  br i1 %i73, label %bb66, label %Flow98, !dbg !1437

Flow98:                                           ; preds = %bb64, %Flow97
  %104 = phi i8 [ %9, %Flow97 ], [ undef, %bb64 ]
  %105 = phi i1 [ false, %Flow97 ], [ true, %bb64 ], !dbg !1437
  br i1 %105, label %bb65, label %Flow99, !dbg !1437

bb65:                                             ; preds = %Flow98
  store i8 32, ptr %_0, align 1, !dbg !1503
  br label %Flow99, !dbg !1437

bb66:                                             ; preds = %bb64
  %i74 = icmp ne i32 %arg, 33, !dbg !1437
  br i1 %i74, label %bb68, label %Flow96, !dbg !1437

Flow96:                                           ; preds = %bb66, %Flow95
  %106 = phi i8 [ %8, %Flow95 ], [ undef, %bb66 ]
  %107 = phi i1 [ false, %Flow95 ], [ true, %bb66 ], !dbg !1437
  br i1 %107, label %bb67, label %Flow97, !dbg !1437

bb67:                                             ; preds = %Flow96
  store i8 33, ptr %_0, align 1, !dbg !1505
  br label %Flow97, !dbg !1437

bb68:                                             ; preds = %bb66
  %i75 = icmp ne i32 %arg, 34, !dbg !1437
  br i1 %i75, label %bb70, label %Flow94, !dbg !1437

Flow94:                                           ; preds = %bb68, %Flow93
  %108 = phi i8 [ %7, %Flow93 ], [ undef, %bb68 ]
  %109 = phi i1 [ false, %Flow93 ], [ true, %bb68 ], !dbg !1437
  br i1 %109, label %bb69, label %Flow95, !dbg !1437

bb69:                                             ; preds = %Flow94
  store i8 34, ptr %_0, align 1, !dbg !1507
  br label %Flow95, !dbg !1437

bb70:                                             ; preds = %bb68
  %i76 = icmp ne i32 %arg, 35, !dbg !1437
  br i1 %i76, label %bb72, label %Flow92, !dbg !1437

Flow92:                                           ; preds = %bb70, %Flow91
  %110 = phi i8 [ %6, %Flow91 ], [ undef, %bb70 ]
  %111 = phi i1 [ false, %Flow91 ], [ true, %bb70 ], !dbg !1437
  br i1 %111, label %bb71, label %Flow93, !dbg !1437

bb71:                                             ; preds = %Flow92
  store i8 35, ptr %_0, align 1, !dbg !1509
  br label %Flow93, !dbg !1437

bb72:                                             ; preds = %bb70
  %i77 = icmp ne i32 %arg, 39, !dbg !1437
  br i1 %i77, label %bb74, label %Flow90, !dbg !1437

Flow90:                                           ; preds = %bb72, %Flow89
  %112 = phi i8 [ %5, %Flow89 ], [ undef, %bb72 ]
  %113 = phi i1 [ false, %Flow89 ], [ true, %bb72 ], !dbg !1437
  br i1 %113, label %bb73, label %Flow91, !dbg !1437

bb73:                                             ; preds = %Flow90
  store i8 39, ptr %_0, align 1, !dbg !1511
  br label %Flow91, !dbg !1437

bb74:                                             ; preds = %bb72
  %i78 = icmp ne i32 %arg, 37, !dbg !1437
  br i1 %i78, label %bb76, label %Flow88, !dbg !1437

Flow88:                                           ; preds = %bb74, %Flow87
  %114 = phi i8 [ %4, %Flow87 ], [ undef, %bb74 ]
  %115 = phi i1 [ false, %Flow87 ], [ true, %bb74 ], !dbg !1437
  br i1 %115, label %bb75, label %Flow89, !dbg !1437

bb75:                                             ; preds = %Flow88
  store i8 37, ptr %_0, align 1, !dbg !1513
  br label %Flow89, !dbg !1437

bb76:                                             ; preds = %bb74
  %i79 = icmp ne i32 %arg, 36, !dbg !1437
  br i1 %i79, label %bb78, label %Flow86, !dbg !1437

Flow86:                                           ; preds = %bb76, %Flow85
  %116 = phi i8 [ %3, %Flow85 ], [ undef, %bb76 ]
  %117 = phi i1 [ false, %Flow85 ], [ true, %bb76 ], !dbg !1437
  br i1 %117, label %bb77, label %Flow87, !dbg !1437

bb77:                                             ; preds = %Flow86
  store i8 36, ptr %_0, align 1, !dbg !1515
  br label %Flow87, !dbg !1437

bb78:                                             ; preds = %bb76
  %i80 = icmp ne i32 %arg, 38, !dbg !1437
  br i1 %i80, label %bb80, label %Flow84, !dbg !1437

Flow84:                                           ; preds = %bb78, %Flow83
  %118 = phi i8 [ %2, %Flow83 ], [ undef, %bb78 ]
  %119 = phi i1 [ false, %Flow83 ], [ true, %bb78 ], !dbg !1437
  br i1 %119, label %bb79, label %Flow85, !dbg !1437

bb79:                                             ; preds = %Flow84
  store i8 38, ptr %_0, align 1, !dbg !1517
  br label %Flow85, !dbg !1437

bb80:                                             ; preds = %bb78
  %i81 = icmp ne i32 %arg, 40, !dbg !1437
  br i1 %i81, label %bb82, label %Flow, !dbg !1437

Flow:                                             ; preds = %bb82, %bb80
  %120 = phi i1 [ false, %bb82 ], [ true, %bb80 ], !dbg !1437
  br i1 %120, label %bb81, label %Flow83, !dbg !1437

bb81:                                             ; preds = %Flow
  store i8 40, ptr %_0, align 1, !dbg !1519
  br label %Flow83, !dbg !1437

bb82:                                             ; preds = %bb80
  store i8 41, ptr %_0, align 1, !dbg !1437
  br label %Flow, !dbg !1437
}

; Function Attrs: inlinehint mustprogress nofree norecurse nosync nounwind willreturn memory(none)
define internal fastcc align 8 ptr @"_ZN78_$LT$std..io..error..repr_bitpacked..Repr$u20$as$u20$core..ops..drop..Drop$GT$4drop28_$u7b$$u7b$closure$u7d$$u7d$17h8949d34a12c4bdf8E"(ptr returned %p) unnamed_addr #4 !dbg !1521 {
start:
  %_4 = alloca ptr, align 8
  %_3 = alloca ptr, align 8
  %_0 = alloca ptr, align 8
  store ptr %p, ptr %_4, align 8, !dbg !1523
  store ptr %p, ptr %_3, align 8, !dbg !1541
  store ptr %p, ptr %_0, align 8, !dbg !1542
  ret ptr %p, !dbg !1543
}

; Function Attrs: nounwind
declare zeroext i1 @_ZN4core3fmt5write17h30346430340bc336E(ptr align 1, ptr align 8, ptr align 8) unnamed_addr #3

; Function Attrs: nounwind
define internal void @"_ZN4core3ptr92drop_in_place$LT$std..io..Write..write_fmt..Adapter$LT$std..sys..unix..stdio..Stderr$GT$$GT$17he2ac9c719f5ba413E"(ptr nocapture readonly align 8 %_1) unnamed_addr #3 !dbg !1544 {
start:
  %i = getelementptr inbounds { ptr, ptr }, ptr %_1, i32 0, i32 1, !dbg !1545
  %i1 = load ptr, ptr %i, align 8, !dbg !1546, !noundef !15
  %i2 = ptrtoint ptr %i1 to i64, !dbg !1546
  %i3 = icmp ne i64 %i2, 0, !dbg !1546
  br i1 %i3, label %codeRepl.i, label %"_ZN4core3ptr81drop_in_place$LT$core..result..Result$LT$$LP$$RP$$C$std..io..error..Error$GT$$GT$17h53c6c180255fc9f2E.10.exit", !dbg !1546

codeRepl.i:                                       ; preds = %start
  call fastcc void @"_ZN4core3ptr81drop_in_place$LT$core..result..Result$LT$$LP$$RP$$C$std..io..error..Error$GT$$GT$17h53c6c180255fc9f2E.10.bb2"(ptr %i), !dbg !1546
  br label %"_ZN4core3ptr81drop_in_place$LT$core..result..Result$LT$$LP$$RP$$C$std..io..error..Error$GT$$GT$17h53c6c180255fc9f2E.10.exit"

"_ZN4core3ptr81drop_in_place$LT$core..result..Result$LT$$LP$$RP$$C$std..io..error..Error$GT$$GT$17h53c6c180255fc9f2E.10.exit": ; preds = %codeRepl.i, %start
  ret void, !dbg !1545
}

; Function Attrs: nounwind
define internal zeroext i1 @"_ZN80_$LT$std..io..Write..write_fmt..Adapter$LT$T$GT$$u20$as$u20$core..fmt..Write$GT$9write_str17h6f5a0ab47ca1a750E"(ptr nocapture align 8 %self, ptr align 1 %s.0, i64 %s.1) unnamed_addr #3 personality ptr @rust_eh_personality !dbg !1548 {
start:
  %_7 = alloca ptr, align 8
  %_3 = alloca ptr, align 8
  %_0 = alloca i8, align 1
  %_8 = load ptr, ptr %self, align 8, !dbg !1551, !nonnull !15, !align !194, !noundef !15
  %i = call fastcc ptr @_ZN3std2io5Write9write_all17h050d873bb900108dE(ptr align 1 %_8, ptr align 1 %s.0, i64 %s.1) #30, !dbg !1551
  store ptr %i, ptr %_3, align 8, !dbg !1551
  %i2 = ptrtoint ptr %i to i64, !dbg !1551
  %i3 = icmp ne i64 %i2, 0, !dbg !1551
  br i1 %i3, label %bb2, label %Flow, !dbg !1552

bb4:                                              ; preds = %Flow
  store i8 0, ptr %_0, align 1, !dbg !1553
  br label %bb7, !dbg !1554

bb2:                                              ; preds = %start
  store ptr %i, ptr %_7, align 8, !dbg !1555
  %i4 = getelementptr inbounds { ptr, ptr }, ptr %self, i32 0, i32 1, !dbg !1557
  %i5 = load ptr, ptr %i4, align 8, !dbg !1558, !noundef !15
  %i6 = ptrtoint ptr %i5 to i64, !dbg !1558
  %i7 = icmp ne i64 %i6, 0, !dbg !1558
  br i1 %i7, label %codeRepl.i, label %bb5, !dbg !1558

codeRepl.i:                                       ; preds = %bb2
  call fastcc void @"_ZN4core3ptr81drop_in_place$LT$core..result..Result$LT$$LP$$RP$$C$std..io..error..Error$GT$$GT$17h53c6c180255fc9f2E.10.bb2"(ptr %i4), !dbg !1558
  br label %bb5

bb7:                                              ; preds = %Flow, %bb4
  %i8 = phi i1 [ true, %Flow ], [ false, %bb4 ], !dbg !1560
  ret i1 %i8, !dbg !1560

Flow:                                             ; preds = %bb5, %start
  %0 = phi i1 [ false, %bb5 ], [ true, %start ], !dbg !1552
  br i1 %0, label %bb4, label %bb7, !dbg !1552

bb5:                                              ; preds = %codeRepl.i, %bb2
  store ptr %i, ptr %i4, align 8, !dbg !1557
  store i8 1, ptr %_0, align 1, !dbg !1561
  br label %Flow, !dbg !1562
}

; Function Attrs: nounwind
define internal zeroext i1 @_ZN4core3fmt5Write10write_char17h569d7064a238a1a4E(ptr nocapture align 8 %self, i32 %c) unnamed_addr #3 !dbg !1563 {
start:
  %_6 = alloca [4 x i8], align 1
  call void @llvm.memset.p0.i64(ptr align 1 %_6, i8 0, i64 4, i1 false), !dbg !1565
  %i = call fastcc { ptr, i64 } @_ZN4core4char7methods15encode_utf8_raw17h503ca91086c9402cE(i32 %c, ptr align 1 %_6, i64 4) #30, !dbg !1566
  %v.0 = extractvalue { ptr, i64 } %i, 0, !dbg !1566
  %v.1 = extractvalue { ptr, i64 } %i, 1, !dbg !1566
  %_0 = call zeroext i1 @"_ZN80_$LT$std..io..Write..write_fmt..Adapter$LT$T$GT$$u20$as$u20$core..fmt..Write$GT$9write_str17h6f5a0ab47ca1a750E"(ptr align 8 %self, ptr align 1 %v.0, i64 %v.1) #30, !dbg !1575
  ret i1 %_0, !dbg !1576
}

; Function Attrs: nounwind
define internal zeroext i1 @_ZN4core3fmt5Write9write_fmt17hf8566509d1da3b56E(ptr align 8 %self, ptr align 8 %args) unnamed_addr #3 !dbg !1577 {
start:
  %_0 = call fastcc zeroext i1 @"_ZN75_$LT$$RF$mut$u20$W$u20$as$u20$core..fmt..Write..write_fmt..SpecWriteFmt$GT$14spec_write_fmt17h14cba53dfd397b3eE"(ptr align 8 %self, ptr align 8 %args) #30, !dbg !1578
  ret i1 %_0, !dbg !1579
}

; Function Attrs: inlinehint nounwind
define internal fastcc zeroext i1 @"_ZN75_$LT$$RF$mut$u20$W$u20$as$u20$core..fmt..Write..write_fmt..SpecWriteFmt$GT$14spec_write_fmt17h14cba53dfd397b3eE"(ptr align 8 %self, ptr align 8 %args) unnamed_addr #5 !dbg !1580 {
start:
  %_0 = call zeroext i1 @_ZN4core3fmt5write17h30346430340bc336E(ptr align 1 %self, ptr align 8 @vtable.0, ptr align 8 %args) #30, !dbg !1583
  ret i1 %_0, !dbg !1584
}

; Function Attrs: nocallback nofree nounwind willreturn memory(argmem: write)
declare void @llvm.memset.p0.i64(ptr nocapture writeonly, i8, i64, i1 immarg) #19

; Function Attrs: inlinehint nounwind
define internal fastcc { ptr, i64 } @_ZN4core4char7methods15encode_utf8_raw17h503ca91086c9402cE(i32 %arg, ptr align 1 %dst.0, i64 %dst.1) unnamed_addr #5 !dbg !1585 {
start:
  %_85 = alloca { i64, i64 }, align 8
  %_70 = alloca i64, align 8
  %_68 = alloca { ptr, ptr }, align 8
  %_66 = alloca { ptr, ptr }, align 8
  %_64 = alloca { ptr, ptr }, align 8
  %_63 = alloca [3 x { ptr, ptr }], align 8
  %_59 = alloca %"core::fmt::Arguments<'_>", align 8
  %len = alloca i64, align 8
  %code = alloca i32, align 4
  store i32 %arg, ptr %code, align 4
  %_73 = icmp uge i32 %arg, 128, !dbg !1586
  br i1 %_73, label %bb13, label %Flow49, !dbg !1586

bb13:                                             ; preds = %start
  %_74 = icmp uge i32 %arg, 2048, !dbg !1590
  br i1 %_74, label %bb15, label %Flow47, !dbg !1590

Flow49:                                           ; preds = %Flow48, %start
  %0 = phi i64 [ %6, %Flow48 ], [ undef, %start ]
  %1 = phi i1 [ false, %Flow48 ], [ true, %start ], !dbg !1586
  br i1 %1, label %bb12, label %bb20, !dbg !1586

bb12:                                             ; preds = %Flow49
  store i64 1, ptr %len, align 8, !dbg !1591
  br label %bb20, !dbg !1592

bb15:                                             ; preds = %bb13
  %_75 = icmp uge i32 %arg, 65536, !dbg !1593
  br i1 %_75, label %bb17, label %Flow, !dbg !1593

Flow47:                                           ; preds = %Flow46, %bb13
  %2 = phi i64 [ %5, %Flow46 ], [ undef, %bb13 ]
  %3 = phi i1 [ false, %Flow46 ], [ true, %bb13 ], !dbg !1590
  br i1 %3, label %bb14, label %Flow48, !dbg !1590

bb14:                                             ; preds = %Flow47
  store i64 2, ptr %len, align 8, !dbg !1594
  br label %Flow48, !dbg !1595

bb17:                                             ; preds = %bb15
  store i64 4, ptr %len, align 8, !dbg !1596
  br label %Flow, !dbg !1597

Flow:                                             ; preds = %bb17, %bb15
  %4 = phi i1 [ false, %bb17 ], [ true, %bb15 ], !dbg !1593
  br i1 %4, label %bb16, label %Flow46, !dbg !1593

bb16:                                             ; preds = %Flow
  store i64 3, ptr %len, align 8, !dbg !1598
  br label %Flow46, !dbg !1597

Flow46:                                           ; preds = %bb16, %Flow
  %5 = phi i64 [ 3, %bb16 ], [ 4, %Flow ]
  br label %Flow47, !dbg !1593

Flow48:                                           ; preds = %bb14, %Flow47
  %6 = phi i64 [ 2, %bb14 ], [ %2, %Flow47 ]
  br label %Flow49, !dbg !1590

bb20:                                             ; preds = %bb12, %Flow49
  %index = phi i64 [ %0, %Flow49 ], [ 1, %bb12 ], !dbg !1599
  switch i64 %index, label %bb2 [
    i64 1, label %bb1
    i64 2, label %bb3
    i64 3, label %bb4
    i64 4, label %bb5
  ], !dbg !1601

bb2:                                              ; preds = %bb5, %bb4, %bb3, %bb1, %bb20
  store ptr %len, ptr %_64, align 8, !dbg !1602
  %i = getelementptr inbounds { ptr, ptr }, ptr %_64, i32 0, i32 1, !dbg !1602
  store ptr @"_ZN4core3fmt3num3imp54_$LT$impl$u20$core..fmt..Display$u20$for$u20$usize$GT$3fmt17h7ff1be1e6379c455E", ptr %i, align 8, !dbg !1602
  store ptr %code, ptr %_66, align 8, !dbg !1610
  %i8 = getelementptr inbounds { ptr, ptr }, ptr %_66, i32 0, i32 1, !dbg !1610
  store ptr @"_ZN4core3fmt3num53_$LT$impl$u20$core..fmt..UpperHex$u20$for$u20$u32$GT$3fmt17h2a2e8b4c1c811399E", ptr %i8, align 8, !dbg !1610
  store i64 %dst.1, ptr %_70, align 8, !dbg !1618
  store ptr %_70, ptr %_68, align 8, !dbg !1619
  %i9 = getelementptr inbounds { ptr, ptr }, ptr %_68, i32 0, i32 1, !dbg !1619
  store ptr @"_ZN4core3fmt3num3imp54_$LT$impl$u20$core..fmt..Display$u20$for$u20$usize$GT$3fmt17h7ff1be1e6379c455E", ptr %i9, align 8, !dbg !1619
  store ptr %len, ptr %_63, align 8, !dbg !1625
  %i13 = getelementptr inbounds { ptr, ptr }, ptr %_63, i32 0, i32 1, !dbg !1625
  store ptr @"_ZN4core3fmt3num3imp54_$LT$impl$u20$core..fmt..Display$u20$for$u20$usize$GT$3fmt17h7ff1be1e6379c455E", ptr %i13, align 8, !dbg !1625
  %i17 = getelementptr inbounds [3 x { ptr, ptr }], ptr %_63, i64 0, i64 1, !dbg !1625
  store ptr %code, ptr %i17, align 8, !dbg !1625
  %i18 = getelementptr inbounds { ptr, ptr }, ptr %i17, i32 0, i32 1, !dbg !1625
  store ptr @"_ZN4core3fmt3num53_$LT$impl$u20$core..fmt..UpperHex$u20$for$u20$u32$GT$3fmt17h2a2e8b4c1c811399E", ptr %i18, align 8, !dbg !1625
  %i22 = getelementptr inbounds [3 x { ptr, ptr }], ptr %_63, i64 0, i64 2, !dbg !1625
  store ptr %_70, ptr %i22, align 8, !dbg !1625
  %i23 = getelementptr inbounds { ptr, ptr }, ptr %i22, i32 0, i32 1, !dbg !1625
  store ptr @"_ZN4core3fmt3num3imp54_$LT$impl$u20$core..fmt..Display$u20$for$u20$usize$GT$3fmt17h7ff1be1e6379c455E", ptr %i23, align 8, !dbg !1625
  call fastcc void @_ZN4core3fmt9Arguments6new_v117hac36017d5c9434d3E(ptr noalias align 8 %_59, ptr align 8 @alloc_d51214f097f67314513b76e97e13aa6b, i64 3, ptr align 8 %_63, i64 3) #30, !dbg !1625
  call void @_ZN4core9panicking9panic_fmt17hff768cef35397791E(ptr align 8 %_59, ptr align 8 @alloc_15e56ccbce15945ea86b75a3c6d59ec8) #31, !dbg !1625
  unreachable, !dbg !1625

bb1:                                              ; preds = %bb20
  %_7 = icmp uge i64 %dst.1, 1, !dbg !1626
  br i1 %_7, label %bb6, label %bb2, !dbg !1626

bb3:                                              ; preds = %bb20
  %_9 = icmp uge i64 %dst.1, 2, !dbg !1627
  br i1 %_9, label %bb7, label %bb2, !dbg !1627

bb4:                                              ; preds = %bb20
  %_11 = icmp uge i64 %dst.1, 3, !dbg !1628
  br i1 %_11, label %bb8, label %bb2, !dbg !1628

bb5:                                              ; preds = %bb20
  %_13 = icmp uge i64 %dst.1, 4, !dbg !1629
  br i1 %_13, label %bb9, label %bb2, !dbg !1629

bb6:                                              ; preds = %bb1
  %i24 = trunc i32 %arg to i8, !dbg !1630
  store i8 %i24, ptr %dst.0, align 1, !dbg !1630
  br label %bb11, !dbg !1632

bb11:                                             ; preds = %bb9, %bb8, %bb7, %bb6
  store i64 0, ptr %_85, align 8, !dbg !1633
  %i25 = getelementptr inbounds { i64, i64 }, ptr %_85, i32 0, i32 1, !dbg !1633
  store i64 %index, ptr %i25, align 8, !dbg !1633
  %i29 = call fastcc { ptr, i64 } @"_ZN106_$LT$core..ops..range..Range$LT$usize$GT$$u20$as$u20$core..slice..index..SliceIndex$LT$$u5b$T$u5d$$GT$$GT$9index_mut17h78a07f50da98ed9cE"(i64 0, i64 %index, ptr align 1 %dst.0, i64 %dst.1, ptr align 8 @alloc_6a0114d2661e84bef3991f7200e47da8) #30, !dbg !1633
  ret { ptr, i64 } %i29, !dbg !1645

bb7:                                              ; preds = %bb3
  %_20 = lshr i32 %arg, 6, !dbg !1646
  %_19 = and i32 %_20, 31, !dbg !1648
  %_18 = trunc i32 %_19 to i8, !dbg !1648
  %i30 = or i8 %_18, -64, !dbg !1649
  store i8 %i30, ptr %dst.0, align 1, !dbg !1649
  %_23 = and i32 %arg, 63, !dbg !1650
  %_22 = trunc i32 %_23 to i8, !dbg !1650
  %i31 = getelementptr inbounds [0 x i8], ptr %dst.0, i64 0, i64 1, !dbg !1651
  %i32 = or i8 %_22, -128, !dbg !1651
  store i8 %i32, ptr %i31, align 1, !dbg !1651
  br label %bb11, !dbg !1652

bb8:                                              ; preds = %bb4
  %_30 = lshr i32 %arg, 12, !dbg !1653
  %_29 = and i32 %_30, 15, !dbg !1655
  %_28 = trunc i32 %_29 to i8, !dbg !1655
  %i33 = or i8 %_28, -32, !dbg !1656
  store i8 %i33, ptr %dst.0, align 1, !dbg !1656
  %_34 = lshr i32 %arg, 6, !dbg !1657
  %_33 = and i32 %_34, 63, !dbg !1658
  %_32 = trunc i32 %_33 to i8, !dbg !1658
  %i34 = getelementptr inbounds [0 x i8], ptr %dst.0, i64 0, i64 1, !dbg !1659
  %i35 = or i8 %_32, -128, !dbg !1659
  store i8 %i35, ptr %i34, align 1, !dbg !1659
  %_37 = and i32 %arg, 63, !dbg !1660
  %_36 = trunc i32 %_37 to i8, !dbg !1660
  %i36 = getelementptr inbounds [0 x i8], ptr %dst.0, i64 0, i64 2, !dbg !1661
  %i37 = or i8 %_36, -128, !dbg !1661
  store i8 %i37, ptr %i36, align 1, !dbg !1661
  br label %bb11, !dbg !1662

bb9:                                              ; preds = %bb5
  %_45 = lshr i32 %arg, 18, !dbg !1663
  %_44 = and i32 %_45, 7, !dbg !1665
  %_43 = trunc i32 %_44 to i8, !dbg !1665
  %i38 = or i8 %_43, -16, !dbg !1666
  store i8 %i38, ptr %dst.0, align 1, !dbg !1666
  %_49 = lshr i32 %arg, 12, !dbg !1667
  %_48 = and i32 %_49, 63, !dbg !1668
  %_47 = trunc i32 %_48 to i8, !dbg !1668
  %i39 = getelementptr inbounds [0 x i8], ptr %dst.0, i64 0, i64 1, !dbg !1669
  %i40 = or i8 %_47, -128, !dbg !1669
  store i8 %i40, ptr %i39, align 1, !dbg !1669
  %_53 = lshr i32 %arg, 6, !dbg !1670
  %_52 = and i32 %_53, 63, !dbg !1671
  %_51 = trunc i32 %_52 to i8, !dbg !1671
  %i41 = getelementptr inbounds [0 x i8], ptr %dst.0, i64 0, i64 2, !dbg !1672
  %i42 = or i8 %_51, -128, !dbg !1672
  store i8 %i42, ptr %i41, align 1, !dbg !1672
  %_56 = and i32 %arg, 63, !dbg !1673
  %_55 = trunc i32 %_56 to i8, !dbg !1673
  %i43 = getelementptr inbounds [0 x i8], ptr %dst.0, i64 0, i64 3, !dbg !1674
  %i44 = or i8 %_55, -128, !dbg !1674
  store i8 %i44, ptr %i43, align 1, !dbg !1674
  br label %bb11, !dbg !1675
}

; Function Attrs: nounwind
declare zeroext i1 @"_ZN4core3fmt3num3imp54_$LT$impl$u20$core..fmt..Display$u20$for$u20$usize$GT$3fmt17h7ff1be1e6379c455E"(ptr align 8, ptr align 8) unnamed_addr #3

; Function Attrs: nounwind
declare zeroext i1 @"_ZN4core3fmt3num53_$LT$impl$u20$core..fmt..UpperHex$u20$for$u20$u32$GT$3fmt17h2a2e8b4c1c811399E"(ptr align 4, ptr align 8) unnamed_addr #3

; Function Attrs: cold noinline noreturn nounwind
declare void @_ZN4core9panicking9panic_fmt17hff768cef35397791E(ptr align 8, ptr align 8) unnamed_addr #14

; Function Attrs: inlinehint nounwind
define internal fastcc { ptr, i64 } @"_ZN106_$LT$core..ops..range..Range$LT$usize$GT$$u20$as$u20$core..slice..index..SliceIndex$LT$$u5b$T$u5d$$GT$$GT$9index_mut17h78a07f50da98ed9cE"(i64 %self.0, i64 %self.1, ptr align 1 %slice.0, i64 %slice.1, ptr align 8 %arg) unnamed_addr #5 !dbg !1676 {
start:
  %_24 = alloca { ptr, i64 }, align 8
  %_23 = alloca %"core::ptr::metadata::PtrRepr<[u8]>", align 8
  %_3 = icmp ugt i64 %self.0, %self.1, !dbg !1678
  br i1 %_3, label %bb1, label %bb2, !dbg !1678

bb2:                                              ; preds = %start
  %_9 = icmp ugt i64 %self.1, %slice.1, !dbg !1679
  br i1 %_9, label %bb3, label %bb4, !dbg !1679

bb1:                                              ; preds = %start
  call void @_ZN4core5slice5index22slice_index_order_fail17h3236aed2d4ea8483E(i64 %self.0, i64 %self.1, ptr align 8 %arg) #31, !dbg !1680
  unreachable

bb4:                                              ; preds = %bb2
  %new_len = sub nuw i64 %self.1, %self.0, !dbg !1681
  %data = getelementptr inbounds i8, ptr %slice.0, i64 %self.0, !dbg !1687
  store ptr %data, ptr %_24, align 8, !dbg !1693
  %i = getelementptr inbounds { ptr, i64 }, ptr %_24, i32 0, i32 1, !dbg !1693
  store i64 %new_len, ptr %i, align 8, !dbg !1693
  store ptr %data, ptr %_23, align 8, !dbg !1701
  %i4 = getelementptr inbounds { ptr, i64 }, ptr %_23, i32 0, i32 1, !dbg !1701
  store i64 %new_len, ptr %i4, align 8, !dbg !1701
  %i6 = insertvalue { ptr, i64 } poison, ptr %data, 0, !dbg !1702
  %i7 = insertvalue { ptr, i64 } %i6, i64 %new_len, 1, !dbg !1702
  ret { ptr, i64 } %i7, !dbg !1702

bb3:                                              ; preds = %bb2
  call void @_ZN4core5slice5index24slice_end_index_len_fail17h9f0fa500c3890a27E(i64 %self.1, i64 %slice.1, ptr align 8 %arg) #31, !dbg !1703
  unreachable
}

; Function Attrs: cold noinline noreturn nounwind
declare void @_ZN4core5slice5index22slice_index_order_fail17h3236aed2d4ea8483E(i64, i64, ptr align 8) unnamed_addr #14

; Function Attrs: cold noinline noreturn nounwind
declare void @_ZN4core5slice5index24slice_end_index_len_fail17h9f0fa500c3890a27E(i64, i64, ptr align 8) unnamed_addr #14

; Function Attrs: nounwind
define internal fastcc ptr @_ZN3std2io5Write9write_all17h050d873bb900108dE(ptr align 1 %self, ptr align 1 %arg, i64 %arg5) unnamed_addr #3 personality ptr @rust_eh_personality !dbg !1704 {
start:
  %_41 = alloca { ptr, i64 }, align 8
  %_40 = alloca %"core::ptr::metadata::PtrRepr<[u8]>", align 8
  %_34 = alloca %"core::ptr::metadata::PtrRepr<[u8]>", align 8
  %_22 = alloca ptr, align 8
  %_21 = alloca ptr, align 8
  %e = alloca ptr, align 8
  %_7 = alloca ptr, align 8
  %_4 = alloca %"core::result::Result<usize, std::io::error::Error>", align 8
  %_0 = alloca ptr, align 8
  %buf = alloca { ptr, i64 }, align 8
  store ptr %arg, ptr %buf, align 8
  %i = getelementptr inbounds { ptr, i64 }, ptr %buf, i32 0, i32 1
  store i64 %arg5, ptr %i, align 8
  br label %bb1, !dbg !1705

bb1:                                              ; preds = %bb16, %start
  %self.12 = phi i64 [ %_5.136, %bb16 ], [ %arg5, %start ]
  %self.01 = phi ptr [ %_5.034, %bb16 ], [ %arg, %start ]
  %i7 = icmp eq i64 %self.12, 0, !dbg !1706
  br i1 %i7, label %bb2, label %bb3, !dbg !1706

bb2:                                              ; preds = %bb1
  store ptr null, ptr %_0, align 8, !dbg !1707
  br label %bb14, !dbg !1708

bb3:                                              ; preds = %bb1
  call void @"_ZN64_$LT$std..sys..unix..stdio..Stderr$u20$as$u20$std..io..Write$GT$5write17h79c4d312e595bc94E"(ptr sret(%"core::result::Result<usize, std::io::error::Error>") align 8 %_4, ptr align 1 %self, ptr align 1 %self.01, i64 %self.12) #30, !dbg !1709
  %_6 = load i64, ptr %_4, align 8, !dbg !1709, !range !860, !noundef !15
  %i9 = icmp eq i64 %_6, 0, !dbg !1710
  br i1 %i9, label %bb5, label %bb9, !dbg !1710

bb14:                                             ; preds = %bb12, %bb7, %bb2
  %i10 = phi ptr [ @alloc_626cc8bfd6c94d404aa777557e31db63, %bb7 ], [ %e4, %bb12 ], [ null, %bb2 ], !dbg !1708
  ret ptr %i10, !dbg !1708

bb5:                                              ; preds = %bb3
  %i11 = getelementptr inbounds %"core::result::Result<usize, std::io::error::Error>::Ok", ptr %_4, i32 0, i32 1, !dbg !1710
  %i12 = load i64, ptr %i11, align 8, !dbg !1710, !noundef !15
  %i13 = icmp eq i64 %i12, 0, !dbg !1710
  br i1 %i13, label %bb7, label %bb8, !dbg !1710

bb9:                                              ; preds = %bb3
  %i14 = getelementptr inbounds %"std::io::error::ErrorData<alloc::boxed::Box<std::io::error::Custom>>::Custom", ptr %_4, i32 0, i32 1, !dbg !1711
  store ptr %i14, ptr %e, align 8, !dbg !1711
  %i14.val = load ptr, ptr %i14, align 8, !dbg !1712, !nonnull !15, !noundef !15
  %_13 = call fastcc zeroext i1 @_ZN3std2io5error5Error14is_interrupted17h9c8363aa2b26d967E(ptr %i14.val) #30, !dbg !1712
  br i1 %_13, label %bb9.bb19_crit_edge, label %bb12, !dbg !1712

bb9.bb19_crit_edge:                               ; preds = %bb9
  %_18.pre = load i64, ptr %_4, align 8, !dbg !1713, !range !860
  br label %bb19, !dbg !1712

bb7:                                              ; preds = %bb5
  store ptr @alloc_626cc8bfd6c94d404aa777557e31db63, ptr %_22, align 8, !dbg !1714
  store ptr @alloc_626cc8bfd6c94d404aa777557e31db63, ptr %_21, align 8, !dbg !1727
  store ptr @alloc_626cc8bfd6c94d404aa777557e31db63, ptr %_7, align 8, !dbg !1728
  store ptr @alloc_626cc8bfd6c94d404aa777557e31db63, ptr %_0, align 8, !dbg !1729
  br label %bb14, !dbg !1730

bb8:                                              ; preds = %bb5
  %_27 = icmp ugt i64 %i12, %self.12, !dbg !1732
  br i1 %_27, label %bb23, label %bb24, !dbg !1732

bb24:                                             ; preds = %bb8
  store ptr %self.01, ptr %_34, align 8, !dbg !1742
  %i20 = getelementptr inbounds { ptr, i64 }, ptr %_34, i32 0, i32 1, !dbg !1742
  store i64 %self.12, ptr %i20, align 8, !dbg !1742
  %new_len = sub nuw i64 %self.12, %i12, !dbg !1758
  %data = getelementptr inbounds i8, ptr %self.01, i64 %i12, !dbg !1763
  store ptr %data, ptr %_41, align 8, !dbg !1770
  %i22 = getelementptr inbounds { ptr, i64 }, ptr %_41, i32 0, i32 1, !dbg !1770
  store i64 %new_len, ptr %i22, align 8, !dbg !1770
  store ptr %data, ptr %_40, align 8, !dbg !1778
  %i26 = getelementptr inbounds { ptr, i64 }, ptr %_40, i32 0, i32 1, !dbg !1778
  store i64 %new_len, ptr %i26, align 8, !dbg !1778
  store ptr %data, ptr %buf, align 8, !dbg !1779
  store i64 %new_len, ptr %i, align 8, !dbg !1779
  br label %bb19, !dbg !1780

bb23:                                             ; preds = %bb8
  call void @_ZN4core5slice5index26slice_start_index_len_fail17h351789050da2256fE(i64 %i12, i64 %self.12, ptr align 8 @alloc_4281a0c14125330c5d3c45e00517e107) #31, !dbg !1781
  unreachable, !dbg !1781

bb19:                                             ; preds = %bb24, %bb9.bb19_crit_edge
  %_18 = phi i64 [ %_18.pre, %bb9.bb19_crit_edge ], [ 0, %bb24 ], !dbg !1713
  %_5.136 = phi i64 [ %self.12, %bb9.bb19_crit_edge ], [ %new_len, %bb24 ]
  %_5.034 = phi ptr [ %self.01, %bb9.bb19_crit_edge ], [ %data, %bb24 ]
  %i29 = icmp eq i64 %_18, 1, !dbg !1713
  br i1 %i29, label %bb18, label %bb16, !dbg !1713

bb12:                                             ; preds = %bb9
  %e4 = load ptr, ptr %i14, align 8, !dbg !1782, !nonnull !15, !noundef !15
  store ptr %e4, ptr %_0, align 8, !dbg !1783
  br label %bb14, !dbg !1730

bb16:                                             ; preds = %bb18, %bb19
  br label %bb1, !dbg !1705

bb18:                                             ; preds = %bb19
  %i31 = getelementptr inbounds %"std::io::error::ErrorData<alloc::boxed::Box<std::io::error::Custom>>::Custom", ptr %_4, i32 0, i32 1, !dbg !1713
  call void @"_ZN4core3ptr42drop_in_place$LT$std..io..error..Error$GT$17h4303a5a38e62dbf2E"(ptr align 8 %i31) #30, !dbg !1713
  br label %bb16, !dbg !1713
}

; Function Attrs: nounwind
declare void @"_ZN64_$LT$std..sys..unix..stdio..Stderr$u20$as$u20$std..io..Write$GT$5write17h79c4d312e595bc94E"(ptr sret(%"core::result::Result<usize, std::io::error::Error>") align 8, ptr align 1, ptr align 1, i64) unnamed_addr #3

; Function Attrs: inlinehint mustprogress nofree nosync nounwind willreturn
define internal fastcc zeroext i1 @_ZN3std2io5error5Error14is_interrupted17h9c8363aa2b26d967E(ptr %self.0.val) unnamed_addr #20 !dbg !1785 {
start:
  %kind = alloca i8, align 1
  %_2 = alloca %"std::io::error::ErrorData<alloc::boxed::Box<std::io::error::Custom>>", align 8
  %_0 = alloca i8, align 1
  %0 = icmp ne ptr %self.0.val, null
  call void @llvm.assume(i1 %0)
  call fastcc void @_ZN3std2io5error14repr_bitpacked11decode_repr17hbbebd52dca05c4c9E(ptr noalias align 8 %_2, ptr %self.0.val) #30, !dbg !1786
  %i = load i8, ptr %_2, align 8, !dbg !1791, !range !1792, !noundef !15
  %_4 = zext i8 %i to i64, !dbg !1791
  switch i64 %_4, label %bb2 [
    i64 0, label %bb3
    i64 1, label %bb5
    i64 2, label %bb1
    i64 3, label %bb4
  ], !dbg !1793

bb2:                                              ; preds = %start
  unreachable, !dbg !1791

bb3:                                              ; preds = %start
  %i5 = getelementptr inbounds %"std::io::error::ErrorData<alloc::boxed::Box<std::io::error::Custom>>::Os", ptr %_2, i32 0, i32 1, !dbg !1794
  %code = load i32, ptr %i5, align 4, !dbg !1794, !noundef !15
  %i6 = icmp eq i32 %code, 4, !dbg !1795
  %i7 = zext i1 %i6 to i8, !dbg !1795
  store i8 %i7, ptr %_0, align 1, !dbg !1795
  br label %bb6, !dbg !1801

bb5:                                              ; preds = %start
  %i8 = getelementptr inbounds %"std::io::error::ErrorData<alloc::boxed::Box<std::io::error::Custom>>::Simple", ptr %_2, i32 0, i32 1, !dbg !1802
  %i9 = load i8, ptr %i8, align 1, !dbg !1802, !range !1803, !noundef !15
  store i8 %i9, ptr %kind, align 1, !dbg !1802
  %__self_tag = zext i8 %i9 to i64, !dbg !1804
  %i11 = icmp eq i64 %__self_tag, 35, !dbg !1810
  %i12 = zext i1 %i11 to i8, !dbg !1810
  store i8 %i12, ptr %_0, align 1, !dbg !1810
  br label %bb6, !dbg !1813

bb1:                                              ; preds = %start
  %i13 = getelementptr inbounds %"std::io::error::ErrorData<alloc::boxed::Box<std::io::error::Custom>>::Custom", ptr %_2, i32 0, i32 1, !dbg !1814
  %m = load ptr, ptr %i13, align 8, !dbg !1814, !nonnull !15, !align !195, !noundef !15
  %i14 = getelementptr inbounds %"std::io::error::SimpleMessage", ptr %m, i32 0, i32 1, !dbg !1815
  %i15 = load i8, ptr %i14, align 8, !dbg !1815, !range !1803, !noundef !15
  %__self_tag2 = zext i8 %i15 to i64, !dbg !1815
  %i16 = icmp eq i64 %__self_tag2, 35, !dbg !1819
  %i17 = zext i1 %i16 to i8, !dbg !1819
  store i8 %i17, ptr %_0, align 1, !dbg !1819
  br label %bb6, !dbg !1822

bb4:                                              ; preds = %start
  %i18 = getelementptr inbounds %"std::io::error::ErrorData<alloc::boxed::Box<std::io::error::Custom>>::Custom", ptr %_2, i32 0, i32 1, !dbg !1823
  %c = load ptr, ptr %i18, align 8, !dbg !1823, !nonnull !15, !align !195, !noundef !15
  %i19 = getelementptr inbounds %"std::io::error::Custom", ptr %c, i32 0, i32 1, !dbg !1824
  %i20 = load i8, ptr %i19, align 8, !dbg !1824, !range !1803, !noundef !15
  %__self_tag4 = zext i8 %i20 to i64, !dbg !1824
  %i21 = icmp eq i64 %__self_tag4, 35, !dbg !1828
  %i22 = zext i1 %i21 to i8, !dbg !1828
  store i8 %i22, ptr %_0, align 1, !dbg !1828
  br label %bb6, !dbg !1831

bb6:                                              ; preds = %bb4, %bb1, %bb5, %bb3
  %i23 = phi i1 [ %i21, %bb4 ], [ %i16, %bb1 ], [ %i11, %bb5 ], [ %i6, %bb3 ], !dbg !1832
  ret i1 %i23, !dbg !1832
}

; Function Attrs: cold noinline noreturn nounwind
declare void @_ZN4core5slice5index26slice_start_index_len_fail17h351789050da2256fE(i64, i64, ptr align 8) unnamed_addr #14

; Function Attrs: inlinehint mustprogress nofree nosync nounwind willreturn memory(argmem: write, inaccessiblemem: readwrite)
define internal fastcc void @_ZN3std2io5error14repr_bitpacked11decode_repr17hbbebd52dca05c4c9E(ptr noalias nocapture writeonly align 8 %_0, ptr %ptr) unnamed_addr #18 personality ptr @rust_eh_personality !dbg !1833 {
start:
  %i = alloca ptr, align 8
  %_51 = alloca %"core::ptr::metadata::PtrComponents<()>", align 8
  %_50 = alloca %"core::ptr::metadata::PtrRepr<()>", align 8
  %_26 = alloca i8, align 1
  %_24 = alloca ptr, align 8
  %self1 = alloca ptr, align 8
  %self = alloca i8, align 1
  %bits = alloca i64, align 8
  store i8 1, ptr %_26, align 1, !dbg !1834
  %i3 = ptrtoint ptr %ptr to i64, !dbg !1835
  store i64 %i3, ptr %bits, align 8, !dbg !1835
  %_5 = and i64 %i3, 3, !dbg !1840
  switch i64 %_5, label %start.unreachabledefault [
    i64 2, label %bb2
    i64 3, label %bb3
    i64 0, label %bb5
    i64 1, label %bb6
  ], !dbg !1842

start.unreachabledefault:                         ; preds = %start
  unreachable

bb2:                                              ; preds = %start
  %_8 = ashr i64 %i3, 32, !dbg !1843
  %code = trunc i64 %_8 to i32, !dbg !1843
  %i4 = getelementptr inbounds %"std::io::error::ErrorData<alloc::boxed::Box<std::io::error::Custom>>::Os", ptr %_0, i32 0, i32 1, !dbg !1844
  store i32 %code, ptr %i4, align 4, !dbg !1844
  store i8 0, ptr %_0, align 8, !dbg !1844
  br label %bb9, !dbg !1846

bb3:                                              ; preds = %start
  %_12 = lshr i64 %i3, 32, !dbg !1847
  %kind_bits = trunc i64 %_12 to i32, !dbg !1847
  %i5 = call fastcc i8 @_ZN3std2io5error14repr_bitpacked14kind_from_prim17h21bc352ed7be828eE(i32 %kind_bits) #30, !dbg !1848, !range !1326
  store i8 %i5, ptr %self, align 1, !dbg !1848
  %i7 = icmp eq i8 %i5, 41, !dbg !1850
  %_28 = select i1 %i7, i64 0, i64 1, !dbg !1850
  %_53 = icmp eq i64 %_28, 1, !dbg !1854
  call void @llvm.assume(i1 %_53), !dbg !1854
  %i8 = getelementptr inbounds %"std::io::error::ErrorData<alloc::boxed::Box<std::io::error::Custom>>::Simple", ptr %_0, i32 0, i32 1, !dbg !1855
  store i8 %i5, ptr %i8, align 1, !dbg !1855
  store i8 1, ptr %_0, align 8, !dbg !1855
  br label %bb9, !dbg !1857

bb5:                                              ; preds = %start
  store ptr %ptr, ptr %self1, align 8, !dbg !1858
  %i9 = getelementptr inbounds %"std::io::error::ErrorData<alloc::boxed::Box<std::io::error::Custom>>::Custom", ptr %_0, i32 0, i32 1, !dbg !1867
  store ptr %ptr, ptr %i9, align 8, !dbg !1867
  store i8 2, ptr %_0, align 8, !dbg !1867
  br label %bb9, !dbg !1868

bb6:                                              ; preds = %start
  %i10 = getelementptr i8, ptr %ptr, i64 -1, !dbg !1869
  store ptr %i10, ptr %i, align 8, !dbg !1869
  store ptr %i10, ptr %_51, align 8, !dbg !1880
  call void @llvm.memcpy.p0.p0.i64(ptr align 8 %_50, ptr align 8 %_51, i64 8, i1 false), !dbg !1888
  %self2 = load ptr, ptr %_50, align 8, !dbg !1888, !noundef !15
  store i8 0, ptr %_26, align 1, !dbg !1889
  store ptr %self2, ptr %_24, align 8, !dbg !1889
  %_22 = call fastcc align 8 ptr @"_ZN3std2io5error14repr_bitpacked4Repr4data28_$u7b$$u7b$closure$u7d$$u7d$17hd07359be528ddaebE"(ptr %self2) #30, !dbg !1889
  %i12 = getelementptr inbounds %"std::io::error::ErrorData<alloc::boxed::Box<std::io::error::Custom>>::Custom", ptr %_0, i32 0, i32 1, !dbg !1891
  store ptr %_22, ptr %i12, align 8, !dbg !1891
  store i8 3, ptr %_0, align 8, !dbg !1891
  br label %bb9, !dbg !1892

bb9:                                              ; preds = %bb6, %bb5, %bb3, %bb2
  ret void, !dbg !1893
}

; Function Attrs: inlinehint mustprogress nofree norecurse nosync nounwind willreturn memory(none)
define internal fastcc align 8 ptr @"_ZN3std2io5error14repr_bitpacked4Repr4data28_$u7b$$u7b$closure$u7d$$u7d$17hd07359be528ddaebE"(ptr readnone returned %c) unnamed_addr #4 !dbg !1894 {
start:
  ret ptr %c, !dbg !1897
}

; Function Attrs: inlinehint nounwind
define internal fastcc void @_ZN3std9panicking3try7do_call17h11369c05614eb454E(ptr %data.0.val) unnamed_addr #5 !dbg !1898 {
start:
  %0 = icmp ne ptr %data.0.val, null
  call void @llvm.assume(i1 %0)
  call fastcc void @"_ZN115_$LT$core..panic..unwind_safe..AssertUnwindSafe$LT$F$GT$$u20$as$u20$core..ops..function..FnOnce$LT$$LP$$RP$$GT$$GT$9call_once17h866443edd351c928E"(ptr align 8 %data.0.val) #30, !dbg !1900
  ret void, !dbg !1905
}

; Function Attrs: inlinehint nounwind
define internal fastcc void @"_ZN115_$LT$core..panic..unwind_safe..AssertUnwindSafe$LT$F$GT$$u20$as$u20$core..ops..function..FnOnce$LT$$LP$$RP$$GT$$GT$9call_once17h866443edd351c928E"(ptr align 8 %self) unnamed_addr #5 !dbg !1906 {
start:
  call fastcc void @_ZN4core3ops8function6FnOnce9call_once17h4f82165acdab50b9E(ptr align 8 %self) #30, !dbg !1911
  ret void, !dbg !1912
}

; Function Attrs: inlinehint nounwind
define internal fastcc void @_ZN4core3ops8function6FnOnce9call_once17h4f82165acdab50b9E(ptr align 8 %arg) unnamed_addr #5 !dbg !1913 {
start:
  %_1 = alloca ptr, align 8
  store ptr %arg, ptr %_1, align 8
  %_1.val = load ptr, ptr %_1, align 8, !dbg !1914, !nonnull !15, !align !195, !noundef !15
  call fastcc void @"_ZN70_$LT$std..thread..Packet$LT$T$GT$$u20$as$u20$core..ops..drop..Drop$GT$4drop28_$u7b$$u7b$closure$u7d$$u7d$17h83398e0280016be0E"(ptr %_1.val) #30, !dbg !1914
  ret void, !dbg !1914
}

; Function Attrs: inlinehint nounwind
define internal fastcc void @"_ZN70_$LT$std..thread..Packet$LT$T$GT$$u20$as$u20$core..ops..drop..Drop$GT$4drop28_$u7b$$u7b$closure$u7d$$u7d$17h83398e0280016be0E"(ptr %_1.0.val) unnamed_addr #5 personality ptr @rust_eh_personality !dbg !1915 {
start:
  %_2 = alloca %"core::option::Option<core::result::Result<(), alloc::boxed::Box<dyn core::any::Any + core::marker::Send>>>", align 8
  store i64 0, ptr %_2, align 8, !dbg !1917
  %0 = icmp ne ptr %_1.0.val, null
  call void @llvm.assume(i1 %0)
  %_2.i = load i64, ptr %_1.0.val, align 8, !dbg !1918, !range !860, !noundef !15
  %i = icmp ne i64 %_2.i, 0, !dbg !1918
  br i1 %i, label %codeRepl.i, label %bb1, !dbg !1918

codeRepl.i:                                       ; preds = %start
  call fastcc void @"_ZN4core3ptr158drop_in_place$LT$core..option..Option$LT$core..result..Result$LT$$LP$$RP$$C$alloc..boxed..Box$LT$dyn$u20$core..any..Any$u2b$core..marker..Send$GT$$GT$$GT$$GT$17h8c12f2f5e20cff39E.17.bb2"(ptr %_1.0.val), !dbg !1918
  br label %bb1

bb1:                                              ; preds = %codeRepl.i, %start
  call void @llvm.memcpy.p0.p0.i64(ptr align 8 %_1.0.val, ptr align 8 %_2, i64 24, i1 false), !dbg !1920
  ret void, !dbg !1921
}

; Function Attrs: nounwind
define internal fastcc void @"_ZN4core3ptr85drop_in_place$LT$core..pin..Pin$LT$alloc..sync..Arc$LT$std..thread..Inner$GT$$GT$$GT$17hd3e9cd6cc76cc3d3E"(ptr align 8 %_1) unnamed_addr #3 !dbg !1922 {
start:
  call fastcc void @"_ZN4core3ptr63drop_in_place$LT$alloc..sync..Arc$LT$std..thread..Inner$GT$$GT$17h493b20153cf62b41E"(ptr align 8 %_1) #30, !dbg !1923
  ret void, !dbg !1923
}

; Function Attrs: nounwind
define internal fastcc void @"_ZN4core3ptr63drop_in_place$LT$alloc..sync..Arc$LT$std..thread..Inner$GT$$GT$17h493b20153cf62b41E"(ptr align 8 %_1) unnamed_addr #3 !dbg !1924 {
start:
  call fastcc void @"_ZN71_$LT$alloc..sync..Arc$LT$T$C$A$GT$$u20$as$u20$core..ops..drop..Drop$GT$4drop17hb32f40b552c3a53cE"(ptr align 8 %_1) #30, !dbg !1925
  ret void, !dbg !1925
}

; Function Attrs: inlinehint nounwind
define internal fastcc void @"_ZN71_$LT$alloc..sync..Arc$LT$T$C$A$GT$$u20$as$u20$core..ops..drop..Drop$GT$4drop17hb32f40b552c3a53cE"(ptr align 8 %self) unnamed_addr #5 !dbg !1926 {
start:
  %i = alloca i64, align 8, !dbg !1927
  %self1 = load ptr, ptr %self, align 8, !dbg !1927, !nonnull !15, !noundef !15
  %i2 = atomicrmw sub ptr %self1, i64 1 release, align 8, !dbg !1936
  store i64 %i2, ptr %i, align 8, !dbg !1936
  %i3 = icmp eq i64 %i2, 1, !dbg !1945
  br i1 %i3, label %bb2, label %bb3, !dbg !1945

bb2:                                              ; preds = %start
  fence acquire, !dbg !1946
  call fastcc void @"_ZN5alloc4sync16Arc$LT$T$C$A$GT$9drop_slow17h754891fc26acdf72E"(ptr align 8 %self) #30, !dbg !1951
  br label %bb3, !dbg !1951

bb3:                                              ; preds = %bb2, %start
  ret void, !dbg !1953
}

; Function Attrs: noinline nounwind
define internal fastcc void @"_ZN5alloc4sync16Arc$LT$T$C$A$GT$9drop_slow17h754891fc26acdf72E"(ptr align 8 %self) unnamed_addr #6 !dbg !1954 {
start:
  %_x = alloca { ptr, ptr }, align 8
  %self1 = load ptr, ptr %self, align 8, !dbg !1955, !nonnull !15, !noundef !15
  %_3 = getelementptr inbounds %"alloc::sync::ArcInner<std::thread::Inner>", ptr %self1, i32 0, i32 2, !dbg !1959
  %i = getelementptr inbounds %"std::thread::Inner", ptr %_3, i32 0, i32 1, !dbg !1961
  %i2 = load ptr, ptr %i, align 8, !dbg !1964, !noundef !15
  %i3 = ptrtoint ptr %i2 to i64, !dbg !1964
  %i4 = icmp ne i64 %i3, 0, !dbg !1964
  br i1 %i4, label %codeRepl.i, label %"_ZN4core3ptr39drop_in_place$LT$std..thread..Inner$GT$17h9631620bc6d5d8eaE.16.exit", !dbg !1964

codeRepl.i:                                       ; preds = %start
  call fastcc void @"_ZN4core3ptr39drop_in_place$LT$std..thread..Inner$GT$17h9631620bc6d5d8eaE.16.codeRepl.i"(ptr %i), !dbg !1964
  br label %"_ZN4core3ptr39drop_in_place$LT$std..thread..Inner$GT$17h9631620bc6d5d8eaE.16.exit"

"_ZN4core3ptr39drop_in_place$LT$std..thread..Inner$GT$17h9631620bc6d5d8eaE.16.exit": ; preds = %codeRepl.i, %start
  %i5 = getelementptr inbounds %"std::thread::Inner", ptr %_3, i32 0, i32 2, !dbg !1961
  call fastcc void @"_ZN4core3ptr67drop_in_place$LT$std..sys..unix..thread_parking..darwin..Parker$GT$17h396477d3ac799c2bE"(ptr align 8 %i5) #30, !dbg !1961
  %_5 = load ptr, ptr %self, align 8, !dbg !1967, !nonnull !15, !noundef !15
  %_6 = getelementptr i8, ptr %self, i64 8, !dbg !1968
  store ptr %_5, ptr %_x, align 8, !dbg !1969
  %i6 = getelementptr inbounds { ptr, ptr }, ptr %_x, i32 0, i32 1, !dbg !1969
  store ptr %_6, ptr %i6, align 8, !dbg !1969
  call fastcc void @"_ZN4core3ptr129drop_in_place$LT$alloc..sync..Weak$LT$std..sync..mutex..Mutex$LT$alloc..vec..Vec$LT$u8$GT$$GT$$C$$RF$alloc..alloc..Global$GT$$GT$17hc13df76d147612bdE"(ptr align 8 %_x) #30, !dbg !1970
  ret void, !dbg !1974
}

; Function Attrs: nounwind
define internal fastcc void @"_ZN4core3ptr39drop_in_place$LT$std..thread..Inner$GT$17h9631620bc6d5d8eaE.16.codeRepl.i"(ptr nocapture readonly %arg) unnamed_addr #3 !dbg !1975 {
newFuncRoot:
  call fastcc void @"_ZN4core3ptr75drop_in_place$LT$core..option..Option$LT$alloc..ffi..c_str..CString$GT$$GT$17h8d9bdf638f8dd2bbE.11.bb2"(ptr %arg), !dbg !1976
  ret void
}

; Function Attrs: nounwind
define internal fastcc void @"_ZN4core3ptr67drop_in_place$LT$std..sys..unix..thread_parking..darwin..Parker$GT$17h396477d3ac799c2bE"(ptr align 8 %_1) unnamed_addr #3 !dbg !1978 {
start:
  call void @"_ZN88_$LT$std..sys..unix..thread_parking..darwin..Parker$u20$as$u20$core..ops..drop..Drop$GT$4drop17h0972e81f45f7d157E"(ptr align 8 %_1) #30, !dbg !1979
  ret void, !dbg !1979
}

; Function Attrs: nounwind
define internal fastcc void @"_ZN4core3ptr129drop_in_place$LT$alloc..sync..Weak$LT$std..sync..mutex..Mutex$LT$alloc..vec..Vec$LT$u8$GT$$GT$$C$$RF$alloc..alloc..Global$GT$$GT$17hc13df76d147612bdE"(ptr nocapture readonly align 8 %_1) unnamed_addr #3 !dbg !1980 {
start:
  call fastcc void @"_ZN72_$LT$alloc..sync..Weak$LT$T$C$A$GT$$u20$as$u20$core..ops..drop..Drop$GT$4drop17h130d0ce95415114dE"(ptr align 8 %_1) #30, !dbg !1981
  ret void, !dbg !1981
}

; Function Attrs: nounwind
define internal fastcc void @"_ZN72_$LT$alloc..sync..Weak$LT$T$C$A$GT$$u20$as$u20$core..ops..drop..Drop$GT$4drop17h130d0ce95415114dE"(ptr nocapture readonly align 8 %self) unnamed_addr #3 !dbg !1982 {
start:
  %i = alloca i64, align 8
  %i5 = alloca i64, align 8
  %i6 = alloca i64, align 8
  %_16 = alloca { ptr, ptr }, align 8
  %_9 = alloca { i64, i64 }, align 8
  %_7 = alloca ptr, align 8
  %_2 = alloca { ptr, ptr }, align 8
  %self1 = load ptr, ptr %self, align 8, !dbg !1983, !nonnull !15, !noundef !15
  %_20 = ptrtoint ptr %self1 to i64, !dbg !1988
  %_15 = icmp ne i64 %_20, -1, !dbg !1997
  br i1 %_15, label %bb8, label %Flow24, !dbg !1995

bb8:                                              ; preds = %start
  %_18 = getelementptr inbounds %"alloc::sync::ArcInner<std::thread::Inner>", ptr %self1, i32 0, i32 1, !dbg !1998
  store ptr %_18, ptr %_16, align 8, !dbg !2000
  %i7 = getelementptr inbounds { ptr, ptr }, ptr %_16, i32 0, i32 1, !dbg !2000
  store ptr %self1, ptr %i7, align 8, !dbg !2000
  store ptr %_18, ptr %_2, align 8, !dbg !2001
  %i11 = getelementptr inbounds { ptr, ptr }, ptr %_2, i32 0, i32 1, !dbg !2001
  store ptr %self1, ptr %i11, align 8, !dbg !2001
  br label %Flow24, !dbg !2002

Flow24:                                           ; preds = %bb8, %start
  %0 = phi ptr [ %_18, %bb8 ], [ undef, %start ]
  %1 = phi i1 [ false, %bb8 ], [ true, %start ], !dbg !1995
  br i1 %1, label %bb7, label %bb9, !dbg !1995

bb7:                                              ; preds = %Flow24
  store ptr null, ptr %_2, align 8, !dbg !2003
  br label %bb9, !dbg !2002

bb9:                                              ; preds = %bb7, %Flow24
  %inner = phi ptr [ %0, %Flow24 ], [ null, %bb7 ], !dbg !2004
  %i13 = ptrtoint ptr %inner to i64, !dbg !2004
  %i14 = icmp eq i64 %i13, 0, !dbg !2004
  %_3 = select i1 %i14, i64 0, i64 1, !dbg !2004
  %i15 = icmp eq i64 %_3, 1, !dbg !2004
  br i1 %i15, label %bb1, label %bb6, !dbg !2004

bb1:                                              ; preds = %bb9
  %i16 = atomicrmw sub ptr %inner, i64 1 release, align 8, !dbg !2005
  store i64 %i16, ptr %i6, align 8, !dbg !2005
  %i17 = icmp eq i64 %i16, 1, !dbg !2015
  br i1 %i17, label %bb3, label %Flow, !dbg !2015

bb3:                                              ; preds = %bb1
  fence acquire, !dbg !2016
  %self3 = load ptr, ptr %self, align 8, !dbg !2021, !nonnull !15, !noundef !15
  store ptr %self3, ptr %_7, align 8, !dbg !2023
  store i64 56, ptr %i5, align 8, !dbg !2032
  store i64 8, ptr %i, align 8, !dbg !2041
  %i18 = getelementptr inbounds { i64, i64 }, ptr %_9, i32 0, i32 1, !dbg !2046
  store i64 56, ptr %i18, align 8, !dbg !2046
  store i64 8, ptr %_9, align 8, !dbg !2046
  call fastcc void @"_ZN48_$LT$$RF$A$u20$as$u20$core..alloc..Allocator$GT$10deallocate17h29f9bfd1b7b3f296E"(ptr %self3, i64 8, i64 56) #30, !dbg !2053
  br label %Flow, !dbg !2054

Flow:                                             ; preds = %bb3, %bb1
  br label %bb6, !dbg !2015

bb6:                                              ; preds = %Flow, %bb9
  ret void, !dbg !2055
}

; Function Attrs: nounwind
declare void @"_ZN88_$LT$std..sys..unix..thread_parking..darwin..Parker$u20$as$u20$core..ops..drop..Drop$GT$4drop17h0972e81f45f7d157E"(ptr align 8) unnamed_addr #3

; Function Attrs: nounwind
define internal fastcc void @"_ZN4core3ptr75drop_in_place$LT$core..option..Option$LT$alloc..ffi..c_str..CString$GT$$GT$17h8d9bdf638f8dd2bbE.11.bb2"(ptr nocapture readonly %_1) unnamed_addr #3 !dbg !2056 {
newFuncRoot:
  call fastcc void @"_ZN4core3ptr47drop_in_place$LT$alloc..ffi..c_str..CString$GT$17hee9bd68ccc72e865E"(ptr align 8 %_1) #30, !dbg !2057
  ret void
}

; Function Attrs: nounwind
define internal fastcc void @"_ZN4core3ptr47drop_in_place$LT$alloc..ffi..c_str..CString$GT$17hee9bd68ccc72e865E"(ptr nocapture readonly align 8 %_1) unnamed_addr #3 !dbg !2058 {
start:
  %_1.val = load ptr, ptr %_1, align 8, !dbg !2059, !nonnull !15, !align !194, !noundef !15
  call fastcc void @"_ZN68_$LT$alloc..ffi..c_str..CString$u20$as$u20$core..ops..drop..Drop$GT$4drop17haa493405759d2fa7E"(ptr %_1.val) #30, !dbg !2059
  %_1.val1 = load ptr, ptr %_1, align 8, !dbg !2059, !nonnull !15, !noundef !15
  %0 = getelementptr i8, ptr %_1, i64 8, !dbg !2059
  %_1.val2 = load i64, ptr %0, align 8, !dbg !2059, !noundef !15
  call fastcc void @"_ZN4core3ptr58drop_in_place$LT$alloc..boxed..Box$LT$$u5b$u8$u5d$$GT$$GT$17h24e2510815d375c6E"(ptr %_1.val1, i64 %_1.val2) #30, !dbg !2059
  ret void, !dbg !2059
}

; Function Attrs: inlinehint mustprogress nofree norecurse nosync nounwind willreturn memory(write, argmem: readwrite, inaccessiblemem: none)
define internal fastcc void @"_ZN68_$LT$alloc..ffi..c_str..CString$u20$as$u20$core..ops..drop..Drop$GT$4drop17haa493405759d2fa7E"(ptr %self.0.val) unnamed_addr #21 !dbg !2060 {
start:
  %0 = icmp ne ptr %self.0.val, null
  call void @llvm.assume(i1 %0)
  store i8 0, ptr %self.0.val, align 1, !dbg !2065
  ret void, !dbg !2067
}

; Function Attrs: nounwind
define internal fastcc void @"_ZN4core3ptr58drop_in_place$LT$alloc..boxed..Box$LT$$u5b$u8$u5d$$GT$$GT$17h24e2510815d375c6E"(ptr %_1.0.val, i64 %_1.8.val) unnamed_addr #3 !dbg !2068 {
start:
  %0 = icmp ne ptr %_1.0.val, null
  call void @llvm.assume(i1 %0)
  call fastcc void @"_ZN72_$LT$alloc..boxed..Box$LT$T$C$A$GT$$u20$as$u20$core..ops..drop..Drop$GT$4drop17hea31bb52a9114f78E"(ptr %_1.0.val, i64 %_1.8.val) #30, !dbg !2069
  ret void, !dbg !2069
}

; Function Attrs: inlinehint nounwind
define internal fastcc void @"_ZN72_$LT$alloc..boxed..Box$LT$T$C$A$GT$$u20$as$u20$core..ops..drop..Drop$GT$4drop17hea31bb52a9114f78E"(ptr %self.0.val, i64 %self.8.val) unnamed_addr #5 !dbg !2070 {
start:
  %i = alloca i64, align 8
  %i2 = alloca i64, align 8
  %unique = alloca ptr, align 8
  %self1 = alloca ptr, align 8
  %_9 = alloca ptr, align 8
  %layout = alloca { i64, i64 }, align 8
  %0 = icmp ne ptr %self.0.val, null
  call void @llvm.assume(i1 %0)
  store i64 %self.8.val, ptr %i2, align 8, !dbg !2071
  store i64 1, ptr %i, align 8, !dbg !2082
  %i4 = getelementptr inbounds { i64, i64 }, ptr %layout, i32 0, i32 1, !dbg !2087
  store i64 %self.8.val, ptr %i4, align 8, !dbg !2087
  store i64 1, ptr %layout, align 8, !dbg !2087
  %i6 = icmp ne i64 %self.8.val, 0, !dbg !2094
  br i1 %i6, label %bb1, label %bb4, !dbg !2094

bb1:                                              ; preds = %start
  store ptr %self.0.val, ptr %self1, align 8, !dbg !2096
  store ptr %self.0.val, ptr %unique, align 8, !dbg !2109
  store ptr %self.0.val, ptr %_9, align 8, !dbg !2117
  call fastcc void @"_ZN63_$LT$alloc..alloc..Global$u20$as$u20$core..alloc..Allocator$GT$10deallocate17haf021917e5b963cbE"(ptr %self.0.val, i64 1, i64 %self.8.val) #30, !dbg !2125
  br label %bb4, !dbg !2126

bb4:                                              ; preds = %bb1, %start
  ret void, !dbg !2127
}

; Function Attrs: inlinehint nounwind
define internal fastcc { i64, i64 } @_ZN4core4sync6atomic23atomic_compare_exchange17h8b25b07beb78f3e9E(ptr nocapture %dst, i64 %old, i64 %new, i8 %arg, i8 %arg2) unnamed_addr #5 !dbg !2128 {
start:
  %_38 = alloca { ptr, i64 }, align 8
  %_29 = alloca { ptr, i64 }, align 8
  %_20 = alloca %"core::fmt::Arguments<'_>", align 8
  %_17 = alloca %"core::fmt::Arguments<'_>", align 8
  %_8 = alloca { i64, i8 }, align 8
  %_0 = alloca { i64, i64 }, align 8
  %failure = alloca i8, align 1
  %success = alloca i8, align 1
  store i8 %arg, ptr %success, align 1
  store i8 %arg2, ptr %failure, align 1
  %_15 = zext i8 %arg to i64, !dbg !2129
  switch i64 %_15, label %bb7 [
    i64 0, label %bb1
    i64 1, label %bb3
    i64 2, label %bb4
    i64 3, label %bb5
    i64 4, label %bb6
  ], !dbg !2131

bb7:                                              ; preds = %start
  unreachable

bb1:                                              ; preds = %start
  %_9 = zext i8 %arg2 to i64, !dbg !2129
  switch i64 %_9, label %bb2 [
    i64 0, label %bb9
    i64 2, label %bb10
    i64 4, label %bb11
  ], !dbg !2131

bb3:                                              ; preds = %start
  %_10 = zext i8 %arg2 to i64, !dbg !2129
  switch i64 %_10, label %bb2 [
    i64 0, label %bb15
    i64 2, label %bb16
    i64 4, label %bb17
  ], !dbg !2131

bb4:                                              ; preds = %start
  %_11 = zext i8 %arg2 to i64, !dbg !2129
  switch i64 %_11, label %bb2 [
    i64 0, label %bb12
    i64 2, label %bb13
    i64 4, label %bb14
  ], !dbg !2131

bb5:                                              ; preds = %start
  %_12 = zext i8 %arg2 to i64, !dbg !2129
  switch i64 %_12, label %bb2 [
    i64 0, label %bb18
    i64 2, label %bb19
    i64 4, label %bb20
  ], !dbg !2131

bb6:                                              ; preds = %start
  %_13 = zext i8 %arg2 to i64, !dbg !2129
  switch i64 %_13, label %bb2 [
    i64 0, label %bb21
    i64 2, label %bb22
    i64 4, label %bb23
  ], !dbg !2131

bb2:                                              ; preds = %bb6, %bb5, %bb4, %bb3, %bb1
  %_14.pre-phi = phi i64 [ %_13, %bb6 ], [ %_12, %bb5 ], [ %_11, %bb4 ], [ %_10, %bb3 ], [ %_9, %bb1 ], !dbg !2129
  %i9 = icmp eq i64 %_14.pre-phi, 1, !dbg !2131
  br i1 %i9, label %bb31, label %bb34, !dbg !2131

bb9:                                              ; preds = %bb1
  %i10 = cmpxchg ptr %dst, i64 %old, i64 %new monotonic monotonic, align 8, !dbg !2132
  %i11 = extractvalue { i64, i1 } %i10, 0, !dbg !2132
  %i12 = extractvalue { i64, i1 } %i10, 1, !dbg !2132
  %i13 = zext i1 %i12 to i8, !dbg !2132
  store i64 %i11, ptr %_8, align 8, !dbg !2132
  %i14 = getelementptr inbounds { i64, i8 }, ptr %_8, i32 0, i32 1, !dbg !2132
  store i8 %i13, ptr %i14, align 8, !dbg !2132
  br label %bb25, !dbg !2132

bb10:                                             ; preds = %bb1
  %i15 = cmpxchg ptr %dst, i64 %old, i64 %new monotonic acquire, align 8, !dbg !2133
  %i16 = extractvalue { i64, i1 } %i15, 0, !dbg !2133
  %i17 = extractvalue { i64, i1 } %i15, 1, !dbg !2133
  %i18 = zext i1 %i17 to i8, !dbg !2133
  store i64 %i16, ptr %_8, align 8, !dbg !2133
  %i19 = getelementptr inbounds { i64, i8 }, ptr %_8, i32 0, i32 1, !dbg !2133
  store i8 %i18, ptr %i19, align 8, !dbg !2133
  br label %bb25, !dbg !2133

bb11:                                             ; preds = %bb1
  %i20 = cmpxchg ptr %dst, i64 %old, i64 %new monotonic seq_cst, align 8, !dbg !2134
  %i21 = extractvalue { i64, i1 } %i20, 0, !dbg !2134
  %i22 = extractvalue { i64, i1 } %i20, 1, !dbg !2134
  %i23 = zext i1 %i22 to i8, !dbg !2134
  store i64 %i21, ptr %_8, align 8, !dbg !2134
  %i24 = getelementptr inbounds { i64, i8 }, ptr %_8, i32 0, i32 1, !dbg !2134
  store i8 %i23, ptr %i24, align 8, !dbg !2134
  br label %bb25, !dbg !2134

bb25:                                             ; preds = %bb23, %bb22, %bb21, %bb20, %bb19, %bb18, %bb14, %bb13, %bb12, %bb17, %bb16, %bb15, %bb11, %bb10, %bb9
  %i26 = phi i1 [ %i84, %bb23 ], [ %i79, %bb22 ], [ %i74, %bb21 ], [ %i69, %bb20 ], [ %i64, %bb19 ], [ %i59, %bb18 ], [ %i54, %bb14 ], [ %i49, %bb13 ], [ %i44, %bb12 ], [ %i39, %bb17 ], [ %i34, %bb16 ], [ %i29, %bb15 ], [ %i22, %bb11 ], [ %i17, %bb10 ], [ %i12, %bb9 ], !dbg !2135
  %i91 = phi i64 [ %i83, %bb23 ], [ %i78, %bb22 ], [ %i73, %bb21 ], [ %i68, %bb20 ], [ %i63, %bb19 ], [ %i58, %bb18 ], [ %i53, %bb14 ], [ %i48, %bb13 ], [ %i43, %bb12 ], [ %i38, %bb17 ], [ %i33, %bb16 ], [ %i28, %bb15 ], [ %i21, %bb11 ], [ %i16, %bb10 ], [ %i11, %bb9 ], !dbg !2136
  %i26.inv = xor i1 %i26, true
  br i1 %i26.inv, label %bb27, label %Flow, !dbg !2137

bb15:                                             ; preds = %bb3
  %i27 = cmpxchg ptr %dst, i64 %old, i64 %new release monotonic, align 8, !dbg !2139
  %i28 = extractvalue { i64, i1 } %i27, 0, !dbg !2139
  %i29 = extractvalue { i64, i1 } %i27, 1, !dbg !2139
  %i30 = zext i1 %i29 to i8, !dbg !2139
  store i64 %i28, ptr %_8, align 8, !dbg !2139
  %i31 = getelementptr inbounds { i64, i8 }, ptr %_8, i32 0, i32 1, !dbg !2139
  store i8 %i30, ptr %i31, align 8, !dbg !2139
  br label %bb25, !dbg !2139

bb16:                                             ; preds = %bb3
  %i32 = cmpxchg ptr %dst, i64 %old, i64 %new release acquire, align 8, !dbg !2140
  %i33 = extractvalue { i64, i1 } %i32, 0, !dbg !2140
  %i34 = extractvalue { i64, i1 } %i32, 1, !dbg !2140
  %i35 = zext i1 %i34 to i8, !dbg !2140
  store i64 %i33, ptr %_8, align 8, !dbg !2140
  %i36 = getelementptr inbounds { i64, i8 }, ptr %_8, i32 0, i32 1, !dbg !2140
  store i8 %i35, ptr %i36, align 8, !dbg !2140
  br label %bb25, !dbg !2140

bb17:                                             ; preds = %bb3
  %i37 = cmpxchg ptr %dst, i64 %old, i64 %new release seq_cst, align 8, !dbg !2141
  %i38 = extractvalue { i64, i1 } %i37, 0, !dbg !2141
  %i39 = extractvalue { i64, i1 } %i37, 1, !dbg !2141
  %i40 = zext i1 %i39 to i8, !dbg !2141
  store i64 %i38, ptr %_8, align 8, !dbg !2141
  %i41 = getelementptr inbounds { i64, i8 }, ptr %_8, i32 0, i32 1, !dbg !2141
  store i8 %i40, ptr %i41, align 8, !dbg !2141
  br label %bb25, !dbg !2141

bb12:                                             ; preds = %bb4
  %i42 = cmpxchg ptr %dst, i64 %old, i64 %new acquire monotonic, align 8, !dbg !2142
  %i43 = extractvalue { i64, i1 } %i42, 0, !dbg !2142
  %i44 = extractvalue { i64, i1 } %i42, 1, !dbg !2142
  %i45 = zext i1 %i44 to i8, !dbg !2142
  store i64 %i43, ptr %_8, align 8, !dbg !2142
  %i46 = getelementptr inbounds { i64, i8 }, ptr %_8, i32 0, i32 1, !dbg !2142
  store i8 %i45, ptr %i46, align 8, !dbg !2142
  br label %bb25, !dbg !2142

bb13:                                             ; preds = %bb4
  %i47 = cmpxchg ptr %dst, i64 %old, i64 %new acquire acquire, align 8, !dbg !2143
  %i48 = extractvalue { i64, i1 } %i47, 0, !dbg !2143
  %i49 = extractvalue { i64, i1 } %i47, 1, !dbg !2143
  %i50 = zext i1 %i49 to i8, !dbg !2143
  store i64 %i48, ptr %_8, align 8, !dbg !2143
  %i51 = getelementptr inbounds { i64, i8 }, ptr %_8, i32 0, i32 1, !dbg !2143
  store i8 %i50, ptr %i51, align 8, !dbg !2143
  br label %bb25, !dbg !2143

bb14:                                             ; preds = %bb4
  %i52 = cmpxchg ptr %dst, i64 %old, i64 %new acquire seq_cst, align 8, !dbg !2144
  %i53 = extractvalue { i64, i1 } %i52, 0, !dbg !2144
  %i54 = extractvalue { i64, i1 } %i52, 1, !dbg !2144
  %i55 = zext i1 %i54 to i8, !dbg !2144
  store i64 %i53, ptr %_8, align 8, !dbg !2144
  %i56 = getelementptr inbounds { i64, i8 }, ptr %_8, i32 0, i32 1, !dbg !2144
  store i8 %i55, ptr %i56, align 8, !dbg !2144
  br label %bb25, !dbg !2144

bb18:                                             ; preds = %bb5
  %i57 = cmpxchg ptr %dst, i64 %old, i64 %new acq_rel monotonic, align 8, !dbg !2145
  %i58 = extractvalue { i64, i1 } %i57, 0, !dbg !2145
  %i59 = extractvalue { i64, i1 } %i57, 1, !dbg !2145
  %i60 = zext i1 %i59 to i8, !dbg !2145
  store i64 %i58, ptr %_8, align 8, !dbg !2145
  %i61 = getelementptr inbounds { i64, i8 }, ptr %_8, i32 0, i32 1, !dbg !2145
  store i8 %i60, ptr %i61, align 8, !dbg !2145
  br label %bb25, !dbg !2145

bb19:                                             ; preds = %bb5
  %i62 = cmpxchg ptr %dst, i64 %old, i64 %new acq_rel acquire, align 8, !dbg !2146
  %i63 = extractvalue { i64, i1 } %i62, 0, !dbg !2146
  %i64 = extractvalue { i64, i1 } %i62, 1, !dbg !2146
  %i65 = zext i1 %i64 to i8, !dbg !2146
  store i64 %i63, ptr %_8, align 8, !dbg !2146
  %i66 = getelementptr inbounds { i64, i8 }, ptr %_8, i32 0, i32 1, !dbg !2146
  store i8 %i65, ptr %i66, align 8, !dbg !2146
  br label %bb25, !dbg !2146

bb20:                                             ; preds = %bb5
  %i67 = cmpxchg ptr %dst, i64 %old, i64 %new acq_rel seq_cst, align 8, !dbg !2147
  %i68 = extractvalue { i64, i1 } %i67, 0, !dbg !2147
  %i69 = extractvalue { i64, i1 } %i67, 1, !dbg !2147
  %i70 = zext i1 %i69 to i8, !dbg !2147
  store i64 %i68, ptr %_8, align 8, !dbg !2147
  %i71 = getelementptr inbounds { i64, i8 }, ptr %_8, i32 0, i32 1, !dbg !2147
  store i8 %i70, ptr %i71, align 8, !dbg !2147
  br label %bb25, !dbg !2147

bb21:                                             ; preds = %bb6
  %i72 = cmpxchg ptr %dst, i64 %old, i64 %new seq_cst monotonic, align 8, !dbg !2148
  %i73 = extractvalue { i64, i1 } %i72, 0, !dbg !2148
  %i74 = extractvalue { i64, i1 } %i72, 1, !dbg !2148
  %i75 = zext i1 %i74 to i8, !dbg !2148
  store i64 %i73, ptr %_8, align 8, !dbg !2148
  %i76 = getelementptr inbounds { i64, i8 }, ptr %_8, i32 0, i32 1, !dbg !2148
  store i8 %i75, ptr %i76, align 8, !dbg !2148
  br label %bb25, !dbg !2148

bb22:                                             ; preds = %bb6
  %i77 = cmpxchg ptr %dst, i64 %old, i64 %new seq_cst acquire, align 8, !dbg !2149
  %i78 = extractvalue { i64, i1 } %i77, 0, !dbg !2149
  %i79 = extractvalue { i64, i1 } %i77, 1, !dbg !2149
  %i80 = zext i1 %i79 to i8, !dbg !2149
  store i64 %i78, ptr %_8, align 8, !dbg !2149
  %i81 = getelementptr inbounds { i64, i8 }, ptr %_8, i32 0, i32 1, !dbg !2149
  store i8 %i80, ptr %i81, align 8, !dbg !2149
  br label %bb25, !dbg !2149

bb23:                                             ; preds = %bb6
  %i82 = cmpxchg ptr %dst, i64 %old, i64 %new seq_cst seq_cst, align 8, !dbg !2150
  %i83 = extractvalue { i64, i1 } %i82, 0, !dbg !2150
  %i84 = extractvalue { i64, i1 } %i82, 1, !dbg !2150
  %i85 = zext i1 %i84 to i8, !dbg !2150
  store i64 %i83, ptr %_8, align 8, !dbg !2150
  %i86 = getelementptr inbounds { i64, i8 }, ptr %_8, i32 0, i32 1, !dbg !2150
  store i8 %i85, ptr %i86, align 8, !dbg !2150
  br label %bb25, !dbg !2150

bb27:                                             ; preds = %bb25
  %i87 = getelementptr inbounds { i64, i64 }, ptr %_0, i32 0, i32 1, !dbg !2151
  store i64 %i91, ptr %i87, align 8, !dbg !2151
  store i64 1, ptr %_0, align 8, !dbg !2151
  br label %Flow, !dbg !2152

Flow:                                             ; preds = %bb27, %bb25
  %0 = phi i1 [ false, %bb27 ], [ true, %bb25 ], !dbg !2137
  br i1 %0, label %bb26, label %bb28, !dbg !2137

bb26:                                             ; preds = %Flow
  %i88 = getelementptr inbounds { i64, i64 }, ptr %_0, i32 0, i32 1, !dbg !2153
  store i64 %i91, ptr %i88, align 8, !dbg !2153
  store i64 0, ptr %_0, align 8, !dbg !2153
  br label %bb28, !dbg !2152

bb28:                                             ; preds = %bb26, %Flow
  %i89 = phi i64 [ 1, %Flow ], [ 0, %bb26 ], !dbg !2154
  %i92 = insertvalue { i64, i64 } poison, i64 %i89, 0, !dbg !2154
  %i93 = insertvalue { i64, i64 } %i92, i64 %i91, 1, !dbg !2154
  ret { i64, i64 } %i93, !dbg !2154

bb31:                                             ; preds = %bb2
  store ptr null, ptr %_29, align 8, !dbg !2155
  store ptr @alloc_04ab601c54c6e0a22ff11d72dc7f4511, ptr %_20, align 8, !dbg !2160
  %i94 = getelementptr inbounds { ptr, i64 }, ptr %_20, i32 0, i32 1, !dbg !2160
  store i64 1, ptr %i94, align 8, !dbg !2160
  %i98 = getelementptr inbounds %"core::fmt::Arguments<'_>", ptr %_20, i32 0, i32 2, !dbg !2160
  store ptr null, ptr %i98, align 8, !dbg !2160
  %i99 = getelementptr inbounds { ptr, i64 }, ptr %i98, i32 0, i32 1, !dbg !2160
  store i64 undef, ptr %i99, align 8, !dbg !2160
  %i100 = getelementptr inbounds %"core::fmt::Arguments<'_>", ptr %_20, i32 0, i32 1, !dbg !2160
  store ptr @alloc_513570631223a12912d85da2bec3b15a, ptr %i100, align 8, !dbg !2160
  %i101 = getelementptr inbounds { ptr, i64 }, ptr %i100, i32 0, i32 1, !dbg !2160
  store i64 0, ptr %i101, align 8, !dbg !2160
  call void @_ZN4core9panicking9panic_fmt17hff768cef35397791E(ptr align 8 %_20, ptr align 8 @alloc_826fa8dc4bf9d95988bea67cf29fdc26) #31, !dbg !2161
  unreachable

bb34:                                             ; preds = %bb2
  store ptr null, ptr %_38, align 8, !dbg !2162
  store ptr @alloc_dd7d8f77c173bf31726eae321f955bec, ptr %_17, align 8, !dbg !2164
  %i102 = getelementptr inbounds { ptr, i64 }, ptr %_17, i32 0, i32 1, !dbg !2164
  store i64 1, ptr %i102, align 8, !dbg !2164
  %i106 = getelementptr inbounds %"core::fmt::Arguments<'_>", ptr %_17, i32 0, i32 2, !dbg !2164
  store ptr null, ptr %i106, align 8, !dbg !2164
  %i107 = getelementptr inbounds { ptr, i64 }, ptr %i106, i32 0, i32 1, !dbg !2164
  store i64 undef, ptr %i107, align 8, !dbg !2164
  %i108 = getelementptr inbounds %"core::fmt::Arguments<'_>", ptr %_17, i32 0, i32 1, !dbg !2164
  store ptr @alloc_513570631223a12912d85da2bec3b15a, ptr %i108, align 8, !dbg !2164
  %i109 = getelementptr inbounds { ptr, i64 }, ptr %i108, i32 0, i32 1, !dbg !2164
  store i64 0, ptr %i109, align 8, !dbg !2164
  call void @_ZN4core9panicking9panic_fmt17hff768cef35397791E(ptr align 8 %_17, ptr align 8 @alloc_69680bf1a9adc0c1931d0dbd2195eaef) #31, !dbg !2165
  unreachable
}

; Function Attrs: inlinehint nounwind
define internal fastcc i64 @_ZN4core4sync6atomic11atomic_load17h28b1f880c87f07e1E(ptr nocapture readonly %dst, i8 %arg) unnamed_addr #5 !dbg !2166 {
start:
  %_26 = alloca { ptr, i64 }, align 8
  %_17 = alloca { ptr, i64 }, align 8
  %_8 = alloca %"core::fmt::Arguments<'_>", align 8
  %_5 = alloca %"core::fmt::Arguments<'_>", align 8
  %_0 = alloca i64, align 8
  %order = alloca i8, align 1
  store i8 %arg, ptr %order, align 1
  %_3 = zext i8 %arg to i64, !dbg !2167
  switch i64 %_3, label %bb2 [
    i64 0, label %bb3
    i64 1, label %bb13
    i64 2, label %bb4
    i64 3, label %bb10
    i64 4, label %bb5
  ], !dbg !2169

bb2:                                              ; preds = %start
  unreachable

bb3:                                              ; preds = %start
  %i2 = load atomic i64, ptr %dst monotonic, align 8, !dbg !2170
  store i64 %i2, ptr %_0, align 8, !dbg !2170
  br label %bb7, !dbg !2170

bb4:                                              ; preds = %start
  %i3 = load atomic i64, ptr %dst acquire, align 8, !dbg !2171
  store i64 %i3, ptr %_0, align 8, !dbg !2171
  br label %bb7, !dbg !2171

bb5:                                              ; preds = %start
  %i4 = load atomic i64, ptr %dst seq_cst, align 8, !dbg !2172
  store i64 %i4, ptr %_0, align 8, !dbg !2172
  br label %bb7, !dbg !2172

bb7:                                              ; preds = %bb5, %bb4, %bb3
  %i5 = phi i64 [ %i4, %bb5 ], [ %i3, %bb4 ], [ %i2, %bb3 ], !dbg !2173
  ret i64 %i5, !dbg !2173

bb13:                                             ; preds = %start
  store ptr null, ptr %_26, align 8, !dbg !2174
  store ptr @alloc_cf8f91dd8bc9347b20052f6ccc905cd7, ptr %_5, align 8, !dbg !2179
  %i6 = getelementptr inbounds { ptr, i64 }, ptr %_5, i32 0, i32 1, !dbg !2179
  store i64 1, ptr %i6, align 8, !dbg !2179
  %i10 = getelementptr inbounds %"core::fmt::Arguments<'_>", ptr %_5, i32 0, i32 2, !dbg !2179
  store ptr null, ptr %i10, align 8, !dbg !2179
  %i11 = getelementptr inbounds { ptr, i64 }, ptr %i10, i32 0, i32 1, !dbg !2179
  store i64 undef, ptr %i11, align 8, !dbg !2179
  %i12 = getelementptr inbounds %"core::fmt::Arguments<'_>", ptr %_5, i32 0, i32 1, !dbg !2179
  store ptr @alloc_513570631223a12912d85da2bec3b15a, ptr %i12, align 8, !dbg !2179
  %i13 = getelementptr inbounds { ptr, i64 }, ptr %i12, i32 0, i32 1, !dbg !2179
  store i64 0, ptr %i13, align 8, !dbg !2179
  call void @_ZN4core9panicking9panic_fmt17hff768cef35397791E(ptr align 8 %_5, ptr align 8 @alloc_4c32346d01eeb3c0619dc95e0468893e) #31, !dbg !2180
  unreachable

bb10:                                             ; preds = %start
  store ptr null, ptr %_17, align 8, !dbg !2181
  store ptr @alloc_7e8e9a1d4bc7d0bbec692f0a50681e22, ptr %_8, align 8, !dbg !2183
  %i14 = getelementptr inbounds { ptr, i64 }, ptr %_8, i32 0, i32 1, !dbg !2183
  store i64 1, ptr %i14, align 8, !dbg !2183
  %i18 = getelementptr inbounds %"core::fmt::Arguments<'_>", ptr %_8, i32 0, i32 2, !dbg !2183
  store ptr null, ptr %i18, align 8, !dbg !2183
  %i19 = getelementptr inbounds { ptr, i64 }, ptr %i18, i32 0, i32 1, !dbg !2183
  store i64 undef, ptr %i19, align 8, !dbg !2183
  %i20 = getelementptr inbounds %"core::fmt::Arguments<'_>", ptr %_8, i32 0, i32 1, !dbg !2183
  store ptr @alloc_513570631223a12912d85da2bec3b15a, ptr %i20, align 8, !dbg !2183
  %i21 = getelementptr inbounds { ptr, i64 }, ptr %i20, i32 0, i32 1, !dbg !2183
  store i64 0, ptr %i21, align 8, !dbg !2183
  call void @_ZN4core9panicking9panic_fmt17hff768cef35397791E(ptr align 8 %_8, ptr align 8 @alloc_93c532d79ae5a1fe4b07989efd8a35e4) #31, !dbg !2184
  unreachable
}

; Function Attrs: inlinehint nounwind
define internal fastcc void @_ZN4core4sync6atomic12atomic_store17hba467db7bb2754c1E(ptr nocapture writeonly %dst, i64 %val, i8 %arg) unnamed_addr #5 !dbg !2185 {
start:
  %_27 = alloca { ptr, i64 }, align 8
  %_18 = alloca { ptr, i64 }, align 8
  %_9 = alloca %"core::fmt::Arguments<'_>", align 8
  %_6 = alloca %"core::fmt::Arguments<'_>", align 8
  %order = alloca i8, align 1
  store i8 %arg, ptr %order, align 1
  %_4 = zext i8 %arg to i64, !dbg !2186
  switch i64 %_4, label %bb2 [
    i64 0, label %bb3
    i64 1, label %bb4
    i64 2, label %bb13
    i64 3, label %bb10
    i64 4, label %bb5
  ], !dbg !2188

bb2:                                              ; preds = %start
  unreachable

bb3:                                              ; preds = %start
  store atomic i64 %val, ptr %dst monotonic, align 8, !dbg !2189
  br label %bb7, !dbg !2189

bb4:                                              ; preds = %start
  store atomic i64 %val, ptr %dst release, align 8, !dbg !2190
  br label %bb7, !dbg !2190

bb5:                                              ; preds = %start
  store atomic i64 %val, ptr %dst seq_cst, align 8, !dbg !2191
  br label %bb7, !dbg !2191

bb7:                                              ; preds = %bb5, %bb4, %bb3
  ret void, !dbg !2192

bb13:                                             ; preds = %start
  store ptr null, ptr %_27, align 8, !dbg !2193
  store ptr @alloc_47c752ba42fbab56d43a37cfd56e4899, ptr %_6, align 8, !dbg !2198
  %i2 = getelementptr inbounds { ptr, i64 }, ptr %_6, i32 0, i32 1, !dbg !2198
  store i64 1, ptr %i2, align 8, !dbg !2198
  %i6 = getelementptr inbounds %"core::fmt::Arguments<'_>", ptr %_6, i32 0, i32 2, !dbg !2198
  store ptr null, ptr %i6, align 8, !dbg !2198
  %i7 = getelementptr inbounds { ptr, i64 }, ptr %i6, i32 0, i32 1, !dbg !2198
  store i64 undef, ptr %i7, align 8, !dbg !2198
  %i8 = getelementptr inbounds %"core::fmt::Arguments<'_>", ptr %_6, i32 0, i32 1, !dbg !2198
  store ptr @alloc_513570631223a12912d85da2bec3b15a, ptr %i8, align 8, !dbg !2198
  %i9 = getelementptr inbounds { ptr, i64 }, ptr %i8, i32 0, i32 1, !dbg !2198
  store i64 0, ptr %i9, align 8, !dbg !2198
  call void @_ZN4core9panicking9panic_fmt17hff768cef35397791E(ptr align 8 %_6, ptr align 8 @alloc_cb63d255000c7e9fed7db8f9c4b60326) #31, !dbg !2199
  unreachable

bb10:                                             ; preds = %start
  store ptr null, ptr %_18, align 8, !dbg !2200
  store ptr @alloc_f8dbac861f87e25e445761cc4af66745, ptr %_9, align 8, !dbg !2202
  %i10 = getelementptr inbounds { ptr, i64 }, ptr %_9, i32 0, i32 1, !dbg !2202
  store i64 1, ptr %i10, align 8, !dbg !2202
  %i14 = getelementptr inbounds %"core::fmt::Arguments<'_>", ptr %_9, i32 0, i32 2, !dbg !2202
  store ptr null, ptr %i14, align 8, !dbg !2202
  %i15 = getelementptr inbounds { ptr, i64 }, ptr %i14, i32 0, i32 1, !dbg !2202
  store i64 undef, ptr %i15, align 8, !dbg !2202
  %i16 = getelementptr inbounds %"core::fmt::Arguments<'_>", ptr %_9, i32 0, i32 1, !dbg !2202
  store ptr @alloc_513570631223a12912d85da2bec3b15a, ptr %i16, align 8, !dbg !2202
  %i17 = getelementptr inbounds { ptr, i64 }, ptr %i16, i32 0, i32 1, !dbg !2202
  store i64 0, ptr %i17, align 8, !dbg !2202
  call void @_ZN4core9panicking9panic_fmt17hff768cef35397791E(ptr align 8 %_9, ptr align 8 @alloc_2061bd2e099bb1065f735aed396f79a4) #31, !dbg !2203
  unreachable
}

; Function Attrs: nounwind
define internal fastcc void @_ZN3std6thread7Builder15spawn_unchecked17hc6cabdf85666c934E(ptr noalias nocapture writeonly align 8 %_0, ptr nocapture readonly align 8 %self, ptr %f) unnamed_addr #3 !dbg !2204 {
start:
  %_12 = alloca ptr, align 8
  %residual = alloca ptr, align 8
  %self1 = alloca %"core::result::Result<std::thread::JoinHandle<()>, std::io::error::Error>", align 8
  %_4 = alloca %"core::result::Result<std::thread::JoinHandle<()>, std::io::error::Error>", align 8
  call fastcc void @_ZN3std6thread7Builder16spawn_unchecked_17he50ffee1e650942cE(ptr noalias align 8 %self1, ptr align 8 %self, ptr %f, ptr null) #30, !dbg !2205
  %i = load ptr, ptr %self1, align 8, !dbg !2207, !noundef !15
  %i3 = ptrtoint ptr %i to i64, !dbg !2207
  %i4 = icmp eq i64 %i3, 0, !dbg !2207
  br i1 %i4, label %bb7, label %Flow17, !dbg !2211

Flow17:                                           ; preds = %bb7, %start
  %0 = phi i1 [ false, %bb7 ], [ true, %start ], !dbg !2211
  br i1 %0, label %bb8, label %bb6, !dbg !2211

bb8:                                              ; preds = %Flow17
  call void @llvm.memcpy.p0.p0.i64(ptr align 8 %_4, ptr align 8 %self1, i64 24, i1 false), !dbg !2212
  %i9.pre = load ptr, ptr %_4, align 8, !dbg !2210
  br label %bb6, !dbg !2213

bb7:                                              ; preds = %start
  %i6 = getelementptr inbounds %"std::io::error::ErrorData<alloc::boxed::Box<std::io::error::Custom>>::Custom", ptr %self1, i32 0, i32 1, !dbg !2214
  %e = load ptr, ptr %i6, align 8, !dbg !2214, !nonnull !15, !noundef !15
  store ptr %e, ptr %_12, align 8, !dbg !2215
  %i8 = getelementptr inbounds %"std::io::error::ErrorData<alloc::boxed::Box<std::io::error::Custom>>::Custom", ptr %_4, i32 0, i32 1, !dbg !2217
  store ptr %e, ptr %i8, align 8, !dbg !2217
  store ptr null, ptr %_4, align 8, !dbg !2217
  br label %Flow17, !dbg !2218

bb6:                                              ; preds = %bb8, %Flow17
  %i9 = phi ptr [ null, %Flow17 ], [ %i9.pre, %bb8 ], !dbg !2210
  %i10 = ptrtoint ptr %i9 to i64, !dbg !2210
  %i11 = icmp eq i64 %i10, 0, !dbg !2210
  br i1 %i11, label %bb4, label %Flow, !dbg !2210

Flow:                                             ; preds = %bb4, %bb6
  %1 = phi i1 [ false, %bb4 ], [ true, %bb6 ], !dbg !2210
  br i1 %1, label %bb2, label %bb5, !dbg !2210

bb2:                                              ; preds = %Flow
  call void @llvm.memcpy.p0.p0.i64(ptr align 8 %_0, ptr align 8 %_4, i64 24, i1 false), !dbg !2210
  br label %bb5, !dbg !2219

bb4:                                              ; preds = %bb6
  %i13 = getelementptr inbounds %"std::io::error::ErrorData<alloc::boxed::Box<std::io::error::Custom>>::Custom", ptr %_4, i32 0, i32 1, !dbg !2220
  %i14 = load ptr, ptr %i13, align 8, !dbg !2220, !nonnull !15, !noundef !15
  store ptr %i14, ptr %residual, align 8, !dbg !2220
  %i15 = getelementptr inbounds %"std::io::error::ErrorData<alloc::boxed::Box<std::io::error::Custom>>::Custom", ptr %_0, i32 0, i32 1, !dbg !2221
  store ptr %i14, ptr %i15, align 8, !dbg !2221
  store ptr null, ptr %_0, align 8, !dbg !2221
  br label %Flow, !dbg !2219

bb5:                                              ; preds = %bb2, %Flow
  ret void, !dbg !2228
}

; Function Attrs: inlinehint noreturn nounwind
define internal fastcc void @"_ZN4core6result19Result$LT$T$C$E$GT$6expect17heea16b9d55143a61E.8.bb1"(ptr %self.8.val, ptr %e, ptr %msg.0, i64 %msg.1, ptr %arg) unnamed_addr #10 personality ptr @rust_eh_personality !dbg !2229 {
newFuncRoot:
  %0 = icmp ne ptr %self.8.val, null
  call void @llvm.assume(i1 %0)
  store ptr %self.8.val, ptr %e, align 8, !dbg !2230
  call void @_ZN4core6result13unwrap_failed17h951d84d71b0bada2E(ptr align 1 %msg.0, i64 %msg.1, ptr align 1 %e, ptr align 8 @vtable.5, ptr align 8 %arg) #31, !dbg !2231
  unreachable, !dbg !2231
}

; Function Attrs: nounwind
declare zeroext i1 @"_ZN58_$LT$std..io..error..Error$u20$as$u20$core..fmt..Debug$GT$3fmt17hebd0cc014ce90354E"(ptr align 8, ptr align 8) unnamed_addr #3

; Function Attrs: nounwind
define internal fastcc void @_ZN3std6thread7Builder16spawn_unchecked_17he50ffee1e650942cE(ptr noalias nocapture writeonly align 8 %_0, ptr nocapture readonly align 8 %self, ptr %arg, ptr %arg29) unnamed_addr #3 personality ptr @rust_eh_personality !dbg !2233 {
start:
  %e.i = alloca %"alloc::ffi::c_str::NulError", align 8
  %self.i = alloca ptr, align 8
  %_4.i17 = alloca { ptr, i64 }, align 8
  %layout.i = alloca { i64, i64 }, align 8
  %_100 = alloca ptr, align 8
  %_94 = alloca { ptr, ptr }, align 8
  %_93 = alloca { ptr, ptr }, align 8
  %leaked = alloca ptr, align 8
  %_86 = alloca ptr, align 8
  %b = alloca ptr, align 8
  %_68 = alloca ptr, align 8
  %_67 = alloca ptr, align 8
  %_59 = alloca ptr, align 8
  %_57 = alloca %"core::result::Result<alloc::ffi::c_str::CString, alloc::ffi::c_str::NulError>", align 8
  %x = alloca %"alloc::string::String", align 8
  %_51 = alloca i8, align 1
  %_50 = alloca i8, align 1
  %_49 = alloca i8, align 1
  %_48 = alloca i8, align 1
  %_47 = alloca i8, align 1
  %_46 = alloca i8, align 1
  %_45 = alloca i8, align 1
  %residual = alloca ptr, align 8
  %self5 = alloca %"core::result::Result<usize, std::io::error::Error>", align 8
  %_37 = alloca %"core::result::Result<usize, std::io::error::Error>", align 8
  %_36 = alloca %"std::thread::JoinInner<'_, ()>", align 8
  %main4 = alloca { ptr, ptr }, align 8
  %_33 = alloca %"{closure@std::thread::Builder::spawn_unchecked_<'_, '_, {closure@data/RUSTSEC_2022_0070.rs:48:28: 48:35}, ()>::{closure#1}}", align 8
  %main = alloca %"{closure@std::thread::Builder::spawn_unchecked_<'_, '_, {closure@data/RUSTSEC_2022_0070.rs:48:28: 48:35}, ()>::{closure#1}}", align 8
  %f3 = alloca ptr, align 8
  %_21 = alloca ptr, align 8
  %_20 = alloca ptr, align 8
  %output_capture = alloca ptr, align 8
  %their_packet = alloca ptr, align 8
  %value = alloca %"core::option::Option<core::result::Result<(), alloc::boxed::Box<dyn core::any::Any + core::marker::Send>>>", align 8
  %_13 = alloca %"std::thread::Packet<'_, ()>", align 8
  %my_packet = alloca ptr, align 8
  %their_thread = alloca ptr, align 8
  %self2 = alloca %"core::option::Option<core::result::Result<(), alloc::boxed::Box<dyn core::any::Any + core::marker::Send>>>", align 8
  %_8 = alloca { ptr, i64 }, align 8
  %my_thread = alloca ptr, align 8
  %stack_size1 = alloca i64, align 8
  %stack_size = alloca { i64, i64 }, align 8
  %name = alloca %"core::option::Option<core::result::Result<(), alloc::boxed::Box<dyn core::any::Any + core::marker::Send>>>", align 8
  %scope_data = alloca ptr, align 8
  %f = alloca ptr, align 8
  store ptr %arg, ptr %f, align 8
  store ptr %arg29, ptr %scope_data, align 8
  store i8 1, ptr %_51, align 1, !dbg !2234
  store i8 1, ptr %_50, align 1, !dbg !2234
  store i8 1, ptr %_49, align 1, !dbg !2235
  %i = getelementptr inbounds %"std::thread::Builder", ptr %self, i32 0, i32 1, !dbg !2235
  call void @llvm.memcpy.p0.p0.i64(ptr align 8 %name, ptr align 8 %i, i64 24, i1 false), !dbg !2235
  %i30 = load i64, ptr %self, align 8, !dbg !2236, !range !860, !noundef !15
  %i31 = getelementptr inbounds { i64, i64 }, ptr %self, i32 0, i32 1, !dbg !2236
  %i32 = load i64, ptr %i31, align 8, !dbg !2236
  store i64 %i30, ptr %stack_size, align 8, !dbg !2236
  %i33 = getelementptr inbounds { i64, i64 }, ptr %stack_size, i32 0, i32 1, !dbg !2236
  store i64 %i32, ptr %i33, align 8, !dbg !2236
  %i34 = icmp ne i64 %i30, 0, !dbg !2237
  br i1 %i34, label %bb37, label %Flow119, !dbg !2237

Flow119:                                          ; preds = %bb37, %start
  %0 = phi i1 [ false, %bb37 ], [ true, %start ], !dbg !2237
  br i1 %0, label %bb36, label %bb38, !dbg !2237

bb36:                                             ; preds = %Flow119
  %i35 = call fastcc i64 @_ZN4core3ops8function6FnOnce9call_once17h303c24437b950f81E() #30, !dbg !2242
  store i64 %i35, ptr %stack_size1, align 8, !dbg !2242
  br label %bb38, !dbg !2242

bb37:                                             ; preds = %start
  store i64 %i32, ptr %stack_size1, align 8, !dbg !2243
  br label %Flow119, !dbg !2245

bb38:                                             ; preds = %bb36, %Flow119
  %_39 = phi i64 [ %i32, %Flow119 ], [ %i35, %bb36 ]
  store i8 0, ptr %_49, align 1, !dbg !2246
  call void @llvm.memcpy.p0.p0.i64(ptr align 8 %self2, ptr align 8 %name, i64 24, i1 false), !dbg !2246
  %i37 = load i64, ptr %self2, align 8, !dbg !2248, !range !2252, !noundef !15
  %i38 = icmp eq i64 %i37, -9223372036854775808, !dbg !2248
  br i1 %i38, label %bb39, label %bb40, !dbg !2253

bb39:                                             ; preds = %bb38
  store ptr null, ptr %_8, align 8, !dbg !2254
  br label %bb41, !dbg !2254

bb40:                                             ; preds = %bb38
  call void @llvm.memcpy.p0.p0.i64(ptr align 8 %x, ptr align 8 %name, i64 24, i1 false), !dbg !2255
  call fastcc void @"_ZN66_$LT$T$u20$as$u20$alloc..ffi..c_str..CString..new..SpecNewImpl$GT$13spec_new_impl17hdbcbed5775922ab7E"(ptr noalias align 8 %_57, ptr align 8 %x) #30, !dbg !2256
  call void @llvm.lifetime.start.p0(i64 32, ptr %e.i), !dbg !2267
  %i39 = load i64, ptr %_57, align 8, !dbg !2267, !range !2252, !noundef !15
  %i40 = icmp eq i64 %i39, -9223372036854775808, !dbg !2267
  br i1 %i40, label %bb3.i20, label %codeRepl.i19, !dbg !2270

bb41:                                             ; preds = %bb3.i20, %bb39
  %i43 = phi i64 [ %t.1.i, %bb3.i20 ], [ undef, %bb39 ], !dbg !2271
  %i41 = phi ptr [ %t.0.i, %bb3.i20 ], [ null, %bb39 ], !dbg !2271
  %i44 = call ptr @_ZN3std6thread6Thread3new17hea10f76511d1c31bE(ptr align 1 %i41, i64 %i43) #30, !dbg !2271
  store ptr %i44, ptr %my_thread, align 8, !dbg !2271
  %_61 = call fastcc ptr @"_ZN68_$LT$alloc..sync..Arc$LT$T$C$A$GT$$u20$as$u20$core..clone..Clone$GT$5clone17h36a5152bd7baf03cE"(ptr align 8 %my_thread) #30, !dbg !2272
  store ptr %_61, ptr %_59, align 8, !dbg !2272
  store ptr %_61, ptr %their_thread, align 8, !dbg !2284
  store i8 1, ptr %_48, align 1, !dbg !2285
  store i8 0, ptr %_50, align 1, !dbg !2286
  store i64 0, ptr %value, align 8, !dbg !2288
  %i46 = getelementptr inbounds %"std::thread::Packet<'_, ()>", ptr %_13, i32 0, i32 1, !dbg !2289
  call void @llvm.memcpy.p0.p0.i64(ptr align 8 %i46, ptr align 8 %value, i64 24, i1 false), !dbg !2290
  store ptr %arg29, ptr %_13, align 8, !dbg !2289
  %i47 = call fastcc ptr @"_ZN5alloc4sync12Arc$LT$T$GT$3new17ha75f16fa1727aa6cE"(ptr align 8 %_13) #30, !dbg !2294
  store ptr %i47, ptr %my_packet, align 8, !dbg !2294
  %i48 = call fastcc ptr @"_ZN68_$LT$alloc..sync..Arc$LT$T$C$A$GT$$u20$as$u20$core..clone..Clone$GT$5clone17h36a5152bd7baf03cE"(ptr align 8 %my_packet) #30, !dbg !2295
  store ptr %i48, ptr %their_packet, align 8, !dbg !2295
  store i8 1, ptr %_47, align 1, !dbg !2297
  %i49 = call ptr @_ZN3std2io5stdio18set_output_capture17h065a585a611571f7E(ptr null) #30, !dbg !2298
  store ptr %i49, ptr %output_capture, align 8, !dbg !2298
  store i8 1, ptr %_46, align 1, !dbg !2300
  %i51 = ptrtoint ptr %i49 to i64, !dbg !2301
  %i52 = icmp ne i64 %i51, 0, !dbg !2301
  br i1 %i52, label %bb47, label %Flow118, !dbg !2307

bb3.i20:                                          ; preds = %bb40
  %i53 = getelementptr inbounds %"core::result::Result<alloc::ffi::c_str::CString, alloc::ffi::c_str::NulError>::Ok", ptr %_57, i32 0, i32 1, !dbg !2308
  %t.0.i = load ptr, ptr %i53, align 8, !dbg !2308, !nonnull !15, !align !194, !noundef !15
  %i54 = getelementptr inbounds { ptr, i64 }, ptr %i53, i32 0, i32 1, !dbg !2308
  %t.1.i = load i64, ptr %i54, align 8, !dbg !2308, !noundef !15
  call void @llvm.lifetime.end.p0(i64 32, ptr %e.i), !dbg !2309
  store ptr %t.0.i, ptr %_8, align 8, !dbg !2310
  %i55 = getelementptr inbounds { ptr, i64 }, ptr %_8, i32 0, i32 1, !dbg !2310
  store i64 %t.1.i, ptr %i55, align 8, !dbg !2310
  br label %bb41, !dbg !2311

codeRepl.i19:                                     ; preds = %bb40
  call fastcc void @"_ZN4core6result19Result$LT$T$C$E$GT$6expect17h4a18f7e27a00c6afE.9.bb1"(ptr %e.i, ptr %_57, ptr @alloc_498705839b3ae85466bce6e7ebfe4996, i64 47, ptr @alloc_10ce3643ab05b89124ccab86e25db141), !dbg !2312
  unreachable

Flow118:                                          ; preds = %bb47, %bb41
  %1 = phi ptr [ %_65, %bb47 ], [ undef, %bb41 ]
  %2 = phi i1 [ false, %bb47 ], [ true, %bb41 ], !dbg !2307
  br i1 %2, label %bb46, label %bb45, !dbg !2307

bb46:                                             ; preds = %Flow118
  store ptr null, ptr %_21, align 8, !dbg !2313
  br label %bb45, !dbg !2313

bb47:                                             ; preds = %bb41
  %_65 = call fastcc ptr @"_ZN68_$LT$alloc..sync..Arc$LT$T$C$A$GT$$u20$as$u20$core..clone..Clone$GT$5clone17h36a5152bd7baf03cE"(ptr align 8 %output_capture) #30, !dbg !2314
  store ptr %_65, ptr %_21, align 8, !dbg !2316
  br label %Flow118, !dbg !2317

bb45:                                             ; preds = %bb46, %Flow118
  %i56 = phi ptr [ %1, %Flow118 ], [ null, %bb46 ], !dbg !2318
  %i57 = call ptr @_ZN3std2io5stdio18set_output_capture17h065a585a611571f7E(ptr %i56) #30, !dbg !2318
  store ptr %i57, ptr %_20, align 8, !dbg !2318
  %i59 = ptrtoint ptr %i57 to i64, !dbg !2319
  %i60 = icmp ne i64 %i59, 0, !dbg !2319
  br i1 %i60, label %codeRepl.i23, label %bb6, !dbg !2319

codeRepl.i23:                                     ; preds = %bb45
  call fastcc void @"_ZN4core3ptr129drop_in_place$LT$core..option..Option$LT$alloc..sync..Arc$LT$std..sync..mutex..Mutex$LT$alloc..vec..Vec$LT$u8$GT$$GT$$GT$$GT$$GT$17h03dbd41a4760f1ceE.19.bb2"(ptr %_20), !dbg !2319
  br label %bb6

bb6:                                              ; preds = %codeRepl.i23, %bb45
  store i8 0, ptr %_51, align 1, !dbg !2322
  store ptr %arg, ptr %_68, align 8, !dbg !2323
  store ptr %arg, ptr %_67, align 8, !dbg !2337
  store ptr %arg, ptr %f3, align 8, !dbg !2338
  store i8 0, ptr %_48, align 1, !dbg !2339
  store i8 0, ptr %_46, align 1, !dbg !2339
  store i8 0, ptr %_47, align 1, !dbg !2339
  store i8 1, ptr %_45, align 1, !dbg !2339
  store ptr %_61, ptr %main, align 8, !dbg !2339
  %i64 = load ptr, ptr %output_capture, align 8, !dbg !2339, !noundef !15
  %i65 = getelementptr inbounds %"{closure@std::thread::Builder::spawn_unchecked_<'_, '_, {closure@data/RUSTSEC_2022_0070.rs:48:28: 48:35}, ()>::{closure#1}}", ptr %main, i32 0, i32 2, !dbg !2339
  store ptr %i64, ptr %i65, align 8, !dbg !2339
  %i67 = getelementptr inbounds %"{closure@std::thread::Builder::spawn_unchecked_<'_, '_, {closure@data/RUSTSEC_2022_0070.rs:48:28: 48:35}, ()>::{closure#1}}", ptr %main, i32 0, i32 3, !dbg !2339
  store ptr %arg, ptr %i67, align 8, !dbg !2339
  %i69 = getelementptr inbounds %"{closure@std::thread::Builder::spawn_unchecked_<'_, '_, {closure@data/RUSTSEC_2022_0070.rs:48:28: 48:35}, ()>::{closure#1}}", ptr %main, i32 0, i32 1, !dbg !2339
  store ptr %i48, ptr %i69, align 8, !dbg !2339
  %self8 = load ptr, ptr %my_packet, align 8, !dbg !2341, !nonnull !15, !noundef !15
  %i70 = getelementptr inbounds %"alloc::sync::ArcInner<std::thread::Packet<'_, ()>>", ptr %self8, i32 0, i32 2, !dbg !2355
  %i71 = load ptr, ptr %i70, align 8, !dbg !2355, !noundef !15
  %i72 = ptrtoint ptr %i71 to i64, !dbg !2355
  %i73 = icmp eq i64 %i72, 0, !dbg !2355
  %_27 = select i1 %i73, i64 0, i64 1, !dbg !2355
  %i74 = icmp eq i64 %_27, 1, !dbg !2355
  br i1 %i74, label %bb7, label %bb9, !dbg !2355

bb7:                                              ; preds = %bb6
  %_30 = getelementptr inbounds %"alloc::sync::ArcInner<std::thread::scoped::ScopeData>", ptr %i71, i32 0, i32 2, !dbg !2356
  call void @_ZN3std6thread6scoped9ScopeData29increment_num_running_threads17h3feb1e087ca97cebE(ptr align 8 %_30) #30, !dbg !2356
  br label %bb9, !dbg !2357

bb9:                                              ; preds = %bb7, %bb6
  store i8 0, ptr %_45, align 1, !dbg !2358
  call void @llvm.memcpy.p0.p0.i64(ptr align 8 %_33, ptr align 8 %main, i64 32, i1 false), !dbg !2358
  call void @llvm.lifetime.start.p0(i64 8, ptr %self.i), !dbg !2359
  call void @llvm.lifetime.start.p0(i64 16, ptr %_4.i17), !dbg !2359
  call void @llvm.lifetime.start.p0(i64 16, ptr %layout.i), !dbg !2359
  %i76 = getelementptr inbounds { i64, i64 }, ptr %layout.i, i32 0, i32 1, !dbg !2359
  store i64 32, ptr %i76, align 8, !dbg !2359
  store i64 8, ptr %layout.i, align 8, !dbg !2359
  %i80 = call fastcc { ptr, i64 } @_ZN5alloc5alloc6Global10alloc_impl17hf579a46dd897dcd9E(i64 8, i64 32, i1 zeroext false) #30, !dbg !2365
  store { ptr, i64 } %i80, ptr %_4.i17, align 8, !dbg !2365
  %i81 = load ptr, ptr %_4.i17, align 8, !dbg !2367, !noundef !15
  %i82 = ptrtoint ptr %i81 to i64, !dbg !2367
  %i83 = icmp eq i64 %i82, 0, !dbg !2367
  %_5.i = select i1 %i83, i64 1, i64 0, !dbg !2367
  %i84 = icmp eq i64 %_5.i, 0, !dbg !2368
  br i1 %i84, label %bb3.i, label %codeRepl.i, !dbg !2368

bb3.i:                                            ; preds = %bb9
  store ptr %i81, ptr %self.i, align 8, !dbg !2369
  call void @llvm.lifetime.end.p0(i64 8, ptr %self.i), !dbg !2373
  call void @llvm.lifetime.end.p0(i64 16, ptr %_4.i17), !dbg !2373
  call void @llvm.lifetime.end.p0(i64 16, ptr %layout.i), !dbg !2373
  call void @llvm.memcpy.p0.p0.i64(ptr align 8 %i81, ptr align 8 %main, i64 32, i1 false), !dbg !2374
  store ptr %i81, ptr %b, align 8, !dbg !2375
  store ptr %i81, ptr %_86, align 8, !dbg !2384
  store ptr %i81, ptr %leaked, align 8, !dbg !2396
  store ptr %i81, ptr %_94, align 8, !dbg !2405
  %i85 = getelementptr inbounds { ptr, ptr }, ptr %_94, i32 0, i32 1, !dbg !2405
  store ptr @vtable.2, ptr %i85, align 8, !dbg !2405
  store ptr %i81, ptr %_93, align 8, !dbg !2422
  %i89 = getelementptr inbounds { ptr, ptr }, ptr %_93, i32 0, i32 1, !dbg !2422
  store ptr @vtable.2, ptr %i89, align 8, !dbg !2422
  store ptr %i81, ptr %main4, align 8, !dbg !2423
  %i93 = getelementptr inbounds { ptr, ptr }, ptr %main4, i32 0, i32 1, !dbg !2423
  store ptr @vtable.2, ptr %i93, align 8, !dbg !2423
  call void @_ZN3std3sys4unix6thread6Thread3new17h355f164341fcc5b0E(ptr sret(%"core::result::Result<usize, std::io::error::Error>") align 8 %self5, i64 %_39, ptr align 1 %i81, ptr align 8 @vtable.2) #30, !dbg !2424
  %_97 = load i64, ptr %self5, align 8, !dbg !2427, !range !860, !noundef !15
  %i97 = icmp ne i64 %_97, 0, !dbg !2430
  br i1 %i97, label %bb50, label %Flow117, !dbg !2430

codeRepl.i:                                       ; preds = %bb9
  %layout.i.val = load i64, ptr %layout.i, align 8, !dbg !2431, !range !165, !noundef !15
  %3 = getelementptr i8, ptr %layout.i, i64 8, !dbg !2431
  %layout.i.val120 = load i64, ptr %3, align 8, !dbg !2431, !noundef !15
  call fastcc void @_ZN5alloc5alloc15exchange_malloc17hde11603628d604cbE.6.bb1(i64 %layout.i.val, i64 %layout.i.val120), !dbg !2431
  unreachable

Flow117:                                          ; preds = %bb50, %bb3.i
  %4 = phi ptr [ %e, %bb50 ], [ undef, %bb3.i ]
  %5 = phi i64 [ %8, %bb50 ], [ undef, %bb3.i ]
  %6 = phi i1 [ false, %bb50 ], [ true, %bb3.i ], !dbg !2430
  br i1 %6, label %bb51, label %bb49, !dbg !2430

bb51:                                             ; preds = %Flow117
  %i98 = getelementptr inbounds %"core::result::Result<usize, std::io::error::Error>::Ok", ptr %self5, i32 0, i32 1, !dbg !2432
  %v = load i64, ptr %i98, align 8, !dbg !2432, !noundef !15
  %i99 = getelementptr inbounds %"core::result::Result<usize, std::io::error::Error>::Ok", ptr %_37, i32 0, i32 1, !dbg !2433
  store i64 %v, ptr %i99, align 8, !dbg !2433
  store i64 0, ptr %_37, align 8, !dbg !2433
  %7 = inttoptr i64 %v to ptr, !dbg !2435
  br label %bb49, !dbg !2435

bb50:                                             ; preds = %bb3.i
  %i100 = getelementptr inbounds %"std::io::error::ErrorData<alloc::boxed::Box<std::io::error::Custom>>::Custom", ptr %self5, i32 0, i32 1, !dbg !2436
  %e = load ptr, ptr %i100, align 8, !dbg !2436, !nonnull !15, !noundef !15
  store ptr %e, ptr %_100, align 8, !dbg !2437
  %i102 = getelementptr inbounds %"std::io::error::ErrorData<alloc::boxed::Box<std::io::error::Custom>>::Custom", ptr %_37, i32 0, i32 1, !dbg !2439
  store ptr %e, ptr %i102, align 8, !dbg !2439
  store i64 1, ptr %_37, align 8, !dbg !2439
  %8 = ptrtoint ptr %e to i64, !dbg !2440
  br label %Flow117, !dbg !2440

bb49:                                             ; preds = %bb51, %Flow117
  %val = phi i64 [ %5, %Flow117 ], [ %v, %bb51 ]
  %i108 = phi ptr [ %4, %Flow117 ], [ %7, %bb51 ]
  %_40 = phi i64 [ 1, %Flow117 ], [ 0, %bb51 ], !dbg !2424
  %i103 = icmp ne i64 %_40, 0, !dbg !2424
  br i1 %i103, label %bb14, label %Flow, !dbg !2424

Flow:                                             ; preds = %bb14, %bb49
  %9 = phi i1 [ false, %bb14 ], [ true, %bb49 ], !dbg !2424
  br i1 %9, label %bb12, label %bb17, !dbg !2424

bb12:                                             ; preds = %Flow
  %_43 = load ptr, ptr %my_thread, align 8, !dbg !2441, !nonnull !15, !noundef !15
  %_44 = load ptr, ptr %my_packet, align 8, !dbg !2442, !nonnull !15, !noundef !15
  %i105 = getelementptr inbounds %"std::thread::JoinInner<'_, ()>", ptr %_36, i32 0, i32 2, !dbg !2443
  store i64 %val, ptr %i105, align 8, !dbg !2443
  store ptr %_43, ptr %_36, align 8, !dbg !2443
  %i106 = getelementptr inbounds %"std::thread::JoinInner<'_, ()>", ptr %_36, i32 0, i32 1, !dbg !2443
  store ptr %_44, ptr %i106, align 8, !dbg !2443
  call void @llvm.memcpy.p0.p0.i64(ptr align 8 %_0, ptr align 8 %_36, i64 24, i1 false), !dbg !2444
  br label %bb17, !dbg !2445

bb14:                                             ; preds = %bb49
  store ptr %i108, ptr %residual, align 8, !dbg !2446
  %i109 = getelementptr inbounds %"std::io::error::ErrorData<alloc::boxed::Box<std::io::error::Custom>>::Custom", ptr %_0, i32 0, i32 1, !dbg !2447
  store ptr %i108, ptr %i109, align 8, !dbg !2447
  store ptr null, ptr %_0, align 8, !dbg !2447
  call fastcc void @"_ZN4core3ptr80drop_in_place$LT$alloc..sync..Arc$LT$std..thread..Packet$LT$$LP$$RP$$GT$$GT$$GT$17he82bf0d8b6b14108E"(ptr align 8 %my_packet) #30, !dbg !2454
  call fastcc void @"_ZN4core3ptr40drop_in_place$LT$std..thread..Thread$GT$17h51532233b6119ee5E"(ptr align 8 %my_thread) #30, !dbg !2455
  br label %Flow, !dbg !2445

bb17:                                             ; preds = %bb12, %Flow
  ret void, !dbg !2456
}

; Function Attrs: inlinehint nounwind
define internal fastcc i64 @_ZN4core3ops8function6FnOnce9call_once17h303c24437b950f81E() unnamed_addr #5 !dbg !2457 {
start:
  %_0 = call i64 @_ZN3std10sys_common6thread9min_stack17hec1aa11dc675dcecE() #30, !dbg !2458
  ret i64 %_0, !dbg !2458
}

; Function Attrs: nounwind
define internal fastcc void @"_ZN66_$LT$T$u20$as$u20$alloc..ffi..c_str..CString..new..SpecNewImpl$GT$13spec_new_impl17hdbcbed5775922ab7E"(ptr noalias nocapture writeonly align 8 %_0, ptr nocapture readonly align 8 %self) unnamed_addr #3 personality ptr @rust_eh_personality !dbg !2459 {
start:
  %_22 = alloca { ptr, i64 }, align 8
  %_21 = alloca %"core::ptr::metadata::PtrRepr<[u8]>", align 8
  %_12 = alloca i8, align 1
  %_11 = alloca %"alloc::vec::Vec<u8>", align 8
  %_8 = alloca %"alloc::ffi::c_str::NulError", align 8
  %_3 = alloca { i64, i64 }, align 8
  %bytes = alloca %"alloc::vec::Vec<u8>", align 8
  call fastcc void @"_ZN50_$LT$T$u20$as$u20$core..convert..Into$LT$U$GT$$GT$4into17h07c2f9b20fa12307E"(ptr noalias align 8 %bytes, ptr align 8 %self) #30, !dbg !2463
  store i8 1, ptr %_12, align 1, !dbg !2464
  %i2 = getelementptr inbounds { i64, ptr }, ptr %bytes, i32 0, i32 1, !dbg !2465
  %self1 = load ptr, ptr %i2, align 8, !dbg !2465, !nonnull !15, !noundef !15
  %i3 = getelementptr inbounds %"alloc::vec::Vec<u8>", ptr %bytes, i32 0, i32 1, !dbg !2484
  %len = load i64, ptr %i3, align 8, !dbg !2484, !noundef !15
  store ptr %self1, ptr %_22, align 8, !dbg !2485
  %i4 = getelementptr inbounds { ptr, i64 }, ptr %_22, i32 0, i32 1, !dbg !2485
  store i64 %len, ptr %i4, align 8, !dbg !2485
  store ptr %self1, ptr %_21, align 8, !dbg !2499
  %i8 = getelementptr inbounds { ptr, i64 }, ptr %_21, i32 0, i32 1, !dbg !2499
  store i64 %len, ptr %i8, align 8, !dbg !2499
  %_23 = icmp uge i64 %len, 16, !dbg !2500
  br i1 %_23, label %bb13, label %Flow18, !dbg !2500

bb13:                                             ; preds = %start
  %i10 = call { i64, i64 } @_ZN4core5slice6memchr14memchr_aligned17h9b39bb3d55f68548E(i8 0, ptr align 1 %self1, i64 %len) #30, !dbg !2506
  store { i64, i64 } %i10, ptr %_3, align 8, !dbg !2506
  br label %Flow18, !dbg !2506

Flow18:                                           ; preds = %bb13, %start
  %0 = phi i1 [ false, %bb13 ], [ true, %start ], !dbg !2500
  br i1 %0, label %bb11, label %bb10, !dbg !2500

bb11:                                             ; preds = %Flow18
  %i11 = call fastcc { i64, i64 } @_ZN4core5slice6memchr12memchr_naive17h5d6673052df5ab44E(i8 0, ptr align 1 %self1, i64 %len) #30, !dbg !2507
  store { i64, i64 } %i11, ptr %_3, align 8, !dbg !2507
  br label %bb10, !dbg !2508

bb10:                                             ; preds = %bb11, %Flow18
  %_6 = load i64, ptr %_3, align 8, !dbg !2505, !range !860, !noundef !15
  %i12 = icmp ne i64 %_6, 0, !dbg !2509
  br i1 %i12, label %bb4, label %Flow, !dbg !2509

Flow:                                             ; preds = %bb4, %bb10
  %1 = phi i1 [ false, %bb4 ], [ true, %bb10 ], !dbg !2509
  br i1 %1, label %bb2, label %bb6, !dbg !2509

bb2:                                              ; preds = %Flow
  store i8 0, ptr %_12, align 1, !dbg !2510
  call void @llvm.memcpy.p0.p0.i64(ptr align 8 %_11, ptr align 8 %bytes, i64 24, i1 false), !dbg !2510
  %i13 = call { ptr, i64 } @_ZN5alloc3ffi5c_str7CString19_from_vec_unchecked17hdf7819dd1925a33cE(ptr align 8 %_11) #30, !dbg !2512
  %_10.0 = extractvalue { ptr, i64 } %i13, 0, !dbg !2512
  %_10.1 = extractvalue { ptr, i64 } %i13, 1, !dbg !2512
  %i14 = getelementptr inbounds %"core::result::Result<alloc::ffi::c_str::CString, alloc::ffi::c_str::NulError>::Ok", ptr %_0, i32 0, i32 1, !dbg !2513
  store ptr %_10.0, ptr %i14, align 8, !dbg !2513
  %i15 = getelementptr inbounds { ptr, i64 }, ptr %i14, i32 0, i32 1, !dbg !2513
  store i64 %_10.1, ptr %i15, align 8, !dbg !2513
  store i64 -9223372036854775808, ptr %_0, align 8, !dbg !2513
  br label %bb6, !dbg !2514

bb4:                                              ; preds = %bb10
  %i16 = getelementptr inbounds { i64, i64 }, ptr %_3, i32 0, i32 1, !dbg !2515
  %i = load i64, ptr %i16, align 8, !dbg !2515, !noundef !15
  call void @llvm.memcpy.p0.p0.i64(ptr align 8 %_8, ptr align 8 %bytes, i64 24, i1 false), !dbg !2516
  %i17 = getelementptr inbounds %"alloc::ffi::c_str::NulError", ptr %_8, i32 0, i32 1, !dbg !2518
  store i64 %i, ptr %i17, align 8, !dbg !2518
  call void @llvm.memcpy.p0.p0.i64(ptr align 8 %_0, ptr align 8 %_8, i64 32, i1 false), !dbg !2519
  br label %Flow, !dbg !2520

bb6:                                              ; preds = %bb2, %Flow
  ret void, !dbg !2521
}

; Function Attrs: nounwind
declare ptr @_ZN3std6thread6Thread3new17hea10f76511d1c31bE(ptr align 1, i64) unnamed_addr #3

; Function Attrs: inlinehint nounwind
define internal fastcc ptr @"_ZN5alloc4sync12Arc$LT$T$GT$3new17ha75f16fa1727aa6cE"(ptr nocapture readonly align 8 %data) unnamed_addr #5 personality ptr @rust_eh_personality !dbg !2522 {
start:
  %self.i = alloca ptr, align 8
  %_4.i1 = alloca { ptr, i64 }, align 8
  %layout.i = alloca { i64, i64 }, align 8
  %_11 = alloca ptr, align 8
  %ptr = alloca ptr, align 8
  %_5 = alloca %"core::sync::atomic::AtomicUsize", align 8
  %_4 = alloca %"core::sync::atomic::AtomicUsize", align 8
  %_3 = alloca %"alloc::sync::ArcInner<std::thread::Packet<'_, ()>>", align 8
  %_0 = alloca ptr, align 8
  store i64 1, ptr %_4, align 8, !dbg !2523
  store i64 1, ptr %_5, align 8, !dbg !2527
  %i3 = getelementptr inbounds %"alloc::sync::ArcInner<std::thread::Packet<'_, ()>>", ptr %_3, i32 0, i32 2, !dbg !2530
  call void @llvm.memcpy.p0.p0.i64(ptr align 8 %i3, ptr align 8 %data, i64 32, i1 false), !dbg !2531
  call void @llvm.memcpy.p0.p0.i64(ptr align 8 %_3, ptr align 8 %_4, i64 8, i1 false), !dbg !2530
  %i = getelementptr inbounds %"alloc::sync::ArcInner<std::thread::Packet<'_, ()>>", ptr %_3, i32 0, i32 1, !dbg !2530
  call void @llvm.memcpy.p0.p0.i64(ptr align 8 %i, ptr align 8 %_5, i64 8, i1 false), !dbg !2530
  call void @llvm.lifetime.start.p0(i64 8, ptr %self.i), !dbg !2532
  call void @llvm.lifetime.start.p0(i64 16, ptr %_4.i1), !dbg !2532
  call void @llvm.lifetime.start.p0(i64 16, ptr %layout.i), !dbg !2532
  %i4 = getelementptr inbounds { i64, i64 }, ptr %layout.i, i32 0, i32 1, !dbg !2532
  store i64 48, ptr %i4, align 8, !dbg !2532
  store i64 8, ptr %layout.i, align 8, !dbg !2532
  %i8 = call fastcc { ptr, i64 } @_ZN5alloc5alloc6Global10alloc_impl17hf579a46dd897dcd9E(i64 8, i64 48, i1 zeroext false) #30, !dbg !2538
  store { ptr, i64 } %i8, ptr %_4.i1, align 8, !dbg !2538
  %i9 = load ptr, ptr %_4.i1, align 8, !dbg !2540, !noundef !15
  %i10 = ptrtoint ptr %i9 to i64, !dbg !2540
  %i11 = icmp eq i64 %i10, 0, !dbg !2540
  %_5.i = select i1 %i11, i64 1, i64 0, !dbg !2540
  %i12 = icmp eq i64 %_5.i, 0, !dbg !2541
  br i1 %i12, label %bb3.i, label %codeRepl.i, !dbg !2541

bb3.i:                                            ; preds = %start
  store ptr %i9, ptr %self.i, align 8, !dbg !2542
  call void @llvm.lifetime.end.p0(i64 8, ptr %self.i), !dbg !2546
  call void @llvm.lifetime.end.p0(i64 16, ptr %_4.i1), !dbg !2546
  call void @llvm.lifetime.end.p0(i64 16, ptr %layout.i), !dbg !2546
  call void @llvm.memcpy.p0.p0.i64(ptr align 8 %i9, ptr align 8 %_3, i64 48, i1 false), !dbg !2547
  store ptr %i9, ptr %_11, align 8, !dbg !2548
  store ptr %i9, ptr %ptr, align 8, !dbg !2558
  store ptr %i9, ptr %_0, align 8, !dbg !2566
  ret ptr %i9, !dbg !2574

codeRepl.i:                                       ; preds = %start
  %layout.i.val = load i64, ptr %layout.i, align 8, !dbg !2575, !range !165, !noundef !15
  %0 = getelementptr i8, ptr %layout.i, i64 8, !dbg !2575
  %layout.i.val15 = load i64, ptr %0, align 8, !dbg !2575, !noundef !15
  call fastcc void @_ZN5alloc5alloc15exchange_malloc17hde11603628d604cbE.6.bb1(i64 %layout.i.val, i64 %layout.i.val15), !dbg !2575
  unreachable
}

; Function Attrs: nounwind
declare ptr @_ZN3std2io5stdio18set_output_capture17h065a585a611571f7E(ptr) unnamed_addr #3

; Function Attrs: inlinehint noreturn nounwind
define internal fastcc void @"_ZN4core6result19Result$LT$T$C$E$GT$6expect17h4a18f7e27a00c6afE.9.bb1"(ptr %e, ptr nocapture readonly %self, ptr %msg.0, i64 %msg.1, ptr %arg) unnamed_addr #10 personality ptr @rust_eh_personality !dbg !2576 {
newFuncRoot:
  call void @llvm.memcpy.p0.p0.i64(ptr align 8 %e, ptr align 8 %self, i64 32, i1 false), !dbg !2577
  call void @_ZN4core6result13unwrap_failed17h951d84d71b0bada2E(ptr align 1 %msg.0, i64 %msg.1, ptr align 1 %e, ptr align 8 @vtable.4, ptr align 8 %arg) #31, !dbg !2578
  unreachable, !dbg !2578
}

; Function Attrs: nounwind
define internal fastcc void @"_ZN4core3ptr129drop_in_place$LT$core..option..Option$LT$alloc..sync..Arc$LT$std..sync..mutex..Mutex$LT$alloc..vec..Vec$LT$u8$GT$$GT$$GT$$GT$$GT$17h03dbd41a4760f1ceE.19.bb2"(ptr %_1) unnamed_addr #3 !dbg !2580 {
newFuncRoot:
  call fastcc void @"_ZN4core3ptr101drop_in_place$LT$alloc..sync..Arc$LT$std..sync..mutex..Mutex$LT$alloc..vec..Vec$LT$u8$GT$$GT$$GT$$GT$17h7c20327941ec19b0E"(ptr align 8 %_1) #30, !dbg !2581
  ret void
}

; Function Attrs: nounwind
declare void @_ZN3std6thread6scoped9ScopeData29increment_num_running_threads17h3feb1e087ca97cebE(ptr align 8) unnamed_addr #3

; Function Attrs: nounwind
declare void @_ZN3std3sys4unix6thread6Thread3new17h355f164341fcc5b0E(ptr sret(%"core::result::Result<usize, std::io::error::Error>") align 8, i64, ptr align 1, ptr align 8) unnamed_addr #3

; Function Attrs: nounwind
define internal void @"_ZN4core3ptr159drop_in_place$LT$std..thread..Builder..spawn_unchecked_$LT$RUSTSEC_2022_0070..main..$u7b$$u7b$closure$u7d$$u7d$$C$$LP$$RP$$GT$..$u7b$$u7b$closure$u7d$$u7d$$GT$17hf3aee782d30a72b2E"(ptr align 8 %_1) unnamed_addr #3 !dbg !2582 {
start:
  call fastcc void @"_ZN4core3ptr40drop_in_place$LT$std..thread..Thread$GT$17h51532233b6119ee5E"(ptr align 8 %_1) #30, !dbg !2583
  %i = getelementptr inbounds %"{closure@std::thread::Builder::spawn_unchecked_<'_, '_, {closure@data/RUSTSEC_2022_0070.rs:48:28: 48:35}, ()>::{closure#1}}", ptr %_1, i32 0, i32 2, !dbg !2583
  %i1 = load ptr, ptr %i, align 8, !dbg !2584, !noundef !15
  %i2 = ptrtoint ptr %i1 to i64, !dbg !2584
  %i3 = icmp ne i64 %i2, 0, !dbg !2584
  br i1 %i3, label %codeRepl.i, label %"_ZN4core3ptr129drop_in_place$LT$core..option..Option$LT$alloc..sync..Arc$LT$std..sync..mutex..Mutex$LT$alloc..vec..Vec$LT$u8$GT$$GT$$GT$$GT$$GT$17h03dbd41a4760f1ceE.19.exit", !dbg !2584

codeRepl.i:                                       ; preds = %start
  call fastcc void @"_ZN4core3ptr129drop_in_place$LT$core..option..Option$LT$alloc..sync..Arc$LT$std..sync..mutex..Mutex$LT$alloc..vec..Vec$LT$u8$GT$$GT$$GT$$GT$$GT$17h03dbd41a4760f1ceE.19.bb2"(ptr %i), !dbg !2584
  br label %"_ZN4core3ptr129drop_in_place$LT$core..option..Option$LT$alloc..sync..Arc$LT$std..sync..mutex..Mutex$LT$alloc..vec..Vec$LT$u8$GT$$GT$$GT$$GT$$GT$17h03dbd41a4760f1ceE.19.exit"

"_ZN4core3ptr129drop_in_place$LT$core..option..Option$LT$alloc..sync..Arc$LT$std..sync..mutex..Mutex$LT$alloc..vec..Vec$LT$u8$GT$$GT$$GT$$GT$$GT$17h03dbd41a4760f1ceE.19.exit": ; preds = %codeRepl.i, %start
  %i4 = getelementptr inbounds %"{closure@std::thread::Builder::spawn_unchecked_<'_, '_, {closure@data/RUSTSEC_2022_0070.rs:48:28: 48:35}, ()>::{closure#1}}", ptr %_1, i32 0, i32 3, !dbg !2583
  call fastcc void @"_ZN4core3ptr134drop_in_place$LT$std..thread..Builder..spawn_unchecked_..MaybeDangling$LT$RUSTSEC_2022_0070..main..$u7b$$u7b$closure$u7d$$u7d$$GT$$GT$17h19a335f8a8b5ae03E"(ptr align 8 %i4) #30, !dbg !2583
  %i5 = getelementptr inbounds %"{closure@std::thread::Builder::spawn_unchecked_<'_, '_, {closure@data/RUSTSEC_2022_0070.rs:48:28: 48:35}, ()>::{closure#1}}", ptr %_1, i32 0, i32 1, !dbg !2583
  call fastcc void @"_ZN4core3ptr80drop_in_place$LT$alloc..sync..Arc$LT$std..thread..Packet$LT$$LP$$RP$$GT$$GT$$GT$17he82bf0d8b6b14108E"(ptr align 8 %i5) #30, !dbg !2583
  ret void, !dbg !2583
}

; Function Attrs: inlinehint nounwind
define internal void @"_ZN4core3ops8function6FnOnce40call_once$u7b$$u7b$vtable.shim$u7d$$u7d$17h4dc0843d7b2f896dE"(ptr %_1) unnamed_addr #5 !dbg !2586 {
start:
  call fastcc void @"_ZN3std6thread7Builder16spawn_unchecked_28_$u7b$$u7b$closure$u7d$$u7d$17h310f24c77a9d503bE"(ptr align 8 %_1) #30, !dbg !2587
  ret void, !dbg !2587
}

; Function Attrs: inlinehint nounwind
define internal fastcc void @"_ZN3std6thread7Builder16spawn_unchecked_28_$u7b$$u7b$closure$u7d$$u7d$17h310f24c77a9d503bE"(ptr align 8 %_1) unnamed_addr #5 personality ptr @rust_eh_personality !dbg !2588 {
start:
  %_26 = alloca i8, align 1
  %_25 = alloca i8, align 1
  %_24 = alloca i8, align 1
  %_23 = alloca i8, align 1
  %_22 = alloca i8, align 1
  %_x = alloca ptr, align 8
  %_17 = alloca %"core::option::Option<core::result::Result<(), alloc::boxed::Box<dyn core::any::Any + core::marker::Send>>>", align 8
  %_16 = alloca ptr, align 8
  %f1 = alloca ptr, align 8
  %_12 = alloca %"core::option::Option<core::result::Result<(), alloc::boxed::Box<dyn core::any::Any + core::marker::Send>>>", align 8
  %self = alloca ptr, align 8
  %f = alloca ptr, align 8
  %_7 = alloca ptr, align 8
  %_2 = alloca { ptr, i64 }, align 8
  store i8 1, ptr %_23, align 1, !dbg !2589
  store i8 1, ptr %_24, align 1, !dbg !2589
  store i8 1, ptr %_25, align 1, !dbg !2589
  store i8 1, ptr %_26, align 1, !dbg !2589
  %i = call { ptr, i64 } @_ZN3std6thread6Thread5cname17hbb2703584f053ab0E(ptr align 8 %_1) #30, !dbg !2590
  store { ptr, i64 } %i, ptr %_2, align 8, !dbg !2590
  %i11 = load ptr, ptr %_2, align 8, !dbg !2592, !noundef !15
  %i12 = ptrtoint ptr %i11 to i64, !dbg !2592
  %i13 = icmp eq i64 %i12, 0, !dbg !2592
  %_4 = select i1 %i13, i64 0, i64 1, !dbg !2592
  %i14 = icmp eq i64 %_4, 1, !dbg !2592
  br i1 %i14, label %bb2, label %bb3, !dbg !2592

bb2:                                              ; preds = %start
  %i15 = getelementptr inbounds { ptr, i64 }, ptr %_2, i32 0, i32 1, !dbg !2593
  %name.1 = load i64, ptr %i15, align 8, !dbg !2593, !noundef !15
  call void @_ZN3std3sys4unix6thread6Thread8set_name17h8d8dc4aa80c8a3c0E(ptr align 1 %i11, i64 %name.1) #30, !dbg !2594
  br label %bb3, !dbg !2594

bb3:                                              ; preds = %bb2, %start
  store i8 0, ptr %_26, align 1, !dbg !2595
  %i16 = getelementptr inbounds %"{closure@std::thread::Builder::spawn_unchecked_<'_, '_, {closure@data/RUSTSEC_2022_0070.rs:48:28: 48:35}, ()>::{closure#1}}", ptr %_1, i32 0, i32 2, !dbg !2595
  %_8 = load ptr, ptr %i16, align 8, !dbg !2595, !noundef !15
  %i17 = call ptr @_ZN3std2io5stdio18set_output_capture17h065a585a611571f7E(ptr %_8) #30, !dbg !2596
  store ptr %i17, ptr %_7, align 8, !dbg !2596
  %i19 = ptrtoint ptr %i17 to i64, !dbg !2597
  %i20 = icmp ne i64 %i19, 0, !dbg !2597
  br i1 %i20, label %codeRepl.i7, label %bb5, !dbg !2597

codeRepl.i7:                                      ; preds = %bb3
  call fastcc void @"_ZN4core3ptr129drop_in_place$LT$core..option..Option$LT$alloc..sync..Arc$LT$std..sync..mutex..Mutex$LT$alloc..vec..Vec$LT$u8$GT$$GT$$GT$$GT$$GT$17h03dbd41a4760f1ceE.19.bb2"(ptr %_7), !dbg !2597
  br label %bb5

bb5:                                              ; preds = %codeRepl.i7, %bb3
  store i8 0, ptr %_25, align 1, !dbg !2599
