; ModuleID = 'RUSTSEC_2020_0159.3be2908ffa336961-cgu.0'
source_filename = "RUSTSEC_2020_0159.3be2908ffa336961-cgu.0"
target datalayout = "e-m:e-p270:32:32-p271:32:32-p272:64:64-i64:64-f80:128-n8:16:32:64-S128"
target triple = "x86_64-unknown-linux-gnu"

%"core::ptr::metadata::PtrRepr<[u8]>" = type { [2 x i64] }
%"core::result::Result<usize, std::io::error::Error>" = type { i64, [1 x i64] }
%"core::result::Result<usize, std::io::error::Error>::Ok" = type { [1 x i64], i64 }
%"core::result::Result<usize, std::io::error::Error>::Err" = type { [1 x i64], ptr }
%"core::ptr::metadata::PtrComponents<()>" = type { ptr, {} }
%"core::ptr::metadata::PtrRepr<()>" = type { [1 x i64] }
%"std::io::error::ErrorData<alloc::boxed::Box<std::io::error::Custom>>::Os" = type { [1 x i32], i32 }
%"std::io::error::ErrorData<alloc::boxed::Box<std::io::error::Custom>>::Simple" = type { [1 x i8], i8 }
%"std::io::error::ErrorData<alloc::boxed::Box<std::io::error::Custom>>::SimpleMessage" = type { [1 x i64], ptr }
%"std::io::error::ErrorData<alloc::boxed::Box<std::io::error::Custom>>::Custom" = type { [1 x i64], ptr }
%"std::io::error::ErrorData<&std::io::error::Custom>::Os" = type { [1 x i32], i32 }
%"std::io::error::ErrorData<&std::io::error::Custom>::Simple" = type { [1 x i8], i8 }
%"std::io::error::ErrorData<&std::io::error::Custom>::SimpleMessage" = type { [1 x i64], ptr }
%"std::io::error::ErrorData<&std::io::error::Custom>::Custom" = type { [1 x i64], ptr }
%"std::io::error::ErrorData<&std::io::error::Custom>" = type { i8, [15 x i8] }
%"std::io::error::SimpleMessage" = type { { ptr, i64 }, i8, [7 x i8] }
%"std::io::error::Custom" = type { { ptr, ptr }, i8, [7 x i8] }
%"core::option::Option<core::result::Result<(), alloc::boxed::Box<dyn core::any::Any + core::marker::Send>>>" = type { i64, [2 x i64] }
%"std::thread::JoinInner<'_, ()>" = type { ptr, ptr, i64 }
%"alloc::sync::ArcInner<std::thread::Packet<'_, ()>>" = type { %"core::sync::atomic::AtomicUsize", %"core::sync::atomic::AtomicUsize", %"std::thread::Packet<'_, ()>" }
%"core::sync::atomic::AtomicUsize" = type { i64 }
%"std::thread::Packet<'_, ()>" = type { ptr, %"core::cell::UnsafeCell<core::option::Option<core::result::Result<(), alloc::boxed::Box<dyn core::any::Any + core::marker::Send>>>>", %"core::marker::PhantomData<core::option::Option<&std::thread::scoped::ScopeData>>" }
%"core::cell::UnsafeCell<core::option::Option<core::result::Result<(), alloc::boxed::Box<dyn core::any::Any + core::marker::Send>>>>" = type { %"core::option::Option<core::result::Result<(), alloc::boxed::Box<dyn core::any::Any + core::marker::Send>>>" }
%"core::marker::PhantomData<core::option::Option<&std::thread::scoped::ScopeData>>" = type {}
%"core::option::Option<core::result::Result<(), alloc::boxed::Box<dyn core::any::Any + core::marker::Send>>>::Some" = type { [1 x i64], { ptr, ptr } }
%"core::option::Option<alloc::string::String>" = type { i64, [2 x i64] }
%"std::thread::Builder" = type { { i64, i64 }, %"core::option::Option<alloc::string::String>" }
%"core::result::Result<std::thread::JoinHandle<()>, std::io::error::Error>" = type { ptr, [2 x i64] }
%"core::result::Result<std::thread::JoinInner<'_, ()>, std::io::error::Error>" = type { ptr, [2 x i64] }
%"core::ops::control_flow::ControlFlow<core::result::Result<core::convert::Infallible, std::io::error::Error>, std::thread::JoinInner<'_, ()>>" = type { ptr, [2 x i64] }
%"core::result::Result<std::thread::JoinInner<'_, ()>, std::io::error::Error>::Err" = type { [1 x i64], ptr }
%"core::ops::control_flow::ControlFlow<core::result::Result<core::convert::Infallible, std::io::error::Error>, std::thread::JoinInner<'_, ()>>::Break" = type { [1 x i64], ptr }
%"core::result::Result<std::thread::JoinHandle<()>, std::io::error::Error>::Err" = type { [1 x i64], ptr }
%"alloc::ffi::c_str::NulError" = type { %"alloc::vec::Vec<u8>", i64 }
%"alloc::vec::Vec<u8>" = type { { i64, ptr }, i64 }
%"core::result::Result<alloc::ffi::c_str::CString, alloc::ffi::c_str::NulError>" = type { i64, [3 x i64] }
%"alloc::string::String" = type { %"alloc::vec::Vec<u8>" }
%"core::result::Result<std::sys::unix::thread::Thread, std::io::error::Error>" = type { i64, [1 x i64] }
%"core::ops::control_flow::ControlFlow<core::result::Result<core::convert::Infallible, std::io::error::Error>, std::sys::unix::thread::Thread>" = type { i64, [1 x i64] }
%"{closure@std::thread::Builder::spawn_unchecked_<'_, '_, {closure@data/RUSTSEC_2020_0159.rs:31:28: 31:30}, ()>::{closure#1}}" = type { ptr, ptr, ptr, %"std::thread::Builder::spawn_unchecked_::MaybeDangling<{closure@data/RUSTSEC_2020_0159.rs:31:28: 31:30}>" }
%"std::thread::Builder::spawn_unchecked_::MaybeDangling<{closure@data/RUSTSEC_2020_0159.rs:31:28: 31:30}>" = type { %"core::mem::maybe_uninit::MaybeUninit<{closure@data/RUSTSEC_2020_0159.rs:31:28: 31:30}>" }
%"core::mem::maybe_uninit::MaybeUninit<{closure@data/RUSTSEC_2020_0159.rs:31:28: 31:30}>" = type { [0 x i8] }
%"core::result::Result<alloc::ffi::c_str::CString, alloc::ffi::c_str::NulError>::Ok" = type { [1 x i64], { ptr, i64 } }
%"alloc::sync::ArcInner<std::thread::scoped::ScopeData>" = type { %"core::sync::atomic::AtomicUsize", %"core::sync::atomic::AtomicUsize", %"std::thread::scoped::ScopeData" }
%"std::thread::scoped::ScopeData" = type { ptr, %"core::sync::atomic::AtomicUsize", %"core::sync::atomic::AtomicBool", [7 x i8] }
%"core::sync::atomic::AtomicBool" = type { i8 }
%"core::result::Result<std::sys::unix::thread::Thread, std::io::error::Error>::Ok" = type { [1 x i64], i64 }
%"core::ops::control_flow::ControlFlow<core::result::Result<core::convert::Infallible, std::io::error::Error>, std::sys::unix::thread::Thread>::Continue" = type { [1 x i64], i64 }
%"core::result::Result<std::sys::unix::thread::Thread, std::io::error::Error>::Err" = type { [1 x i64], ptr }
%"core::ops::control_flow::ControlFlow<core::result::Result<core::convert::Infallible, std::io::error::Error>, std::sys::unix::thread::Thread>::Break" = type { [1 x i64], ptr }
%"{closure@std::thread::Builder::spawn_unchecked_<'_, '_, {closure@data/RUSTSEC_2020_0159.rs:24:28: 24:35}, ()>::{closure#1}}" = type { ptr, ptr, ptr, %"std::thread::Builder::spawn_unchecked_::MaybeDangling<{closure@data/RUSTSEC_2020_0159.rs:24:28: 24:35}>" }
%"std::thread::Builder::spawn_unchecked_::MaybeDangling<{closure@data/RUSTSEC_2020_0159.rs:24:28: 24:35}>" = type { %"core::mem::maybe_uninit::MaybeUninit<{closure@data/RUSTSEC_2020_0159.rs:24:28: 24:35}>" }
%"core::mem::maybe_uninit::MaybeUninit<{closure@data/RUSTSEC_2020_0159.rs:24:28: 24:35}>" = type { [0 x i8] }
%"core::option::Option<core::ops::range::Range<usize>>" = type { i64, [2 x i64] }
%"std::panicking::try::Data<core::panic::unwind_safe::AssertUnwindSafe<{closure@<std::thread::Packet<'_, ()> as core::ops::drop::Drop>::drop::{closure#0}}>, ()>" = type { [2 x i64] }
%"core::fmt::builders::DebugList<'_, '_>" = type { %"core::fmt::builders::DebugInner<'_, '_>" }
%"core::fmt::builders::DebugInner<'_, '_>" = type { ptr, i8, i8, [6 x i8] }
%"core::fmt::Formatter<'_>" = type { { i64, i64 }, { i64, i64 }, { ptr, ptr }, i32, i32, i8, [7 x i8] }
%"core::fmt::Arguments<'_>" = type { { ptr, i64 }, { ptr, i64 }, { ptr, i64 } }
%"core::option::Option<(core::ptr::non_null::NonNull<u8>, core::alloc::layout::Layout)>" = type { [1 x i64], i64, [1 x i64] }
%"std::sync::mutex::Mutex<alloc::vec::Vec<u8>>" = type { %"std::sys::unix::locks::futex_mutex::Mutex", %"std::sync::poison::Flag", [3 x i8], %"core::cell::UnsafeCell<alloc::vec::Vec<u8>>" }
%"std::sys::unix::locks::futex_mutex::Mutex" = type { %"core::sync::atomic::AtomicU32" }
%"core::sync::atomic::AtomicU32" = type { i32 }
%"std::sync::poison::Flag" = type { %"core::sync::atomic::AtomicBool" }
%"core::cell::UnsafeCell<alloc::vec::Vec<u8>>" = type { %"alloc::vec::Vec<u8>" }
%"alloc::sync::ArcInner<std::thread::Inner>" = type { %"core::sync::atomic::AtomicUsize", %"core::sync::atomic::AtomicUsize", %"std::thread::Inner" }
%"std::thread::Inner" = type { i64, { ptr, i64 }, %"std::sys_common::thread_parking::futex::Parker", [1 x i32] }
%"std::sys_common::thread_parking::futex::Parker" = type { %"core::sync::atomic::AtomicU32" }
%"alloc::sync::ArcInner<std::sync::mutex::Mutex<alloc::vec::Vec<u8>>>" = type { %"core::sync::atomic::AtomicUsize", %"core::sync::atomic::AtomicUsize", %"std::sync::mutex::Mutex<alloc::vec::Vec<u8>>" }
%"std::sys::unix::stdio::Stderr" = type { {} }
%"std::io::error::ErrorData<alloc::boxed::Box<std::io::error::Custom>>" = type { i8, [15 x i8] }
%"std::thread::JoinHandle<()>" = type { %"std::thread::JoinInner<'_, ()>" }
%"core::fmt::rt::Placeholder" = type { { i64, i64 }, { i64, i64 }, i64, i32, i32, i8, [7 x i8] }
%Time = type { i32, i32, i32, i32, i32, i32, i32, i32, i32 }

@alloc_8d68fcbc011419193bd208f22e2789d1 = private unnamed_addr constant <{ [28 x i8] }> <{ [28 x i8] c"failed to write whole buffer" }>, align 1
@alloc_626cc8bfd6c94d404aa777557e31db63 = private unnamed_addr constant <{ ptr, [9 x i8], [7 x i8] }> <{ ptr @alloc_8d68fcbc011419193bd208f22e2789d1, [9 x i8] c"\1C\00\00\00\00\00\00\00\17", [7 x i8] undef }>, align 8
@alloc_2f83dfc9a60946d6dd4382ae2c85abff = private unnamed_addr constant <{ [73 x i8] }> <{ [73 x i8] c"/rustc/07dca489ac2d933c78d3c5158e3f43beefeb02ce/library/std/src/io/mod.rs" }>, align 1
@alloc_4281a0c14125330c5d3c45e00517e107 = private unnamed_addr constant <{ ptr, [16 x i8] }> <{ ptr @alloc_2f83dfc9a60946d6dd4382ae2c85abff, [16 x i8] c"I\00\00\00\00\00\00\00\8D\06\00\00$\00\00\00" }>, align 8
@vtable.0 = private unnamed_addr constant <{ ptr, [16 x i8], ptr, ptr, ptr }> <{ ptr @"_ZN4core3ptr92drop_in_place$LT$std..io..Write..write_fmt..Adapter$LT$std..sys..unix..stdio..Stderr$GT$$GT$17h024882fad083b3d7E", [16 x i8] c"\10\00\00\00\00\00\00\00\08\00\00\00\00\00\00\00", ptr @"_ZN80_$LT$std..io..Write..write_fmt..Adapter$LT$T$GT$$u20$as$u20$core..fmt..Write$GT$9write_str17hd2fea9578d68f497E", ptr @_ZN4core3fmt5Write10write_char17hc2964ec341ed83d9E, ptr @_ZN4core3fmt5Write9write_fmt17hd7558952f98e743aE }>, align 8
@alloc_118e5dd62e18907a47aec3e2be501119 = private unnamed_addr constant <{ [15 x i8] }> <{ [15 x i8] c"formatter error" }>, align 1
@alloc_5d9af7a776dc0d9eecd628aaf786bef9 = private unnamed_addr constant <{ ptr, [9 x i8], [7 x i8] }> <{ ptr @alloc_118e5dd62e18907a47aec3e2be501119, [9 x i8] c"\0F\00\00\00\00\00\00\00(", [7 x i8] undef }>, align 8
@vtable.1 = private unnamed_addr constant <{ ptr, [16 x i8], ptr, ptr, ptr }> <{ ptr @"_ZN4core3ptr26drop_in_place$LT$usize$GT$17h6ef62bcffd42ffdaE", [16 x i8] c"\08\00\00\00\00\00\00\00\08\00\00\00\00\00\00\00", ptr @"_ZN4core3ops8function6FnOnce40call_once$u7b$$u7b$vtable.shim$u7d$$u7d$17h9b1ac5b35cdaeab1E", ptr @"_ZN3std2rt10lang_start28_$u7b$$u7b$closure$u7d$$u7d$17hfc0ab7cf0ac3e043E", ptr @"_ZN3std2rt10lang_start28_$u7b$$u7b$closure$u7d$$u7d$17hfc0ab7cf0ac3e043E" }>, align 8
@alloc_5f55955de67e57c79064b537689facea = private unnamed_addr constant <{ [43 x i8] }> <{ [43 x i8] c"called `Option::unwrap()` on a `None` value" }>, align 1
@alloc_33b1e69a422a81942b7149db811cc384 = private unnamed_addr constant <{ [77 x i8] }> <{ [77 x i8] c"/rustc/07dca489ac2d933c78d3c5158e3f43beefeb02ce/library/std/src/thread/mod.rs" }>, align 1
@alloc_210632c49b2fd4ef0dc8e7c88d1b4c5b = private unnamed_addr constant <{ ptr, [16 x i8] }> <{ ptr @alloc_33b1e69a422a81942b7149db811cc384, [16 x i8] c"M\00\00\00\00\00\00\00\ED\05\00\00(\00\00\00" }>, align 8
@alloc_75b83b2c75f3b36b94a7518a66ad8875 = private unnamed_addr constant <{ ptr, [16 x i8] }> <{ ptr @alloc_33b1e69a422a81942b7149db811cc384, [16 x i8] c"M\00\00\00\00\00\00\00\ED\05\00\00I\00\00\00" }>, align 8
@alloc_e3605bf48dd8479a638909176cc37fce = private unnamed_addr constant <{ [22 x i8] }> <{ [22 x i8] c"failed to spawn thread" }>, align 1
@alloc_1f8c62d57f163807c7029893ad26ce72 = private unnamed_addr constant <{ ptr, [16 x i8] }> <{ ptr @alloc_33b1e69a422a81942b7149db811cc384, [16 x i8] c"M\00\00\00\00\00\00\00\AC\02\00\00\1D\00\00\00" }>, align 8
@alloc_498705839b3ae85466bce6e7ebfe4996 = private unnamed_addr constant <{ [47 x i8] }> <{ [47 x i8] c"thread name may not contain interior null bytes" }>, align 1
@alloc_10ce3643ab05b89124ccab86e25db141 = private unnamed_addr constant <{ ptr, [16 x i8] }> <{ ptr @alloc_33b1e69a422a81942b7149db811cc384, [16 x i8] c"M\00\00\00\00\00\00\00\DC\01\00\00 \00\00\00" }>, align 8
@vtable.2 = private unnamed_addr constant <{ ptr, [16 x i8], ptr }> <{ ptr @"_ZN4core3ptr159drop_in_place$LT$std..thread..Builder..spawn_unchecked_$LT$RUSTSEC_2020_0159..main..$u7b$$u7b$closure$u7d$$u7d$$C$$LP$$RP$$GT$..$u7b$$u7b$closure$u7d$$u7d$$GT$17h3beca8dcf379d12bE", [16 x i8] c"\18\00\00\00\00\00\00\00\08\00\00\00\00\00\00\00", ptr @"_ZN4core3ops8function6FnOnce40call_once$u7b$$u7b$vtable.shim$u7d$$u7d$17hc59e2cd603c48a05E" }>, align 8
@vtable.3 = private unnamed_addr constant <{ ptr, [16 x i8], ptr }> <{ ptr @"_ZN4core3ptr159drop_in_place$LT$std..thread..Builder..spawn_unchecked_$LT$RUSTSEC_2020_0159..main..$u7b$$u7b$closure$u7d$$u7d$$C$$LP$$RP$$GT$..$u7b$$u7b$closure$u7d$$u7d$$GT$17h3beca8dcf379d12bE", [16 x i8] c"\18\00\00\00\00\00\00\00\08\00\00\00\00\00\00\00", ptr @"_ZN4core3ops8function6FnOnce40call_once$u7b$$u7b$vtable.shim$u7d$$u7d$17hfa2a89eec06de5bdE" }>, align 8
@vtable.4 = private unnamed_addr constant <{ ptr, [16 x i8], ptr }> <{ ptr @"_ZN4core3ptr26drop_in_place$LT$usize$GT$17h6ef62bcffd42ffdaE", [16 x i8] c"\08\00\00\00\00\00\00\00\08\00\00\00\00\00\00\00", ptr @"_ZN42_$LT$$RF$T$u20$as$u20$core..fmt..Debug$GT$3fmt17h5725052751dcd9b7E" }>, align 8
@alloc_91c7fa63c3cfeaa3c795652d5cf060e4 = private unnamed_addr constant <{ [12 x i8] }> <{ [12 x i8] c"invalid args" }>, align 1
@alloc_af99043bc04c419363a7f04d23183506 = private unnamed_addr constant <{ ptr, [8 x i8] }> <{ ptr @alloc_91c7fa63c3cfeaa3c795652d5cf060e4, [8 x i8] c"\0C\00\00\00\00\00\00\00" }>, align 8
@alloc_513570631223a12912d85da2bec3b15a = private unnamed_addr constant <{}> zeroinitializer, align 8
@alloc_4243f84a3a879718e5490fe547b0ab9c = private unnamed_addr constant <{ [75 x i8] }> <{ [75 x i8] c"/rustc/07dca489ac2d933c78d3c5158e3f43beefeb02ce/library/core/src/fmt/mod.rs" }>, align 1
@alloc_5f330cd7dff757941d785f386d839300 = private unnamed_addr constant <{ ptr, [16 x i8] }> <{ ptr @alloc_4243f84a3a879718e5490fe547b0ab9c, [16 x i8] c"K\00\00\00\00\00\00\00M\01\00\00\0D\00\00\00" }>, align 8
@alloc_87aade1e32141a008cc1d76d37ad88ac = private unnamed_addr constant <{ [80 x i8] }> <{ [80 x i8] c"/rustc/07dca489ac2d933c78d3c5158e3f43beefeb02ce/library/core/src/char/methods.rs" }>, align 1
@alloc_6a0114d2661e84bef3991f7200e47da8 = private unnamed_addr constant <{ ptr, [16 x i8] }> <{ ptr @alloc_87aade1e32141a008cc1d76d37ad88ac, [16 x i8] c"P\00\00\00\00\00\00\00\05\07\00\00\0D\00\00\00" }>, align 8
@alloc_6b031f9bca8204235732c7c365d04a1d = private unnamed_addr constant <{ [18 x i8] }> <{ [18 x i8] c"encode_utf8: need " }>, align 1
@alloc_28d13efb0f9a95ccb5d02ec33dd195cf = private unnamed_addr constant <{ [19 x i8] }> <{ [19 x i8] c" bytes to encode U+" }>, align 1
@alloc_0d928972d2befd736e581c7fcc5a2f9a = private unnamed_addr constant <{ [21 x i8] }> <{ [21 x i8] c", but the buffer has " }>, align 1
@alloc_d51214f097f67314513b76e97e13aa6b = private unnamed_addr constant <{ ptr, [8 x i8], ptr, [8 x i8], ptr, [8 x i8] }> <{ ptr @alloc_6b031f9bca8204235732c7c365d04a1d, [8 x i8] c"\12\00\00\00\00\00\00\00", ptr @alloc_28d13efb0f9a95ccb5d02ec33dd195cf, [8 x i8] c"\13\00\00\00\00\00\00\00", ptr @alloc_0d928972d2befd736e581c7fcc5a2f9a, [8 x i8] c"\15\00\00\00\00\00\00\00" }>, align 8
@alloc_15e56ccbce15945ea86b75a3c6d59ec8 = private unnamed_addr constant <{ ptr, [16 x i8] }> <{ ptr @alloc_87aade1e32141a008cc1d76d37ad88ac, [16 x i8] c"P\00\00\00\00\00\00\00\FE\06\00\00\0E\00\00\00" }>, align 8
@alloc_9cd20c3e415f4d39f0ceb012cb758628 = private unnamed_addr constant <{ [40 x i8] }> <{ [40 x i8] c"there is no such thing as a release load" }>, align 1
@alloc_cf8f91dd8bc9347b20052f6ccc905cd7 = private unnamed_addr constant <{ ptr, [8 x i8] }> <{ ptr @alloc_9cd20c3e415f4d39f0ceb012cb758628, [8 x i8] c"(\00\00\00\00\00\00\00" }>, align 8
@alloc_6c138c94c234ed7dfd455fcb63eead43 = private unnamed_addr constant <{ [79 x i8] }> <{ [79 x i8] c"/rustc/07dca489ac2d933c78d3c5158e3f43beefeb02ce/library/core/src/sync/atomic.rs" }>, align 1
@alloc_4c32346d01eeb3c0619dc95e0468893e = private unnamed_addr constant <{ ptr, [16 x i8] }> <{ ptr @alloc_6c138c94c234ed7dfd455fcb63eead43, [16 x i8] c"O\00\00\00\00\00\00\00\DB\0C\00\00\18\00\00\00" }>, align 8
@alloc_96ab912d0054b46da785b206a96c9a45 = private unnamed_addr constant <{ [49 x i8] }> <{ [49 x i8] c"there is no such thing as an acquire-release load" }>, align 1
@alloc_7e8e9a1d4bc7d0bbec692f0a50681e22 = private unnamed_addr constant <{ ptr, [8 x i8] }> <{ ptr @alloc_96ab912d0054b46da785b206a96c9a45, [8 x i8] c"1\00\00\00\00\00\00\00" }>, align 8
@alloc_93c532d79ae5a1fe4b07989efd8a35e4 = private unnamed_addr constant <{ ptr, [16 x i8] }> <{ ptr @alloc_6c138c94c234ed7dfd455fcb63eead43, [16 x i8] c"O\00\00\00\00\00\00\00\DC\0C\00\00\17\00\00\00" }>, align 8
@alloc_bf39103a6db665396aab4632362d9353 = private unnamed_addr constant <{ [42 x i8] }> <{ [42 x i8] c"there is no such thing as an acquire store" }>, align 1
@alloc_47c752ba42fbab56d43a37cfd56e4899 = private unnamed_addr constant <{ ptr, [8 x i8] }> <{ ptr @alloc_bf39103a6db665396aab4632362d9353, [8 x i8] c"*\00\00\00\00\00\00\00" }>, align 8
@alloc_cb63d255000c7e9fed7db8f9c4b60326 = private unnamed_addr constant <{ ptr, [16 x i8] }> <{ ptr @alloc_6c138c94c234ed7dfd455fcb63eead43, [16 x i8] c"O\00\00\00\00\00\00\00\CC\0C\00\00\18\00\00\00" }>, align 8
@alloc_00c0bce0fa6327f8ec8e69d6d765d508 = private unnamed_addr constant <{ [50 x i8] }> <{ [50 x i8] c"there is no such thing as an acquire-release store" }>, align 1
@alloc_f8dbac861f87e25e445761cc4af66745 = private unnamed_addr constant <{ ptr, [8 x i8] }> <{ ptr @alloc_00c0bce0fa6327f8ec8e69d6d765d508, [8 x i8] c"2\00\00\00\00\00\00\00" }>, align 8
@alloc_2061bd2e099bb1065f735aed396f79a4 = private unnamed_addr constant <{ ptr, [16 x i8] }> <{ ptr @alloc_6c138c94c234ed7dfd455fcb63eead43, [16 x i8] c"O\00\00\00\00\00\00\00\CD\0C\00\00\17\00\00\00" }>, align 8
@alloc_5a43f8d94dd4505c1dba43832ce73af8 = private unnamed_addr constant <{ [52 x i8] }> <{ [52 x i8] c"there is no such thing as a release failure ordering" }>, align 1
@alloc_04ab601c54c6e0a22ff11d72dc7f4511 = private unnamed_addr constant <{ ptr, [8 x i8] }> <{ ptr @alloc_5a43f8d94dd4505c1dba43832ce73af8, [8 x i8] c"4\00\00\00\00\00\00\00" }>, align 8
@alloc_826fa8dc4bf9d95988bea67cf29fdc26 = private unnamed_addr constant <{ ptr, [16 x i8] }> <{ ptr @alloc_6c138c94c234ed7dfd455fcb63eead43, [16 x i8] c"O\00\00\00\00\00\00\000\0D\00\00\1D\00\00\00" }>, align 8
@alloc_7adef5546d83b439c7829602020737c6 = private unnamed_addr constant <{ [61 x i8] }> <{ [61 x i8] c"there is no such thing as an acquire-release failure ordering" }>, align 1
@alloc_dd7d8f77c173bf31726eae321f955bec = private unnamed_addr constant <{ ptr, [8 x i8] }> <{ ptr @alloc_7adef5546d83b439c7829602020737c6, [8 x i8] c"=\00\00\00\00\00\00\00" }>, align 8
@alloc_69680bf1a9adc0c1931d0dbd2195eaef = private unnamed_addr constant <{ ptr, [16 x i8] }> <{ ptr @alloc_6c138c94c234ed7dfd455fcb63eead43, [16 x i8] c"O\00\00\00\00\00\00\00/\0D\00\00\1C\00\00\00" }>, align 8
@alloc_a65db75132b92a882fd01eb367d64c4a = private unnamed_addr constant <{ [80 x i8] }> <{ [80 x i8] c"/rustc/07dca489ac2d933c78d3c5158e3f43beefeb02ce/library/core/src/slice/memchr.rs" }>, align 1
@alloc_5bc1b291dae9b898876d4e4c4a53a140 = private unnamed_addr constant <{ ptr, [16 x i8] }> <{ ptr @alloc_a65db75132b92a882fd01eb367d64c4a, [16 x i8] c"P\00\00\00\00\00\00\00+\00\00\00\0C\00\00\00" }>, align 8
@vtable.5 = private unnamed_addr constant <{ ptr, [16 x i8], ptr }> <{ ptr @"_ZN4core3ptr42drop_in_place$LT$std..io..error..Error$GT$17h73a7c5e879c4c70eE", [16 x i8] c"\08\00\00\00\00\00\00\00\08\00\00\00\00\00\00\00", ptr @"_ZN58_$LT$std..io..error..Error$u20$as$u20$core..fmt..Debug$GT$3fmt17h6d10bf911b864f11E" }>, align 8
@vtable.6 = private unnamed_addr constant <{ ptr, [16 x i8], ptr }> <{ ptr @"_ZN4core3ptr48drop_in_place$LT$alloc..ffi..c_str..NulError$GT$17h236ed01cde6f9923E", [16 x i8] c" \00\00\00\00\00\00\00\08\00\00\00\00\00\00\00", ptr @"_ZN64_$LT$alloc..ffi..c_str..NulError$u20$as$u20$core..fmt..Debug$GT$3fmt17hf2e7094fdc6640ebE" }>, align 8
@alloc_00ae4b301f7fab8ac9617c03fcbd7274 = private unnamed_addr constant <{ [43 x i8] }> <{ [43 x i8] c"called `Result::unwrap()` on an `Err` value" }>, align 1
@vtable.7 = private unnamed_addr constant <{ ptr, [16 x i8], ptr }> <{ ptr @"_ZN4core3ptr91drop_in_place$LT$alloc..boxed..Box$LT$dyn$u20$core..any..Any$u2b$core..marker..Send$GT$$GT$17h87c6624e6a6c01e5E", [16 x i8] c"\10\00\00\00\00\00\00\00\08\00\00\00\00\00\00\00", ptr @"_ZN67_$LT$alloc..boxed..Box$LT$T$C$A$GT$$u20$as$u20$core..fmt..Debug$GT$3fmt17h11f5c82fc723a22dE" }>, align 8
@__rust_no_alloc_shim_is_unstable = external global i8
@alloc_49c0eff15ce41ce22a2d8c8b146a94ef = private unnamed_addr constant <{ [8 x i8] }> <{ [8 x i8] c"NulError" }>, align 1
@vtable.8 = private unnamed_addr constant <{ ptr, [16 x i8], ptr }> <{ ptr @"_ZN4core3ptr26drop_in_place$LT$usize$GT$17h6ef62bcffd42ffdaE", [16 x i8] c"\08\00\00\00\00\00\00\00\08\00\00\00\00\00\00\00", ptr @"_ZN4core3fmt3num52_$LT$impl$u20$core..fmt..Debug$u20$for$u20$usize$GT$3fmt17hb85cc1d6cef6a928E" }>, align 8
@vtable.9 = private unnamed_addr constant <{ ptr, [16 x i8], ptr }> <{ ptr @"_ZN4core3ptr26drop_in_place$LT$usize$GT$17h6ef62bcffd42ffdaE", [16 x i8] c"\08\00\00\00\00\00\00\00\08\00\00\00\00\00\00\00", ptr @"_ZN42_$LT$$RF$T$u20$as$u20$core..fmt..Debug$GT$3fmt17h625f6358bc8ce70dE" }>, align 8
@alloc_3b99cf3889855522042186bfbc89cd01 = private unnamed_addr constant <{ [52 x i8] }> <{ [52 x i8] c"fatal runtime error: thread result panicked on drop\0A" }>, align 1
@alloc_2ca7775364e940040d1ca01e1c1e4d62 = private unnamed_addr constant <{ ptr, [8 x i8] }> <{ ptr @alloc_3b99cf3889855522042186bfbc89cd01, [8 x i8] c"4\00\00\00\00\00\00\00" }>, align 8
@alloc_1af60c6499b05cb961e3a0a5039921ca = private unnamed_addr constant <{ [25 x i8] }> <{ [25 x i8] c"data/RUSTSEC_2020_0159.rs" }>, align 1
@alloc_d3941b1c8eed68f0e566999cc122c148 = private unnamed_addr constant <{ ptr, [16 x i8] }> <{ ptr @alloc_1af60c6499b05cb961e3a0a5039921ca, [16 x i8] c"\19\00\00\00\00\00\00\00&\00\00\00\0F\00\00\00" }>, align 8
@alloc_c35e1f184bba6c86823896c9216ff49d = private unnamed_addr constant <{ ptr, [16 x i8] }> <{ ptr @alloc_1af60c6499b05cb961e3a0a5039921ca, [16 x i8] c"\19\00\00\00\00\00\00\00'\00\00\00\0F\00\00\00" }>, align 8
@alloc_d298035c47c52ed22fde7166fbaf6034 = private unnamed_addr constant <{ [49 x i8] }> <{ [49 x i8] c"[data/RUSTSEC_2020_0159.rs:27:13] (*x).tm_hour = " }>, align 1
@alloc_49a1e817e911805af64bbc7efb390101 = private unnamed_addr constant <{ [1 x i8] }> <{ [1 x i8] c"\0A" }>, align 1
@alloc_5ef8fc3d587ac4e0d31e340c76437fa6 = private unnamed_addr constant <{ ptr, [8 x i8], ptr, [8 x i8] }> <{ ptr @alloc_d298035c47c52ed22fde7166fbaf6034, [8 x i8] c"1\00\00\00\00\00\00\00", ptr @alloc_49a1e817e911805af64bbc7efb390101, [8 x i8] c"\01\00\00\00\00\00\00\00" }>, align 8
@alloc_c80f2b18b90ba1bcbea8d190487dfb40 = private unnamed_addr constant <{ [11 x i8] }> <{ [11 x i8] c"Europe/Kyiv" }>, align 1
@alloc_b21e06211b7d259c7398ff9c667f9dee = private unnamed_addr constant <{ ptr, [16 x i8] }> <{ ptr @alloc_1af60c6499b05cb961e3a0a5039921ca, [16 x i8] c"\19\00\00\00\00\00\00\00!\00\00\002\00\00\00" }>, align 8
@__rustc_debug_gdb_scripts_section__ = linkonce_odr unnamed_addr constant [34 x i8] c"\01gdb_load_rust_pretty_printers.py\00", section ".debug_gdb_scripts", align 1

; <std::thread::Builder::spawn_unchecked_::MaybeDangling<T> as core::ops::drop::Drop>::drop
; Function Attrs: mustprogress nofree norecurse nosync nounwind nonlazybind willreturn memory(none)
define internal fastcc void @"_ZN104_$LT$std..thread..Builder..spawn_unchecked_..MaybeDangling$LT$T$GT$$u20$as$u20$core..ops..drop..Drop$GT$4drop17hb1e494ac35490abfE"(ptr nocapture align 1 %self) unnamed_addr #0 !dbg !8 {
start:
  ret void, !dbg !17
}

; <core::ops::range::Range<usize> as core::slice::index::SliceIndex<[T]>>::index_mut
; Function Attrs: inlinehint nounwind nonlazybind
define internal fastcc { ptr, i64 } @"_ZN106_$LT$core..ops..range..Range$LT$usize$GT$$u20$as$u20$core..slice..index..SliceIndex$LT$$u5b$T$u5d$$GT$$GT$9index_mut17h83f7501c510678dfE"(i64 %self.0, i64 %self.1, ptr align 1 %slice.0, i64 %slice.1, ptr align 8 %arg) unnamed_addr #1 !dbg !18 {
start:
  %_24 = alloca { ptr, i64 }, align 8
  %_23 = alloca %"core::ptr::metadata::PtrRepr<[u8]>", align 8
  %_3 = icmp ugt i64 %self.0, %self.1, !dbg !24
  br i1 %_3, label %bb1, label %bb2, !dbg !24

bb2:                                              ; preds = %start
  %_9 = icmp ugt i64 %self.1, %slice.1, !dbg !25
  br i1 %_9, label %bb3, label %bb4, !dbg !25

bb1:                                              ; preds = %start
; call core::slice::index::slice_index_order_fail
  call void @_ZN4core5slice5index22slice_index_order_fail17hcfcb08cd5efc8d4cE(i64 %self.0, i64 %self.1, ptr align 8 %arg) #28, !dbg !26
  unreachable

bb4:                                              ; preds = %bb2
  %new_len = sub nuw i64 %self.1, %self.0, !dbg !27
  %data = getelementptr inbounds i8, ptr %slice.0, i64 %self.0, !dbg !33
  store ptr %data, ptr %_24, align 8, !dbg !43
  %i = getelementptr inbounds { ptr, i64 }, ptr %_24, i32 0, i32 1, !dbg !43
  store i64 %new_len, ptr %i, align 8, !dbg !43
  store ptr %data, ptr %_23, align 8, !dbg !54
  %i4 = getelementptr inbounds { ptr, i64 }, ptr %_23, i32 0, i32 1, !dbg !54
  store i64 %new_len, ptr %i4, align 8, !dbg !54
  %i6 = insertvalue { ptr, i64 } poison, ptr %data, 0, !dbg !55
  %i7 = insertvalue { ptr, i64 } %i6, i64 %new_len, 1, !dbg !55
  ret { ptr, i64 } %i7, !dbg !55

bb3:                                              ; preds = %bb2
; call core::slice::index::slice_end_index_len_fail
  call void @_ZN4core5slice5index24slice_end_index_len_fail17h9163fa4abd3ca1acE(i64 %self.1, i64 %slice.1, ptr align 8 %arg) #28, !dbg !56
  unreachable
}

; <core::panic::unwind_safe::AssertUnwindSafe<F> as core::ops::function::FnOnce<()>>::call_once
; Function Attrs: inlinehint nounwind nonlazybind
define internal fastcc void @"_ZN115_$LT$core..panic..unwind_safe..AssertUnwindSafe$LT$F$GT$$u20$as$u20$core..ops..function..FnOnce$LT$$LP$$RP$$GT$$GT$9call_once17h13e4957a6feabf1dE"() unnamed_addr #1 !dbg !57 {
start:
; call std::thread::Builder::spawn_unchecked_::{{closure}}::{{closure}}
  call fastcc void @"_ZN3std6thread7Builder16spawn_unchecked_28_$u7b$$u7b$closure$u7d$$u7d$28_$u7b$$u7b$closure$u7d$$u7d$17h5f4f2bcd1cb3a7c9E"() #29, !dbg !62
  ret void, !dbg !63
}

; <core::panic::unwind_safe::AssertUnwindSafe<F> as core::ops::function::FnOnce<()>>::call_once
; Function Attrs: inlinehint nounwind nonlazybind
define internal fastcc void @"_ZN115_$LT$core..panic..unwind_safe..AssertUnwindSafe$LT$F$GT$$u20$as$u20$core..ops..function..FnOnce$LT$$LP$$RP$$GT$$GT$9call_once17h95ac5e89df7a0fbaE"(ptr align 8 %self) unnamed_addr #1 !dbg !64 {
start:
; call core::ops::function::FnOnce::call_once
  call fastcc void @_ZN4core3ops8function6FnOnce9call_once17h7b4e27fc1140926aE(ptr align 8 %self) #29, !dbg !65
  ret void, !dbg !66
}

; <core::panic::unwind_safe::AssertUnwindSafe<F> as core::ops::function::FnOnce<()>>::call_once
; Function Attrs: inlinehint nounwind nonlazybind
define internal fastcc void @"_ZN115_$LT$core..panic..unwind_safe..AssertUnwindSafe$LT$F$GT$$u20$as$u20$core..ops..function..FnOnce$LT$$LP$$RP$$GT$$GT$9call_once17hede66030316b7e60E"() unnamed_addr #1 !dbg !67 {
start:
; call std::thread::Builder::spawn_unchecked_::{{closure}}::{{closure}}
  call fastcc void @"_ZN3std6thread7Builder16spawn_unchecked_28_$u7b$$u7b$closure$u7d$$u7d$28_$u7b$$u7b$closure$u7d$$u7d$17h5b9f92dc8b787966E"() #29, !dbg !68
  ret void, !dbg !69
}

; std::sys_common::backtrace::__rust_begin_short_backtrace
; Function Attrs: noinline nounwind nonlazybind
define internal fastcc void @_ZN3std10sys_common9backtrace28__rust_begin_short_backtrace17h300960070d1ba2daE(ptr nocapture readonly %f) unnamed_addr #2 !dbg !70 {
start:
; call core::ops::function::FnOnce::call_once
  call fastcc void @_ZN4core3ops8function6FnOnce9call_once17h7f2918a75723012eE(ptr %f) #29, !dbg !74
  call void asm sideeffect "", "~{memory}"(), !dbg !75, !srcloc !82
  ret void, !dbg !83
}

; std::sys_common::backtrace::__rust_begin_short_backtrace
; Function Attrs: noinline nounwind nonlazybind
define internal fastcc void @_ZN3std10sys_common9backtrace28__rust_begin_short_backtrace17h45ab6dd9de8870a7E() unnamed_addr #2 !dbg !84 {
start:
; call RUSTSEC_2020_0159::main::{{closure}}
  call fastcc void @"_ZN17RUSTSEC_2020_01594main28_$u7b$$u7b$closure$u7d$$u7d$17he3c7c5d80c36608dE"() #29, !dbg !85
  call void asm sideeffect "", "~{memory}"(), !dbg !86, !srcloc !82
  ret void, !dbg !91
}

; std::sys_common::backtrace::__rust_begin_short_backtrace
; Function Attrs: noinline nounwind nonlazybind
define internal fastcc void @_ZN3std10sys_common9backtrace28__rust_begin_short_backtrace17hed14abe39ba5a0e7E() unnamed_addr #2 !dbg !92 {
start:
; call RUSTSEC_2020_0159::main::{{closure}}
  call fastcc void @"_ZN17RUSTSEC_2020_01594main28_$u7b$$u7b$closure$u7d$$u7d$17h704540807c6b8e0dE"() #29, !dbg !93
  call void asm sideeffect "", "~{memory}"(), !dbg !94, !srcloc !82
  ret void, !dbg !99
}

; std::io::Write::write_all
; Function Attrs: nounwind nonlazybind
define internal fastcc ptr @_ZN3std2io5Write9write_all17h2447122d19e331d1E(ptr align 1 %self, ptr align 1 %arg, i64 %arg5) unnamed_addr #3 personality ptr @rust_eh_personality !dbg !100 {
start:
  %_41 = alloca { ptr, i64 }, align 8
  %_40 = alloca %"core::ptr::metadata::PtrRepr<[u8]>", align 8
  %_34 = alloca %"core::ptr::metadata::PtrRepr<[u8]>", align 8
  %_22 = alloca ptr, align 8
  %_21 = alloca ptr, align 8
  %e = alloca ptr, align 8
  %_7 = alloca ptr, align 8
  %_4 = alloca %"core::result::Result<usize, std::io::error::Error>", align 8
  %_0 = alloca ptr, align 8
  %buf = alloca { ptr, i64 }, align 8
  store ptr %arg, ptr %buf, align 8
  %i = getelementptr inbounds { ptr, i64 }, ptr %buf, i32 0, i32 1
  store i64 %arg5, ptr %i, align 8
  br label %bb1, !dbg !104

bb1:                                              ; preds = %bb16, %start
  %self.12 = phi i64 [ %_5.136, %bb16 ], [ %arg5, %start ]
  %self.01 = phi ptr [ %_5.034, %bb16 ], [ %arg, %start ]
  %i7 = icmp eq i64 %self.12, 0, !dbg !105
  br i1 %i7, label %bb2, label %bb3, !dbg !105

bb2:                                              ; preds = %bb1
  store ptr null, ptr %_0, align 8, !dbg !106
  br label %bb14, !dbg !107

bb3:                                              ; preds = %bb1
; call <std::sys::unix::stdio::Stderr as std::io::Write>::write
  call void @"_ZN64_$LT$std..sys..unix..stdio..Stderr$u20$as$u20$std..io..Write$GT$5write17hc551fcdb92d4f4b1E"(ptr sret(%"core::result::Result<usize, std::io::error::Error>") align 8 %_4, ptr align 1 %self, ptr align 1 %self.01, i64 %self.12) #29, !dbg !108
  %_6 = load i64, ptr %_4, align 8, !dbg !108, !range !109, !noundef !16
  %i9 = icmp eq i64 %_6, 0, !dbg !110
  br i1 %i9, label %bb5, label %bb9, !dbg !110

bb14:                                             ; preds = %bb7, %bb12, %bb2
  %i10 = phi ptr [ @alloc_626cc8bfd6c94d404aa777557e31db63, %bb7 ], [ %e4, %bb12 ], [ null, %bb2 ], !dbg !107
  ret ptr %i10, !dbg !107

bb5:                                              ; preds = %bb3
  %i11 = getelementptr inbounds %"core::result::Result<usize, std::io::error::Error>::Ok", ptr %_4, i32 0, i32 1, !dbg !110
  %i12 = load i64, ptr %i11, align 8, !dbg !110, !noundef !16
  %i13 = icmp eq i64 %i12, 0, !dbg !110
  br i1 %i13, label %bb7, label %bb8, !dbg !110

bb9:                                              ; preds = %bb3
  %i14 = getelementptr inbounds %"core::result::Result<usize, std::io::error::Error>::Err", ptr %_4, i32 0, i32 1, !dbg !111
  store ptr %i14, ptr %e, align 8, !dbg !111
  %i14.val = load ptr, ptr %i14, align 8, !dbg !112, !nonnull !16, !noundef !16
; call std::io::error::Error::is_interrupted
  %_13 = call fastcc zeroext i1 @_ZN3std2io5error5Error14is_interrupted17h136e6333ede4d1efE(ptr %i14.val) #29, !dbg !112
  br i1 %_13, label %bb9.bb19_crit_edge, label %bb12, !dbg !112

bb9.bb19_crit_edge:                               ; preds = %bb9
  %_18.pre = load i64, ptr %_4, align 8, !dbg !113, !range !109
  br label %bb19, !dbg !112

bb7:                                              ; preds = %bb5
  store ptr @alloc_626cc8bfd6c94d404aa777557e31db63, ptr %_22, align 8, !dbg !114
  store ptr @alloc_626cc8bfd6c94d404aa777557e31db63, ptr %_21, align 8, !dbg !136
  store ptr @alloc_626cc8bfd6c94d404aa777557e31db63, ptr %_7, align 8, !dbg !137
  store ptr @alloc_626cc8bfd6c94d404aa777557e31db63, ptr %_0, align 8, !dbg !138
  br label %bb14, !dbg !139

bb8:                                              ; preds = %bb5
  %_27 = icmp ugt i64 %i12, %self.12, !dbg !142
  br i1 %_27, label %bb23, label %bb24, !dbg !142

bb24:                                             ; preds = %bb8
  store ptr %self.01, ptr %_34, align 8, !dbg !152
  %i20 = getelementptr inbounds { ptr, i64 }, ptr %_34, i32 0, i32 1, !dbg !152
  store i64 %self.12, ptr %i20, align 8, !dbg !152
  %new_len = sub nuw i64 %self.12, %i12, !dbg !168
  %data = getelementptr inbounds i8, ptr %self.01, i64 %i12, !dbg !173
  store ptr %data, ptr %_41, align 8, !dbg !180
  %i22 = getelementptr inbounds { ptr, i64 }, ptr %_41, i32 0, i32 1, !dbg !180
  store i64 %new_len, ptr %i22, align 8, !dbg !180
  store ptr %data, ptr %_40, align 8, !dbg !188
  %i26 = getelementptr inbounds { ptr, i64 }, ptr %_40, i32 0, i32 1, !dbg !188
  store i64 %new_len, ptr %i26, align 8, !dbg !188
  store ptr %data, ptr %buf, align 8, !dbg !189
  store i64 %new_len, ptr %i, align 8, !dbg !189
  br label %bb19, !dbg !190

bb23:                                             ; preds = %bb8
; call core::slice::index::slice_start_index_len_fail
  call void @_ZN4core5slice5index26slice_start_index_len_fail17h0187bf4d120fc375E(i64 %i12, i64 %self.12, ptr align 8 @alloc_4281a0c14125330c5d3c45e00517e107) #28, !dbg !191
  unreachable, !dbg !191

bb19:                                             ; preds = %bb9.bb19_crit_edge, %bb24
  %_18 = phi i64 [ %_18.pre, %bb9.bb19_crit_edge ], [ 0, %bb24 ], !dbg !113
  %_5.136 = phi i64 [ %self.12, %bb9.bb19_crit_edge ], [ %new_len, %bb24 ]
  %_5.034 = phi ptr [ %self.01, %bb9.bb19_crit_edge ], [ %data, %bb24 ]
  %i29 = icmp eq i64 %_18, 1, !dbg !113
  br i1 %i29, label %bb18, label %bb16, !dbg !113

bb12:                                             ; preds = %bb9
  %e4 = load ptr, ptr %i14, align 8, !dbg !192, !nonnull !16, !noundef !16
  store ptr %e4, ptr %_0, align 8, !dbg !193
  br label %bb14, !dbg !139

bb16:                                             ; preds = %bb18, %bb19
  br label %bb1, !dbg !104

bb18:                                             ; preds = %bb19
  %i31 = getelementptr inbounds %"core::result::Result<usize, std::io::error::Error>::Err", ptr %_4, i32 0, i32 1, !dbg !113
; call core::ptr::drop_in_place<std::io::error::Error>
  call void @"_ZN4core3ptr42drop_in_place$LT$std..io..error..Error$GT$17h73a7c5e879c4c70eE"(ptr align 8 %i31) #29, !dbg !113
  br label %bb16, !dbg !113
}

; std::io::Write::write_fmt
; Function Attrs: nounwind nonlazybind
define internal fastcc ptr @_ZN3std2io5Write9write_fmt17h03d2ca5a3182c085E(ptr align 1 %self, ptr align 8 %fmt) unnamed_addr #3 personality ptr @rust_eh_personality !dbg !195 {
start:
  %_16 = alloca ptr, align 8
  %_15 = alloca ptr, align 8
  %_12 = alloca i8, align 1
  %_10 = alloca ptr, align 8
  %_4 = alloca i8, align 1
  %output = alloca { ptr, ptr }, align 8
  %_0 = alloca ptr, align 8
  store i8 1, ptr %_12, align 1, !dbg !196
  store ptr %self, ptr %output, align 8, !dbg !196
  %i = getelementptr inbounds { ptr, ptr }, ptr %output, i32 0, i32 1, !dbg !196
  store ptr null, ptr %i, align 8, !dbg !196
; call core::fmt::write
  %i2 = call zeroext i1 @_ZN4core3fmt5write17h3ed6aeaa977c8e45E(ptr align 1 %output, ptr align 8 @vtable.0, ptr align 8 %fmt) #29, !dbg !197
  %i3 = zext i1 %i2 to i8, !dbg !197
  store i8 %i3, ptr %_4, align 1, !dbg !197
  br i1 %i2, label %bb2, label %Flow27, !dbg !199

Flow27:                                           ; preds = %Flow26, %start
  %0 = phi i1 [ %3, %Flow26 ], [ undef, %start ]
  %1 = phi ptr [ %4, %Flow26 ], [ undef, %start ]
  %2 = phi i1 [ false, %Flow26 ], [ true, %start ], !dbg !199
  br i1 %2, label %bb4, label %bb12, !dbg !199

bb4:                                              ; preds = %Flow27
  store ptr null, ptr %_0, align 8, !dbg !200
  br label %bb12, !dbg !201

bb2:                                              ; preds = %start
  %i8 = load ptr, ptr %i, align 8, !dbg !202, !noundef !16
  %i9 = ptrtoint ptr %i8 to i64, !dbg !202
  %i10 = icmp eq i64 %i9, 0, !dbg !202
  br i1 %i10, label %bb6, label %Flow25, !dbg !212

Flow26:                                           ; preds = %bb5, %Flow25
  %3 = phi i1 [ false, %bb5 ], [ true, %Flow25 ]
  %4 = phi ptr [ %i8, %bb5 ], [ @alloc_5d9af7a776dc0d9eecd628aaf786bef9, %Flow25 ]
  br label %Flow27, !dbg !212

bb12:                                             ; preds = %bb4, %Flow27
  %i18 = phi ptr [ %1, %Flow27 ], [ null, %bb4 ]
  %i11 = phi i1 [ %0, %Flow27 ], [ true, %bb4 ], !dbg !213
  br i1 %i11, label %bb11, label %bb10, !dbg !213

bb6:                                              ; preds = %bb2
  store ptr @alloc_5d9af7a776dc0d9eecd628aaf786bef9, ptr %_16, align 8, !dbg !214
  store ptr @alloc_5d9af7a776dc0d9eecd628aaf786bef9, ptr %_15, align 8, !dbg !227
  store ptr @alloc_5d9af7a776dc0d9eecd628aaf786bef9, ptr %_10, align 8, !dbg !228
  store ptr @alloc_5d9af7a776dc0d9eecd628aaf786bef9, ptr %_0, align 8, !dbg !229
  br label %Flow25, !dbg !230

Flow25:                                           ; preds = %bb6, %bb2
  %5 = phi i1 [ false, %bb6 ], [ true, %bb2 ], !dbg !212
  br i1 %5, label %bb5, label %Flow26, !dbg !212

bb5:                                              ; preds = %Flow25
  store i8 0, ptr %_12, align 1, !dbg !231
  store ptr %i8, ptr %_0, align 8, !dbg !231
  br label %Flow26, !dbg !230

Flow:                                             ; preds = %codeRepl.i, %bb11
  br label %bb10, !dbg !232

bb10:                                             ; preds = %bb12, %Flow
  ret ptr %i18, !dbg !235

bb11:                                             ; preds = %bb12
  %i20 = load ptr, ptr %i, align 8, !dbg !232, !noundef !16
  %i21 = ptrtoint ptr %i20 to i64, !dbg !232
  %i22 = icmp ne i64 %i21, 0, !dbg !232
  br i1 %i22, label %codeRepl.i, label %Flow, !dbg !232

codeRepl.i:                                       ; preds = %bb11
; call core::ptr::drop_in_place<core::result::Result<(),std::io::error::Error>>.10.bb2
  call fastcc void @"_ZN4core3ptr81drop_in_place$LT$core..result..Result$LT$$LP$$RP$$C$std..io..error..Error$GT$$GT$17hac28bd6a75d778ebE.10.bb2"(ptr %i), !dbg !232
  br label %Flow
}

; std::io::error::repr_bitpacked::decode_repr
; Function Attrs: inlinehint mustprogress nofree nosync nounwind nonlazybind willreturn memory(argmem: write, inaccessiblemem: readwrite)
define internal fastcc void @_ZN3std2io5error14repr_bitpacked11decode_repr17h8692236bc1642effE(ptr noalias nocapture writeonly align 8 %_0, ptr %ptr) unnamed_addr #4 personality ptr @rust_eh_personality !dbg !236 {
start:
  %i = alloca ptr, align 8
  %_51 = alloca %"core::ptr::metadata::PtrComponents<()>", align 8
  %_50 = alloca %"core::ptr::metadata::PtrRepr<()>", align 8
  %_26 = alloca i8, align 1
  %_24 = alloca ptr, align 8
  %self1 = alloca ptr, align 8
  %self = alloca i8, align 1
  %bits = alloca i64, align 8
  store i8 1, ptr %_26, align 1, !dbg !237
  %i3 = ptrtoint ptr %ptr to i64, !dbg !238
  store i64 %i3, ptr %bits, align 8, !dbg !238
  %_5 = and i64 %i3, 3, !dbg !243
  switch i64 %_5, label %start.unreachabledefault [
    i64 2, label %bb2
    i64 3, label %bb3
    i64 0, label %bb5
    i64 1, label %bb6
  ], !dbg !245

start.unreachabledefault:                         ; preds = %start
  unreachable

bb2:                                              ; preds = %start
  %_8 = ashr i64 %i3, 32, !dbg !246
  %code = trunc i64 %_8 to i32, !dbg !246
  %i4 = getelementptr inbounds %"std::io::error::ErrorData<alloc::boxed::Box<std::io::error::Custom>>::Os", ptr %_0, i32 0, i32 1, !dbg !247
  store i32 %code, ptr %i4, align 4, !dbg !247
  store i8 0, ptr %_0, align 8, !dbg !247
  br label %bb9, !dbg !249

bb3:                                              ; preds = %start
  %_12 = lshr i64 %i3, 32, !dbg !250
  %kind_bits = trunc i64 %_12 to i32, !dbg !250
; call std::io::error::repr_bitpacked::kind_from_prim
  %i5 = call fastcc i8 @_ZN3std2io5error14repr_bitpacked14kind_from_prim17hb8d863136b6ce7e5E(i32 %kind_bits) #29, !dbg !251, !range !253
  store i8 %i5, ptr %self, align 1, !dbg !251
  %i7 = icmp eq i8 %i5, 41, !dbg !254
  %_28 = select i1 %i7, i64 0, i64 1, !dbg !254
  %_53 = icmp eq i64 %_28, 1, !dbg !261
  call void @llvm.assume(i1 %_53), !dbg !261
  %i8 = getelementptr inbounds %"std::io::error::ErrorData<alloc::boxed::Box<std::io::error::Custom>>::Simple", ptr %_0, i32 0, i32 1, !dbg !262
  store i8 %i5, ptr %i8, align 1, !dbg !262
  store i8 1, ptr %_0, align 8, !dbg !262
  br label %bb9, !dbg !264

bb5:                                              ; preds = %start
  store ptr %ptr, ptr %self1, align 8, !dbg !265
  %i9 = getelementptr inbounds %"std::io::error::ErrorData<alloc::boxed::Box<std::io::error::Custom>>::SimpleMessage", ptr %_0, i32 0, i32 1, !dbg !274
  store ptr %ptr, ptr %i9, align 8, !dbg !274
  store i8 2, ptr %_0, align 8, !dbg !274
  br label %bb9, !dbg !275

bb6:                                              ; preds = %start
  %i10 = getelementptr i8, ptr %ptr, i64 -1, !dbg !276
  store ptr %i10, ptr %i, align 8, !dbg !276
  store ptr %i10, ptr %_51, align 8, !dbg !287
  call void @llvm.memcpy.p0.p0.i64(ptr align 8 %_50, ptr align 8 %_51, i64 8, i1 false), !dbg !295
  %self2 = load ptr, ptr %_50, align 8, !dbg !295, !noundef !16
  store i8 0, ptr %_26, align 1, !dbg !296
  store ptr %self2, ptr %_24, align 8, !dbg !296
; call <std::io::error::repr_bitpacked::Repr as core::ops::drop::Drop>::drop::{{closure}}
  %_22 = call fastcc align 8 ptr @"_ZN78_$LT$std..io..error..repr_bitpacked..Repr$u20$as$u20$core..ops..drop..Drop$GT$4drop28_$u7b$$u7b$closure$u7d$$u7d$17h35bfcea65322123aE"(ptr %self2) #29, !dbg !296
  %i12 = getelementptr inbounds %"std::io::error::ErrorData<alloc::boxed::Box<std::io::error::Custom>>::Custom", ptr %_0, i32 0, i32 1, !dbg !298
  store ptr %_22, ptr %i12, align 8, !dbg !298
  store i8 3, ptr %_0, align 8, !dbg !298
  br label %bb9, !dbg !299

bb9:                                              ; preds = %bb2, %bb3, %bb5, %bb6
  ret void, !dbg !300
}

; std::io::error::repr_bitpacked::decode_repr
; Function Attrs: inlinehint mustprogress nofree nosync nounwind nonlazybind willreturn memory(argmem: write, inaccessiblemem: readwrite)
define internal fastcc void @_ZN3std2io5error14repr_bitpacked11decode_repr17hbd3b5c5ccfcf75d4E(ptr noalias nocapture writeonly align 8 %_0, ptr %ptr) unnamed_addr #4 personality ptr @rust_eh_personality !dbg !301 {
start:
  %i = alloca ptr, align 8
  %_51 = alloca %"core::ptr::metadata::PtrComponents<()>", align 8
  %_50 = alloca %"core::ptr::metadata::PtrRepr<()>", align 8
  %_26 = alloca i8, align 1
  %_24 = alloca ptr, align 8
  %self1 = alloca ptr, align 8
  %self = alloca i8, align 1
  %bits = alloca i64, align 8
  store i8 1, ptr %_26, align 1, !dbg !302
  %i3 = ptrtoint ptr %ptr to i64, !dbg !303
  store i64 %i3, ptr %bits, align 8, !dbg !303
  %_5 = and i64 %i3, 3, !dbg !308
  switch i64 %_5, label %start.unreachabledefault [
    i64 2, label %bb2
    i64 3, label %bb3
    i64 0, label %bb5
    i64 1, label %bb6
  ], !dbg !310

start.unreachabledefault:                         ; preds = %start
  unreachable

bb2:                                              ; preds = %start
  %_8 = ashr i64 %i3, 32, !dbg !311
  %code = trunc i64 %_8 to i32, !dbg !311
  %i4 = getelementptr inbounds %"std::io::error::ErrorData<&std::io::error::Custom>::Os", ptr %_0, i32 0, i32 1, !dbg !312
  store i32 %code, ptr %i4, align 4, !dbg !312
  store i8 0, ptr %_0, align 8, !dbg !312
  br label %bb9, !dbg !314

bb3:                                              ; preds = %start
  %_12 = lshr i64 %i3, 32, !dbg !315
  %kind_bits = trunc i64 %_12 to i32, !dbg !315
; call std::io::error::repr_bitpacked::kind_from_prim
  %i5 = call fastcc i8 @_ZN3std2io5error14repr_bitpacked14kind_from_prim17hb8d863136b6ce7e5E(i32 %kind_bits) #29, !dbg !316, !range !253
  store i8 %i5, ptr %self, align 1, !dbg !316
  %i7 = icmp eq i8 %i5, 41, !dbg !318
  %_28 = select i1 %i7, i64 0, i64 1, !dbg !318
  %_53 = icmp eq i64 %_28, 1, !dbg !322
  call void @llvm.assume(i1 %_53), !dbg !322
  %i8 = getelementptr inbounds %"std::io::error::ErrorData<&std::io::error::Custom>::Simple", ptr %_0, i32 0, i32 1, !dbg !323
  store i8 %i5, ptr %i8, align 1, !dbg !323
  store i8 1, ptr %_0, align 8, !dbg !323
  br label %bb9, !dbg !325

bb5:                                              ; preds = %start
  store ptr %ptr, ptr %self1, align 8, !dbg !326
  %i9 = getelementptr inbounds %"std::io::error::ErrorData<&std::io::error::Custom>::SimpleMessage", ptr %_0, i32 0, i32 1, !dbg !335
  store ptr %ptr, ptr %i9, align 8, !dbg !335
  store i8 2, ptr %_0, align 8, !dbg !335
  br label %bb9, !dbg !336

bb6:                                              ; preds = %start
  %i10 = getelementptr i8, ptr %ptr, i64 -1, !dbg !337
  store ptr %i10, ptr %i, align 8, !dbg !337
  store ptr %i10, ptr %_51, align 8, !dbg !348
  call void @llvm.memcpy.p0.p0.i64(ptr align 8 %_50, ptr align 8 %_51, i64 8, i1 false), !dbg !356
  %self2 = load ptr, ptr %_50, align 8, !dbg !356, !noundef !16
  store i8 0, ptr %_26, align 1, !dbg !357
  store ptr %self2, ptr %_24, align 8, !dbg !357
; call std::io::error::repr_bitpacked::Repr::data::{{closure}}
  %_22 = call fastcc align 8 ptr @"_ZN3std2io5error14repr_bitpacked4Repr4data28_$u7b$$u7b$closure$u7d$$u7d$17hbbe3ba4ce70488f0E"(ptr %self2) #29, !dbg !357
  %i12 = getelementptr inbounds %"std::io::error::ErrorData<&std::io::error::Custom>::Custom", ptr %_0, i32 0, i32 1, !dbg !359
  store ptr %_22, ptr %i12, align 8, !dbg !359
  store i8 3, ptr %_0, align 8, !dbg !359
  br label %bb9, !dbg !360

bb9:                                              ; preds = %bb2, %bb3, %bb5, %bb6
  ret void, !dbg !361
}

; std::io::error::repr_bitpacked::kind_from_prim
; Function Attrs: inlinehint mustprogress nofree norecurse nosync nounwind nonlazybind willreturn memory(none)
define internal fastcc i8 @_ZN3std2io5error14repr_bitpacked14kind_from_prim17hb8d863136b6ce7e5E(i32 %arg) unnamed_addr #5 !dbg !362 {
start:
  %_0 = alloca i8, align 1
  %ek = alloca i32, align 4
  store i32 %arg, ptr %ek, align 4
  %i = icmp ne i32 %arg, 0, !dbg !363
  br i1 %i, label %bb2, label %Flow162, !dbg !363

Flow162:                                          ; preds = %Flow161, %start
  %0 = phi i8 [ %41, %Flow161 ], [ undef, %start ]
  %1 = phi i1 [ false, %Flow161 ], [ true, %start ], !dbg !363
  br i1 %1, label %bb1, label %bb83, !dbg !363

bb1:                                              ; preds = %Flow162
  store i8 0, ptr %_0, align 1, !dbg !364
  br label %bb83, !dbg !363

bb2:                                              ; preds = %start
  %i41 = icmp ne i32 %arg, 1, !dbg !363
  br i1 %i41, label %bb4, label %Flow160, !dbg !363

Flow83:                                           ; preds = %bb81, %Flow
  %2 = phi i8 [ 40, %bb81 ], [ 41, %Flow ]
  br label %Flow84, !dbg !363

Flow85:                                           ; preds = %bb79, %Flow84
  %3 = phi i8 [ 38, %bb79 ], [ %118, %Flow84 ]
  br label %Flow86, !dbg !363

Flow87:                                           ; preds = %bb77, %Flow86
  %4 = phi i8 [ 36, %bb77 ], [ %116, %Flow86 ]
  br label %Flow88, !dbg !363

Flow89:                                           ; preds = %bb75, %Flow88
  %5 = phi i8 [ 37, %bb75 ], [ %114, %Flow88 ]
  br label %Flow90, !dbg !363

Flow91:                                           ; preds = %bb73, %Flow90
  %6 = phi i8 [ 39, %bb73 ], [ %112, %Flow90 ]
  br label %Flow92, !dbg !363

Flow93:                                           ; preds = %bb71, %Flow92
  %7 = phi i8 [ 35, %bb71 ], [ %110, %Flow92 ]
  br label %Flow94, !dbg !363

Flow95:                                           ; preds = %bb69, %Flow94
  %8 = phi i8 [ 34, %bb69 ], [ %108, %Flow94 ]
  br label %Flow96, !dbg !363

Flow97:                                           ; preds = %bb67, %Flow96
  %9 = phi i8 [ 33, %bb67 ], [ %106, %Flow96 ]
  br label %Flow98, !dbg !363

Flow99:                                           ; preds = %bb65, %Flow98
  %10 = phi i8 [ 32, %bb65 ], [ %104, %Flow98 ]
  br label %Flow100, !dbg !363

Flow101:                                          ; preds = %bb63, %Flow100
  %11 = phi i8 [ 31, %bb63 ], [ %102, %Flow100 ]
  br label %Flow102, !dbg !363

Flow103:                                          ; preds = %bb61, %Flow102
  %12 = phi i8 [ 30, %bb61 ], [ %100, %Flow102 ]
  br label %Flow104, !dbg !363

Flow105:                                          ; preds = %bb59, %Flow104
  %13 = phi i8 [ 29, %bb59 ], [ %98, %Flow104 ]
  br label %Flow106, !dbg !363

Flow107:                                          ; preds = %bb57, %Flow106
  %14 = phi i8 [ 28, %bb57 ], [ %96, %Flow106 ]
  br label %Flow108, !dbg !363

Flow109:                                          ; preds = %bb55, %Flow108
  %15 = phi i8 [ 27, %bb55 ], [ %94, %Flow108 ]
  br label %Flow110, !dbg !363

Flow111:                                          ; preds = %bb53, %Flow110
  %16 = phi i8 [ 26, %bb53 ], [ %92, %Flow110 ]
  br label %Flow112, !dbg !363

Flow113:                                          ; preds = %bb51, %Flow112
  %17 = phi i8 [ 25, %bb51 ], [ %90, %Flow112 ]
  br label %Flow114, !dbg !363

Flow115:                                          ; preds = %bb49, %Flow114
  %18 = phi i8 [ 24, %bb49 ], [ %88, %Flow114 ]
  br label %Flow116, !dbg !363

Flow117:                                          ; preds = %bb47, %Flow116
  %19 = phi i8 [ 23, %bb47 ], [ %86, %Flow116 ]
  br label %Flow118, !dbg !363

Flow119:                                          ; preds = %bb45, %Flow118
  %20 = phi i8 [ 22, %bb45 ], [ %84, %Flow118 ]
  br label %Flow120, !dbg !363

Flow121:                                          ; preds = %bb43, %Flow120
  %21 = phi i8 [ 21, %bb43 ], [ %82, %Flow120 ]
  br label %Flow122, !dbg !363

Flow123:                                          ; preds = %bb41, %Flow122
  %22 = phi i8 [ 20, %bb41 ], [ %80, %Flow122 ]
  br label %Flow124, !dbg !363

Flow125:                                          ; preds = %bb39, %Flow124
  %23 = phi i8 [ 19, %bb39 ], [ %78, %Flow124 ]
  br label %Flow126, !dbg !363

Flow127:                                          ; preds = %bb37, %Flow126
  %24 = phi i8 [ 18, %bb37 ], [ %76, %Flow126 ]
  br label %Flow128, !dbg !363

Flow129:                                          ; preds = %bb35, %Flow128
  %25 = phi i8 [ 17, %bb35 ], [ %74, %Flow128 ]
  br label %Flow130, !dbg !363

Flow131:                                          ; preds = %bb33, %Flow130
  %26 = phi i8 [ 16, %bb33 ], [ %72, %Flow130 ]
  br label %Flow132, !dbg !363

Flow133:                                          ; preds = %bb31, %Flow132
  %27 = phi i8 [ 15, %bb31 ], [ %70, %Flow132 ]
  br label %Flow134, !dbg !363

Flow135:                                          ; preds = %bb29, %Flow134
  %28 = phi i8 [ 14, %bb29 ], [ %68, %Flow134 ]
  br label %Flow136, !dbg !363

Flow137:                                          ; preds = %bb27, %Flow136
  %29 = phi i8 [ 13, %bb27 ], [ %66, %Flow136 ]
  br label %Flow138, !dbg !363

Flow139:                                          ; preds = %bb25, %Flow138
  %30 = phi i8 [ 12, %bb25 ], [ %64, %Flow138 ]
  br label %Flow140, !dbg !363

Flow141:                                          ; preds = %bb23, %Flow140
  %31 = phi i8 [ 11, %bb23 ], [ %62, %Flow140 ]
  br label %Flow142, !dbg !363

Flow143:                                          ; preds = %bb21, %Flow142
  %32 = phi i8 [ 10, %bb21 ], [ %60, %Flow142 ]
  br label %Flow144, !dbg !363

Flow145:                                          ; preds = %bb19, %Flow144
  %33 = phi i8 [ 9, %bb19 ], [ %58, %Flow144 ]
  br label %Flow146, !dbg !363

Flow147:                                          ; preds = %bb17, %Flow146
  %34 = phi i8 [ 8, %bb17 ], [ %56, %Flow146 ]
  br label %Flow148, !dbg !363

Flow149:                                          ; preds = %bb15, %Flow148
  %35 = phi i8 [ 7, %bb15 ], [ %54, %Flow148 ]
  br label %Flow150, !dbg !363

Flow151:                                          ; preds = %bb13, %Flow150
  %36 = phi i8 [ 6, %bb13 ], [ %52, %Flow150 ]
  br label %Flow152, !dbg !363

Flow153:                                          ; preds = %bb11, %Flow152
  %37 = phi i8 [ 5, %bb11 ], [ %50, %Flow152 ]
  br label %Flow154, !dbg !363

Flow155:                                          ; preds = %bb9, %Flow154
  %38 = phi i8 [ 4, %bb9 ], [ %48, %Flow154 ]
  br label %Flow156, !dbg !363

Flow157:                                          ; preds = %bb7, %Flow156
  %39 = phi i8 [ 3, %bb7 ], [ %46, %Flow156 ]
  br label %Flow158, !dbg !363

Flow159:                                          ; preds = %bb5, %Flow158
  %40 = phi i8 [ 2, %bb5 ], [ %44, %Flow158 ]
  br label %Flow160, !dbg !363

Flow161:                                          ; preds = %bb3, %Flow160
  %41 = phi i8 [ 1, %bb3 ], [ %42, %Flow160 ]
  br label %Flow162, !dbg !363

bb83:                                             ; preds = %bb1, %Flow162
  %i42 = phi i8 [ %0, %Flow162 ], [ 0, %bb1 ], !dbg !366
  ret i8 %i42, !dbg !366

Flow160:                                          ; preds = %Flow159, %bb2
  %42 = phi i8 [ %40, %Flow159 ], [ undef, %bb2 ]
  %43 = phi i1 [ false, %Flow159 ], [ true, %bb2 ], !dbg !363
  br i1 %43, label %bb3, label %Flow161, !dbg !363

bb3:                                              ; preds = %Flow160
  store i8 1, ptr %_0, align 1, !dbg !367
  br label %Flow161, !dbg !363

bb4:                                              ; preds = %bb2
  %i43 = icmp ne i32 %arg, 2, !dbg !363
  br i1 %i43, label %bb6, label %Flow158, !dbg !363

Flow158:                                          ; preds = %Flow157, %bb4
  %44 = phi i8 [ %39, %Flow157 ], [ undef, %bb4 ]
  %45 = phi i1 [ false, %Flow157 ], [ true, %bb4 ], !dbg !363
  br i1 %45, label %bb5, label %Flow159, !dbg !363

bb5:                                              ; preds = %Flow158
  store i8 2, ptr %_0, align 1, !dbg !369
  br label %Flow159, !dbg !363

bb6:                                              ; preds = %bb4
  %i44 = icmp ne i32 %arg, 3, !dbg !363
  br i1 %i44, label %bb8, label %Flow156, !dbg !363

Flow156:                                          ; preds = %Flow155, %bb6
  %46 = phi i8 [ %38, %Flow155 ], [ undef, %bb6 ]
  %47 = phi i1 [ false, %Flow155 ], [ true, %bb6 ], !dbg !363
  br i1 %47, label %bb7, label %Flow157, !dbg !363

bb7:                                              ; preds = %Flow156
  store i8 3, ptr %_0, align 1, !dbg !371
  br label %Flow157, !dbg !363

bb8:                                              ; preds = %bb6
  %i45 = icmp ne i32 %arg, 4, !dbg !363
  br i1 %i45, label %bb10, label %Flow154, !dbg !363

Flow154:                                          ; preds = %Flow153, %bb8
  %48 = phi i8 [ %37, %Flow153 ], [ undef, %bb8 ]
  %49 = phi i1 [ false, %Flow153 ], [ true, %bb8 ], !dbg !363
  br i1 %49, label %bb9, label %Flow155, !dbg !363

bb9:                                              ; preds = %Flow154
  store i8 4, ptr %_0, align 1, !dbg !373
  br label %Flow155, !dbg !363

bb10:                                             ; preds = %bb8
  %i46 = icmp ne i32 %arg, 5, !dbg !363
  br i1 %i46, label %bb12, label %Flow152, !dbg !363

Flow152:                                          ; preds = %Flow151, %bb10
  %50 = phi i8 [ %36, %Flow151 ], [ undef, %bb10 ]
  %51 = phi i1 [ false, %Flow151 ], [ true, %bb10 ], !dbg !363
  br i1 %51, label %bb11, label %Flow153, !dbg !363

bb11:                                             ; preds = %Flow152
  store i8 5, ptr %_0, align 1, !dbg !375
  br label %Flow153, !dbg !363

bb12:                                             ; preds = %bb10
  %i47 = icmp ne i32 %arg, 6, !dbg !363
  br i1 %i47, label %bb14, label %Flow150, !dbg !363

Flow150:                                          ; preds = %Flow149, %bb12
  %52 = phi i8 [ %35, %Flow149 ], [ undef, %bb12 ]
  %53 = phi i1 [ false, %Flow149 ], [ true, %bb12 ], !dbg !363
  br i1 %53, label %bb13, label %Flow151, !dbg !363

bb13:                                             ; preds = %Flow150
  store i8 6, ptr %_0, align 1, !dbg !377
  br label %Flow151, !dbg !363

bb14:                                             ; preds = %bb12
  %i48 = icmp ne i32 %arg, 7, !dbg !363
  br i1 %i48, label %bb16, label %Flow148, !dbg !363

Flow148:                                          ; preds = %Flow147, %bb14
  %54 = phi i8 [ %34, %Flow147 ], [ undef, %bb14 ]
  %55 = phi i1 [ false, %Flow147 ], [ true, %bb14 ], !dbg !363
  br i1 %55, label %bb15, label %Flow149, !dbg !363

bb15:                                             ; preds = %Flow148
  store i8 7, ptr %_0, align 1, !dbg !379
  br label %Flow149, !dbg !363

bb16:                                             ; preds = %bb14
  %i49 = icmp ne i32 %arg, 8, !dbg !363
  br i1 %i49, label %bb18, label %Flow146, !dbg !363

Flow146:                                          ; preds = %Flow145, %bb16
  %56 = phi i8 [ %33, %Flow145 ], [ undef, %bb16 ]
  %57 = phi i1 [ false, %Flow145 ], [ true, %bb16 ], !dbg !363
  br i1 %57, label %bb17, label %Flow147, !dbg !363

bb17:                                             ; preds = %Flow146
  store i8 8, ptr %_0, align 1, !dbg !381
  br label %Flow147, !dbg !363

bb18:                                             ; preds = %bb16
  %i50 = icmp ne i32 %arg, 9, !dbg !363
  br i1 %i50, label %bb20, label %Flow144, !dbg !363

Flow144:                                          ; preds = %Flow143, %bb18
  %58 = phi i8 [ %32, %Flow143 ], [ undef, %bb18 ]
  %59 = phi i1 [ false, %Flow143 ], [ true, %bb18 ], !dbg !363
  br i1 %59, label %bb19, label %Flow145, !dbg !363

bb19:                                             ; preds = %Flow144
  store i8 9, ptr %_0, align 1, !dbg !383
  br label %Flow145, !dbg !363

bb20:                                             ; preds = %bb18
  %i51 = icmp ne i32 %arg, 10, !dbg !363
  br i1 %i51, label %bb22, label %Flow142, !dbg !363

Flow142:                                          ; preds = %Flow141, %bb20
  %60 = phi i8 [ %31, %Flow141 ], [ undef, %bb20 ]
  %61 = phi i1 [ false, %Flow141 ], [ true, %bb20 ], !dbg !363
  br i1 %61, label %bb21, label %Flow143, !dbg !363

bb21:                                             ; preds = %Flow142
  store i8 10, ptr %_0, align 1, !dbg !385
  br label %Flow143, !dbg !363

bb22:                                             ; preds = %bb20
  %i52 = icmp ne i32 %arg, 11, !dbg !363
  br i1 %i52, label %bb24, label %Flow140, !dbg !363

Flow140:                                          ; preds = %Flow139, %bb22
  %62 = phi i8 [ %30, %Flow139 ], [ undef, %bb22 ]
  %63 = phi i1 [ false, %Flow139 ], [ true, %bb22 ], !dbg !363
  br i1 %63, label %bb23, label %Flow141, !dbg !363

bb23:                                             ; preds = %Flow140
  store i8 11, ptr %_0, align 1, !dbg !387
  br label %Flow141, !dbg !363

bb24:                                             ; preds = %bb22
  %i53 = icmp ne i32 %arg, 12, !dbg !363
  br i1 %i53, label %bb26, label %Flow138, !dbg !363

Flow138:                                          ; preds = %Flow137, %bb24
  %64 = phi i8 [ %29, %Flow137 ], [ undef, %bb24 ]
  %65 = phi i1 [ false, %Flow137 ], [ true, %bb24 ], !dbg !363
  br i1 %65, label %bb25, label %Flow139, !dbg !363

bb25:                                             ; preds = %Flow138
  store i8 12, ptr %_0, align 1, !dbg !389
  br label %Flow139, !dbg !363

bb26:                                             ; preds = %bb24
  %i54 = icmp ne i32 %arg, 13, !dbg !363
  br i1 %i54, label %bb28, label %Flow136, !dbg !363

Flow136:                                          ; preds = %Flow135, %bb26
  %66 = phi i8 [ %28, %Flow135 ], [ undef, %bb26 ]
  %67 = phi i1 [ false, %Flow135 ], [ true, %bb26 ], !dbg !363
  br i1 %67, label %bb27, label %Flow137, !dbg !363

bb27:                                             ; preds = %Flow136
  store i8 13, ptr %_0, align 1, !dbg !391
  br label %Flow137, !dbg !363

bb28:                                             ; preds = %bb26
  %i55 = icmp ne i32 %arg, 14, !dbg !363
  br i1 %i55, label %bb30, label %Flow134, !dbg !363

Flow134:                                          ; preds = %Flow133, %bb28
  %68 = phi i8 [ %27, %Flow133 ], [ undef, %bb28 ]
  %69 = phi i1 [ false, %Flow133 ], [ true, %bb28 ], !dbg !363
  br i1 %69, label %bb29, label %Flow135, !dbg !363

bb29:                                             ; preds = %Flow134
  store i8 14, ptr %_0, align 1, !dbg !393
  br label %Flow135, !dbg !363

bb30:                                             ; preds = %bb28
  %i56 = icmp ne i32 %arg, 15, !dbg !363
  br i1 %i56, label %bb32, label %Flow132, !dbg !363

Flow132:                                          ; preds = %Flow131, %bb30
  %70 = phi i8 [ %26, %Flow131 ], [ undef, %bb30 ]
  %71 = phi i1 [ false, %Flow131 ], [ true, %bb30 ], !dbg !363
  br i1 %71, label %bb31, label %Flow133, !dbg !363

bb31:                                             ; preds = %Flow132
  store i8 15, ptr %_0, align 1, !dbg !395
  br label %Flow133, !dbg !363

bb32:                                             ; preds = %bb30
  %i57 = icmp ne i32 %arg, 16, !dbg !363
  br i1 %i57, label %bb34, label %Flow130, !dbg !363

Flow130:                                          ; preds = %Flow129, %bb32
  %72 = phi i8 [ %25, %Flow129 ], [ undef, %bb32 ]
  %73 = phi i1 [ false, %Flow129 ], [ true, %bb32 ], !dbg !363
  br i1 %73, label %bb33, label %Flow131, !dbg !363

bb33:                                             ; preds = %Flow130
  store i8 16, ptr %_0, align 1, !dbg !397
  br label %Flow131, !dbg !363

bb34:                                             ; preds = %bb32
  %i58 = icmp ne i32 %arg, 17, !dbg !363
  br i1 %i58, label %bb36, label %Flow128, !dbg !363

Flow128:                                          ; preds = %Flow127, %bb34
  %74 = phi i8 [ %24, %Flow127 ], [ undef, %bb34 ]
  %75 = phi i1 [ false, %Flow127 ], [ true, %bb34 ], !dbg !363
  br i1 %75, label %bb35, label %Flow129, !dbg !363

bb35:                                             ; preds = %Flow128
  store i8 17, ptr %_0, align 1, !dbg !399
  br label %Flow129, !dbg !363

bb36:                                             ; preds = %bb34
  %i59 = icmp ne i32 %arg, 18, !dbg !363
  br i1 %i59, label %bb38, label %Flow126, !dbg !363

Flow126:                                          ; preds = %Flow125, %bb36
  %76 = phi i8 [ %23, %Flow125 ], [ undef, %bb36 ]
  %77 = phi i1 [ false, %Flow125 ], [ true, %bb36 ], !dbg !363
  br i1 %77, label %bb37, label %Flow127, !dbg !363

bb37:                                             ; preds = %Flow126
  store i8 18, ptr %_0, align 1, !dbg !401
  br label %Flow127, !dbg !363

bb38:                                             ; preds = %bb36
  %i60 = icmp ne i32 %arg, 19, !dbg !363
  br i1 %i60, label %bb40, label %Flow124, !dbg !363

Flow124:                                          ; preds = %Flow123, %bb38
  %78 = phi i8 [ %22, %Flow123 ], [ undef, %bb38 ]
  %79 = phi i1 [ false, %Flow123 ], [ true, %bb38 ], !dbg !363
  br i1 %79, label %bb39, label %Flow125, !dbg !363

bb39:                                             ; preds = %Flow124
  store i8 19, ptr %_0, align 1, !dbg !403
  br label %Flow125, !dbg !363

bb40:                                             ; preds = %bb38
  %i61 = icmp ne i32 %arg, 20, !dbg !363
  br i1 %i61, label %bb42, label %Flow122, !dbg !363

Flow122:                                          ; preds = %Flow121, %bb40
  %80 = phi i8 [ %21, %Flow121 ], [ undef, %bb40 ]
  %81 = phi i1 [ false, %Flow121 ], [ true, %bb40 ], !dbg !363
  br i1 %81, label %bb41, label %Flow123, !dbg !363

bb41:                                             ; preds = %Flow122
  store i8 20, ptr %_0, align 1, !dbg !405
  br label %Flow123, !dbg !363

bb42:                                             ; preds = %bb40
  %i62 = icmp ne i32 %arg, 21, !dbg !363
  br i1 %i62, label %bb44, label %Flow120, !dbg !363

Flow120:                                          ; preds = %Flow119, %bb42
  %82 = phi i8 [ %20, %Flow119 ], [ undef, %bb42 ]
  %83 = phi i1 [ false, %Flow119 ], [ true, %bb42 ], !dbg !363
  br i1 %83, label %bb43, label %Flow121, !dbg !363

bb43:                                             ; preds = %Flow120
  store i8 21, ptr %_0, align 1, !dbg !407
  br label %Flow121, !dbg !363

bb44:                                             ; preds = %bb42
  %i63 = icmp ne i32 %arg, 22, !dbg !363
  br i1 %i63, label %bb46, label %Flow118, !dbg !363

Flow118:                                          ; preds = %Flow117, %bb44
  %84 = phi i8 [ %19, %Flow117 ], [ undef, %bb44 ]
  %85 = phi i1 [ false, %Flow117 ], [ true, %bb44 ], !dbg !363
  br i1 %85, label %bb45, label %Flow119, !dbg !363

bb45:                                             ; preds = %Flow118
  store i8 22, ptr %_0, align 1, !dbg !409
  br label %Flow119, !dbg !363

bb46:                                             ; preds = %bb44
  %i64 = icmp ne i32 %arg, 23, !dbg !363
  br i1 %i64, label %bb48, label %Flow116, !dbg !363

Flow116:                                          ; preds = %Flow115, %bb46
  %86 = phi i8 [ %18, %Flow115 ], [ undef, %bb46 ]
  %87 = phi i1 [ false, %Flow115 ], [ true, %bb46 ], !dbg !363
  br i1 %87, label %bb47, label %Flow117, !dbg !363

bb47:                                             ; preds = %Flow116
  store i8 23, ptr %_0, align 1, !dbg !411
  br label %Flow117, !dbg !363

bb48:                                             ; preds = %bb46
  %i65 = icmp ne i32 %arg, 24, !dbg !363
  br i1 %i65, label %bb50, label %Flow114, !dbg !363

Flow114:                                          ; preds = %Flow113, %bb48
  %88 = phi i8 [ %17, %Flow113 ], [ undef, %bb48 ]
  %89 = phi i1 [ false, %Flow113 ], [ true, %bb48 ], !dbg !363
  br i1 %89, label %bb49, label %Flow115, !dbg !363

bb49:                                             ; preds = %Flow114
  store i8 24, ptr %_0, align 1, !dbg !413
  br label %Flow115, !dbg !363

bb50:                                             ; preds = %bb48
  %i66 = icmp ne i32 %arg, 25, !dbg !363
  br i1 %i66, label %bb52, label %Flow112, !dbg !363

Flow112:                                          ; preds = %Flow111, %bb50
  %90 = phi i8 [ %16, %Flow111 ], [ undef, %bb50 ]
  %91 = phi i1 [ false, %Flow111 ], [ true, %bb50 ], !dbg !363
  br i1 %91, label %bb51, label %Flow113, !dbg !363

bb51:                                             ; preds = %Flow112
  store i8 25, ptr %_0, align 1, !dbg !415
  br label %Flow113, !dbg !363

bb52:                                             ; preds = %bb50
  %i67 = icmp ne i32 %arg, 26, !dbg !363
  br i1 %i67, label %bb54, label %Flow110, !dbg !363

Flow110:                                          ; preds = %Flow109, %bb52
  %92 = phi i8 [ %15, %Flow109 ], [ undef, %bb52 ]
  %93 = phi i1 [ false, %Flow109 ], [ true, %bb52 ], !dbg !363
  br i1 %93, label %bb53, label %Flow111, !dbg !363

bb53:                                             ; preds = %Flow110
  store i8 26, ptr %_0, align 1, !dbg !417
  br label %Flow111, !dbg !363

bb54:                                             ; preds = %bb52
  %i68 = icmp ne i32 %arg, 27, !dbg !363
  br i1 %i68, label %bb56, label %Flow108, !dbg !363

Flow108:                                          ; preds = %Flow107, %bb54
  %94 = phi i8 [ %14, %Flow107 ], [ undef, %bb54 ]
  %95 = phi i1 [ false, %Flow107 ], [ true, %bb54 ], !dbg !363
  br i1 %95, label %bb55, label %Flow109, !dbg !363

bb55:                                             ; preds = %Flow108
  store i8 27, ptr %_0, align 1, !dbg !419
  br label %Flow109, !dbg !363

bb56:                                             ; preds = %bb54
  %i69 = icmp ne i32 %arg, 28, !dbg !363
  br i1 %i69, label %bb58, label %Flow106, !dbg !363

Flow106:                                          ; preds = %Flow105, %bb56
  %96 = phi i8 [ %13, %Flow105 ], [ undef, %bb56 ]
  %97 = phi i1 [ false, %Flow105 ], [ true, %bb56 ], !dbg !363
  br i1 %97, label %bb57, label %Flow107, !dbg !363

bb57:                                             ; preds = %Flow106
  store i8 28, ptr %_0, align 1, !dbg !421
  br label %Flow107, !dbg !363

bb58:                                             ; preds = %bb56
  %i70 = icmp ne i32 %arg, 29, !dbg !363
  br i1 %i70, label %bb60, label %Flow104, !dbg !363

Flow104:                                          ; preds = %Flow103, %bb58
  %98 = phi i8 [ %12, %Flow103 ], [ undef, %bb58 ]
  %99 = phi i1 [ false, %Flow103 ], [ true, %bb58 ], !dbg !363
  br i1 %99, label %bb59, label %Flow105, !dbg !363

bb59:                                             ; preds = %Flow104
  store i8 29, ptr %_0, align 1, !dbg !423
  br label %Flow105, !dbg !363

bb60:                                             ; preds = %bb58
  %i71 = icmp ne i32 %arg, 30, !dbg !363
  br i1 %i71, label %bb62, label %Flow102, !dbg !363

Flow102:                                          ; preds = %Flow101, %bb60
  %100 = phi i8 [ %11, %Flow101 ], [ undef, %bb60 ]
  %101 = phi i1 [ false, %Flow101 ], [ true, %bb60 ], !dbg !363
  br i1 %101, label %bb61, label %Flow103, !dbg !363

bb61:                                             ; preds = %Flow102
  store i8 30, ptr %_0, align 1, !dbg !425
  br label %Flow103, !dbg !363

bb62:                                             ; preds = %bb60
  %i72 = icmp ne i32 %arg, 31, !dbg !363
  br i1 %i72, label %bb64, label %Flow100, !dbg !363

Flow100:                                          ; preds = %Flow99, %bb62
  %102 = phi i8 [ %10, %Flow99 ], [ undef, %bb62 ]
  %103 = phi i1 [ false, %Flow99 ], [ true, %bb62 ], !dbg !363
  br i1 %103, label %bb63, label %Flow101, !dbg !363

bb63:                                             ; preds = %Flow100
  store i8 31, ptr %_0, align 1, !dbg !427
  br label %Flow101, !dbg !363

bb64:                                             ; preds = %bb62
  %i73 = icmp ne i32 %arg, 32, !dbg !363
  br i1 %i73, label %bb66, label %Flow98, !dbg !363

Flow98:                                           ; preds = %Flow97, %bb64
  %104 = phi i8 [ %9, %Flow97 ], [ undef, %bb64 ]
  %105 = phi i1 [ false, %Flow97 ], [ true, %bb64 ], !dbg !363
  br i1 %105, label %bb65, label %Flow99, !dbg !363

bb65:                                             ; preds = %Flow98
  store i8 32, ptr %_0, align 1, !dbg !429
  br label %Flow99, !dbg !363

bb66:                                             ; preds = %bb64
  %i74 = icmp ne i32 %arg, 33, !dbg !363
  br i1 %i74, label %bb68, label %Flow96, !dbg !363

Flow96:                                           ; preds = %Flow95, %bb66
  %106 = phi i8 [ %8, %Flow95 ], [ undef, %bb66 ]
  %107 = phi i1 [ false, %Flow95 ], [ true, %bb66 ], !dbg !363
  br i1 %107, label %bb67, label %Flow97, !dbg !363

bb67:                                             ; preds = %Flow96
  store i8 33, ptr %_0, align 1, !dbg !431
  br label %Flow97, !dbg !363

bb68:                                             ; preds = %bb66
  %i75 = icmp ne i32 %arg, 34, !dbg !363
  br i1 %i75, label %bb70, label %Flow94, !dbg !363

Flow94:                                           ; preds = %Flow93, %bb68
  %108 = phi i8 [ %7, %Flow93 ], [ undef, %bb68 ]
  %109 = phi i1 [ false, %Flow93 ], [ true, %bb68 ], !dbg !363
  br i1 %109, label %bb69, label %Flow95, !dbg !363

bb69:                                             ; preds = %Flow94
  store i8 34, ptr %_0, align 1, !dbg !433
  br label %Flow95, !dbg !363

bb70:                                             ; preds = %bb68
  %i76 = icmp ne i32 %arg, 35, !dbg !363
  br i1 %i76, label %bb72, label %Flow92, !dbg !363

Flow92:                                           ; preds = %Flow91, %bb70
  %110 = phi i8 [ %6, %Flow91 ], [ undef, %bb70 ]
  %111 = phi i1 [ false, %Flow91 ], [ true, %bb70 ], !dbg !363
  br i1 %111, label %bb71, label %Flow93, !dbg !363

bb71:                                             ; preds = %Flow92
  store i8 35, ptr %_0, align 1, !dbg !435
  br label %Flow93, !dbg !363

bb72:                                             ; preds = %bb70
  %i77 = icmp ne i32 %arg, 39, !dbg !363
  br i1 %i77, label %bb74, label %Flow90, !dbg !363

Flow90:                                           ; preds = %Flow89, %bb72
  %112 = phi i8 [ %5, %Flow89 ], [ undef, %bb72 ]
  %113 = phi i1 [ false, %Flow89 ], [ true, %bb72 ], !dbg !363
  br i1 %113, label %bb73, label %Flow91, !dbg !363

bb73:                                             ; preds = %Flow90
  store i8 39, ptr %_0, align 1, !dbg !437
  br label %Flow91, !dbg !363

bb74:                                             ; preds = %bb72
  %i78 = icmp ne i32 %arg, 37, !dbg !363
  br i1 %i78, label %bb76, label %Flow88, !dbg !363

Flow88:                                           ; preds = %Flow87, %bb74
  %114 = phi i8 [ %4, %Flow87 ], [ undef, %bb74 ]
  %115 = phi i1 [ false, %Flow87 ], [ true, %bb74 ], !dbg !363
  br i1 %115, label %bb75, label %Flow89, !dbg !363

bb75:                                             ; preds = %Flow88
  store i8 37, ptr %_0, align 1, !dbg !439
  br label %Flow89, !dbg !363

bb76:                                             ; preds = %bb74
  %i79 = icmp ne i32 %arg, 36, !dbg !363
  br i1 %i79, label %bb78, label %Flow86, !dbg !363

Flow86:                                           ; preds = %Flow85, %bb76
  %116 = phi i8 [ %3, %Flow85 ], [ undef, %bb76 ]
  %117 = phi i1 [ false, %Flow85 ], [ true, %bb76 ], !dbg !363
  br i1 %117, label %bb77, label %Flow87, !dbg !363

bb77:                                             ; preds = %Flow86
  store i8 36, ptr %_0, align 1, !dbg !441
  br label %Flow87, !dbg !363

bb78:                                             ; preds = %bb76
  %i80 = icmp ne i32 %arg, 38, !dbg !363
  br i1 %i80, label %bb80, label %Flow84, !dbg !363

Flow84:                                           ; preds = %Flow83, %bb78
  %118 = phi i8 [ %2, %Flow83 ], [ undef, %bb78 ]
  %119 = phi i1 [ false, %Flow83 ], [ true, %bb78 ], !dbg !363
  br i1 %119, label %bb79, label %Flow85, !dbg !363

bb79:                                             ; preds = %Flow84
  store i8 38, ptr %_0, align 1, !dbg !443
  br label %Flow85, !dbg !363

bb80:                                             ; preds = %bb78
  %i81 = icmp ne i32 %arg, 40, !dbg !363
  br i1 %i81, label %bb82, label %Flow, !dbg !363

Flow:                                             ; preds = %bb82, %bb80
  %120 = phi i1 [ false, %bb82 ], [ true, %bb80 ], !dbg !363
  br i1 %120, label %bb81, label %Flow83, !dbg !363

bb81:                                             ; preds = %Flow
  store i8 40, ptr %_0, align 1, !dbg !445
  br label %Flow83, !dbg !363

bb82:                                             ; preds = %bb80
  store i8 41, ptr %_0, align 1, !dbg !363
  br label %Flow, !dbg !363
}

; std::io::error::repr_bitpacked::Repr::data::{{closure}}
; Function Attrs: inlinehint mustprogress nofree norecurse nosync nounwind nonlazybind willreturn memory(none)
define internal fastcc align 8 ptr @"_ZN3std2io5error14repr_bitpacked4Repr4data28_$u7b$$u7b$closure$u7d$$u7d$17hbbe3ba4ce70488f0E"(ptr readnone returned %c) unnamed_addr #5 !dbg !447 {
start:
  ret ptr %c, !dbg !450
}

; std::io::error::Error::is_interrupted
; Function Attrs: inlinehint mustprogress nofree nosync nounwind nonlazybind willreturn
define internal fastcc zeroext i1 @_ZN3std2io5error5Error14is_interrupted17h136e6333ede4d1efE(ptr %self.0.val) unnamed_addr #6 !dbg !451 {
start:
  %kind = alloca i8, align 1
  %_2 = alloca %"std::io::error::ErrorData<&std::io::error::Custom>", align 8
  %_0 = alloca i8, align 1
  %0 = icmp ne ptr %self.0.val, null
  call void @llvm.assume(i1 %0)
; call std::io::error::repr_bitpacked::decode_repr
  call fastcc void @_ZN3std2io5error14repr_bitpacked11decode_repr17hbd3b5c5ccfcf75d4E(ptr noalias align 8 %_2, ptr %self.0.val) #29, !dbg !452
  %i = load i8, ptr %_2, align 8, !dbg !457, !range !458, !noundef !16
  %_4 = zext i8 %i to i64, !dbg !457
  switch i64 %_4, label %bb2 [
    i64 0, label %bb3
    i64 1, label %bb5
    i64 2, label %bb1
    i64 3, label %bb4
  ], !dbg !459

bb2:                                              ; preds = %start
  unreachable, !dbg !457

bb3:                                              ; preds = %start
  %i5 = getelementptr inbounds %"std::io::error::ErrorData<&std::io::error::Custom>::Os", ptr %_2, i32 0, i32 1, !dbg !460
  %code = load i32, ptr %i5, align 4, !dbg !460, !noundef !16
  %i6 = icmp eq i32 %code, 4, !dbg !461
  %i7 = zext i1 %i6 to i8, !dbg !461
  store i8 %i7, ptr %_0, align 1, !dbg !461
  br label %bb6, !dbg !469

bb5:                                              ; preds = %start
  %i8 = getelementptr inbounds %"std::io::error::ErrorData<&std::io::error::Custom>::Simple", ptr %_2, i32 0, i32 1, !dbg !470
  %i9 = load i8, ptr %i8, align 1, !dbg !470, !range !471, !noundef !16
  store i8 %i9, ptr %kind, align 1, !dbg !470
  %__self_tag = zext i8 %i9 to i64, !dbg !472
  %i11 = icmp eq i64 %__self_tag, 35, !dbg !478
  %i12 = zext i1 %i11 to i8, !dbg !478
  store i8 %i12, ptr %_0, align 1, !dbg !478
  br label %bb6, !dbg !481

bb1:                                              ; preds = %start
  %i13 = getelementptr inbounds %"std::io::error::ErrorData<&std::io::error::Custom>::SimpleMessage", ptr %_2, i32 0, i32 1, !dbg !482
  %m = load ptr, ptr %i13, align 8, !dbg !482, !nonnull !16, !align !483, !noundef !16
  %i14 = getelementptr inbounds %"std::io::error::SimpleMessage", ptr %m, i32 0, i32 1, !dbg !484
  %i15 = load i8, ptr %i14, align 8, !dbg !484, !range !471, !noundef !16
  %__self_tag2 = zext i8 %i15 to i64, !dbg !484
  %i16 = icmp eq i64 %__self_tag2, 35, !dbg !488
  %i17 = zext i1 %i16 to i8, !dbg !488
  store i8 %i17, ptr %_0, align 1, !dbg !488
  br label %bb6, !dbg !491

bb4:                                              ; preds = %start
  %i18 = getelementptr inbounds %"std::io::error::ErrorData<&std::io::error::Custom>::Custom", ptr %_2, i32 0, i32 1, !dbg !492
  %c = load ptr, ptr %i18, align 8, !dbg !492, !nonnull !16, !align !483, !noundef !16
  %i19 = getelementptr inbounds %"std::io::error::Custom", ptr %c, i32 0, i32 1, !dbg !493
  %i20 = load i8, ptr %i19, align 8, !dbg !493, !range !471, !noundef !16
  %__self_tag4 = zext i8 %i20 to i64, !dbg !493
  %i21 = icmp eq i64 %__self_tag4, 35, !dbg !497
  %i22 = zext i1 %i21 to i8, !dbg !497
  store i8 %i22, ptr %_0, align 1, !dbg !497
  br label %bb6, !dbg !500

bb6:                                              ; preds = %bb4, %bb1, %bb5, %bb3
  %i23 = phi i1 [ %i21, %bb4 ], [ %i16, %bb1 ], [ %i11, %bb5 ], [ %i6, %bb3 ], !dbg !501
  ret i1 %i23, !dbg !501
}

; std::rt::lang_start
; Function Attrs: nounwind nonlazybind
define hidden i64 @_ZN3std2rt10lang_start17hc1c4709ae16d8fc9E(ptr %main, i64 %argc, ptr %argv, i8 %sigpipe) unnamed_addr #3 !dbg !502 {
start:
  %_8 = alloca ptr, align 8
  %_5 = alloca i64, align 8
  store ptr %main, ptr %_8, align 8, !dbg !505
; call std::rt::lang_start_internal
  %i = call i64 @_ZN3std2rt19lang_start_internal17h6939038e2873596bE(ptr align 1 %_8, ptr align 8 @vtable.1, i64 %argc, ptr %argv, i8 %sigpipe) #29, !dbg !506
  store i64 %i, ptr %_5, align 8, !dbg !506
  ret i64 %i, !dbg !507
}

; std::rt::lang_start::{{closure}}
; Function Attrs: inlinehint nounwind nonlazybind
define internal i32 @"_ZN3std2rt10lang_start28_$u7b$$u7b$closure$u7d$$u7d$17hfc0ab7cf0ac3e043E"(ptr nocapture readonly align 8 %_1) unnamed_addr #1 !dbg !508 {
start:
  %self = alloca i8, align 1
  %_4 = load ptr, ptr %_1, align 8, !dbg !510, !nonnull !16, !noundef !16
; call std::sys_common::backtrace::__rust_begin_short_backtrace
  call fastcc void @_ZN3std10sys_common9backtrace28__rust_begin_short_backtrace17h300960070d1ba2daE(ptr %_4) #29, !dbg !511
; call <() as std::process::Termination>::report
  %i = call fastcc i8 @"_ZN54_$LT$$LP$$RP$$u20$as$u20$std..process..Termination$GT$6report17h0a335c406dd619d6E"() #29, !dbg !511
  store i8 %i, ptr %self, align 1, !dbg !511
  %_0 = zext i8 %i to i32, !dbg !512
  ret i32 %_0, !dbg !526
}

; std::thread::JoinInner<T>::join
; Function Attrs: nounwind nonlazybind
define internal fastcc { ptr, ptr } @"_ZN3std6thread18JoinInner$LT$T$GT$4join17he9517e18ec3de4b1E"(ptr align 8 %self) unnamed_addr #3 personality ptr @rust_eh_personality !dbg !527 {
start:
  %src = alloca %"core::option::Option<core::result::Result<(), alloc::boxed::Box<dyn core::any::Any + core::marker::Send>>>", align 8
  %self1 = alloca ptr, align 8
  %result = alloca %"core::option::Option<core::result::Result<(), alloc::boxed::Box<dyn core::any::Any + core::marker::Send>>>", align 8
  %i = getelementptr inbounds %"std::thread::JoinInner<'_, ()>", ptr %self, i32 0, i32 2, !dbg !529
  %_3 = load i64, ptr %i, align 8, !dbg !529, !noundef !16
; call std::sys::unix::thread::Thread::join
  call void @_ZN3std3sys4unix6thread6Thread4join17h39b09a9c8f68b464E(i64 %_3) #29, !dbg !529
  %this = getelementptr inbounds %"std::thread::JoinInner<'_, ()>", ptr %self, i32 0, i32 1, !dbg !530
; call alloc::sync::Arc<T,A>::is_unique
  %_10 = call fastcc zeroext i1 @"_ZN5alloc4sync16Arc$LT$T$C$A$GT$9is_unique17h9ff35617fe11d8aaE"(ptr align 8 %this) #29, !dbg !531
  %_10.inv = xor i1 %_10, true
  br i1 %_10.inv, label %bb10, label %Flow, !dbg !531

bb10:                                             ; preds = %start
  store ptr null, ptr %self1, align 8, !dbg !539
  br label %Flow, !dbg !540

Flow:                                             ; preds = %bb10, %start
  %0 = phi i1 [ false, %bb10 ], [ true, %start ], !dbg !531
  br i1 %0, label %bb9, label %bb11, !dbg !531

bb9:                                              ; preds = %Flow
  %self2 = load ptr, ptr %this, align 8, !dbg !541, !nonnull !16, !noundef !16
  %_11 = getelementptr inbounds %"alloc::sync::ArcInner<std::thread::Packet<'_, ()>>", ptr %self2, i32 0, i32 2, !dbg !545
  store ptr %_11, ptr %self1, align 8, !dbg !547
  br label %bb11, !dbg !540

bb11:                                             ; preds = %bb9, %Flow
  %val = phi ptr [ null, %Flow ], [ %_11, %bb9 ], !dbg !548
  %i6 = ptrtoint ptr %val to i64, !dbg !548
  %i7 = icmp eq i64 %i6, 0, !dbg !548
  br i1 %i7, label %bb12, label %bb14, !dbg !552

bb12:                                             ; preds = %bb11
; call core::panicking::panic
  call void @_ZN4core9panicking5panic17hb837a5ebbbe5b188E(ptr align 1 @alloc_5f55955de67e57c79064b537689facea, i64 43, ptr align 8 @alloc_210632c49b2fd4ef0dc8e7c88d1b4c5b) #28, !dbg !553
  unreachable

bb14:                                             ; preds = %bb11
  store i64 0, ptr %src, align 8, !dbg !554
  %i8 = getelementptr inbounds %"std::thread::Packet<'_, ()>", ptr %val, i32 0, i32 1, !dbg !558
  call void @llvm.memcpy.p0.p0.i64(ptr align 8 %result, ptr align 8 %i8, i64 24, i1 false), !dbg !558
  call void @llvm.memcpy.p0.p0.i64(ptr align 8 %i8, ptr align 8 %src, i64 24, i1 false), !dbg !569
  %_19 = load i64, ptr %result, align 8, !dbg !575, !range !109, !noundef !16
  %i10 = icmp eq i64 %_19, 0, !dbg !579
  br i1 %i10, label %bb15, label %bb16, !dbg !579

bb15:                                             ; preds = %bb14
; call core::panicking::panic
  call void @_ZN4core9panicking5panic17hb837a5ebbbe5b188E(ptr align 1 @alloc_5f55955de67e57c79064b537689facea, i64 43, ptr align 8 @alloc_75b83b2c75f3b36b94a7518a66ad8875) #28, !dbg !580
  unreachable

bb16:                                             ; preds = %bb14
  %i11 = getelementptr inbounds %"core::option::Option<core::result::Result<(), alloc::boxed::Box<dyn core::any::Any + core::marker::Send>>>::Some", ptr %result, i32 0, i32 1, !dbg !581
  %val.0 = load ptr, ptr %i11, align 8, !dbg !581, !align !582, !noundef !16
  %i12 = getelementptr inbounds { ptr, ptr }, ptr %i11, i32 0, i32 1, !dbg !581
  %val.1 = load ptr, ptr %i12, align 8, !dbg !581
; call core::ptr::drop_in_place<std::thread::Thread>
  call fastcc void @"_ZN4core3ptr40drop_in_place$LT$std..thread..Thread$GT$17h1a2e51b24819ff73E"(ptr align 8 %self) #29, !dbg !583
; call core::ptr::drop_in_place<alloc::sync::Arc<std::thread::Packet<()>>>
  call fastcc void @"_ZN4core3ptr80drop_in_place$LT$alloc..sync..Arc$LT$std..thread..Packet$LT$$LP$$RP$$GT$$GT$$GT$17h28be71a15cc83f57E"(ptr align 8 %this) #29, !dbg !583
  %i14 = insertvalue { ptr, ptr } poison, ptr %val.0, 0, !dbg !584
  %i15 = insertvalue { ptr, ptr } %i14, ptr %val.1, 1, !dbg !584
  ret { ptr, ptr } %i15, !dbg !584
}

; std::thread::JoinHandle<T>::join
; Function Attrs: nounwind nonlazybind
define internal fastcc { ptr, ptr } @"_ZN3std6thread19JoinHandle$LT$T$GT$4join17h524e9042f39d22f2E"(ptr nocapture readonly align 8 %self) unnamed_addr #3 !dbg !585 {
start:
  %_2 = alloca %"std::thread::JoinInner<'_, ()>", align 8
  call void @llvm.memcpy.p0.p0.i64(ptr align 8 %_2, ptr align 8 %self, i64 24, i1 false), !dbg !587
; call std::thread::JoinInner<T>::join
  %i = call fastcc { ptr, ptr } @"_ZN3std6thread18JoinInner$LT$T$GT$4join17he9517e18ec3de4b1E"(ptr align 8 %_2) #29, !dbg !587
  ret { ptr, ptr } %i, !dbg !588
}

; std::thread::spawn
; Function Attrs: nounwind nonlazybind
define internal fastcc void @_ZN3std6thread5spawn17h90f30b509e00222cE(ptr noalias nocapture writeonly align 8 %_0) unnamed_addr #3 personality ptr @rust_eh_personality !dbg !589 {
start:
  %e.i = alloca ptr, align 8
  %_8 = alloca { i64, i64 }, align 8
  %_7 = alloca %"core::option::Option<alloc::string::String>", align 8
  %self = alloca %"std::thread::Builder", align 8
  %_2 = alloca %"core::result::Result<std::thread::JoinHandle<()>, std::io::error::Error>", align 8
  store i64 -9223372036854775808, ptr %_7, align 8, !dbg !590
  store i64 0, ptr %_8, align 8, !dbg !595
  %i = getelementptr inbounds %"std::thread::Builder", ptr %self, i32 0, i32 1, !dbg !596
  call void @llvm.memcpy.p0.p0.i64(ptr align 8 %i, ptr align 8 %_7, i64 24, i1 false), !dbg !596
  store i64 0, ptr %self, align 8, !dbg !596
  %i4 = getelementptr inbounds { i64, i64 }, ptr %self, i32 0, i32 1, !dbg !596
  store i64 undef, ptr %i4, align 8, !dbg !596
; call std::thread::Builder::spawn_unchecked
  call fastcc void @_ZN3std6thread7Builder15spawn_unchecked17he8d68ab8ea134681E(ptr noalias align 8 %_2, ptr align 8 %self) #29, !dbg !597
  call void @llvm.lifetime.start.p0(i64 8, ptr %e.i), !dbg !602
  %i5 = load ptr, ptr %_2, align 8, !dbg !602, !noundef !16
  %i6 = ptrtoint ptr %i5 to i64, !dbg !602
  %i7 = icmp eq i64 %i6, 0, !dbg !602
  %_3.i = select i1 %i7, i64 1, i64 0, !dbg !602
  %i8 = icmp eq i64 %_3.i, 0, !dbg !605
  br i1 %i8, label %bb3.i, label %codeRepl.i, !dbg !605

bb3.i:                                            ; preds = %start
  call void @llvm.memcpy.p0.p0.i64(ptr align 8 %_0, ptr align 8 %_2, i64 24, i1 false), !dbg !606
  call void @llvm.lifetime.end.p0(i64 8, ptr %e.i), !dbg !607
  ret void, !dbg !608

codeRepl.i:                                       ; preds = %start
  %0 = getelementptr i8, ptr %_2, i64 8, !dbg !609
  %_2.val = load ptr, ptr %0, align 8, !dbg !609, !nonnull !16, !noundef !16
; call core::result::Result<T,E>::expect.9.bb1
  call fastcc void @"_ZN4core6result19Result$LT$T$C$E$GT$6expect17h5e189d431b3b48bcE.9.bb1"(ptr %_2.val, ptr %e.i, ptr @alloc_e3605bf48dd8479a638909176cc37fce, i64 22, ptr @alloc_1f8c62d57f163807c7029893ad26ce72), !dbg !609
  unreachable
}

; std::thread::spawn
; Function Attrs: nounwind nonlazybind
define internal fastcc void @_ZN3std6thread5spawn17ha27e21bcd832787bE(ptr noalias nocapture writeonly align 8 %_0) unnamed_addr #3 personality ptr @rust_eh_personality !dbg !610 {
start:
  %e.i = alloca ptr, align 8
  %_8 = alloca { i64, i64 }, align 8
  %_7 = alloca %"core::option::Option<alloc::string::String>", align 8
  %self = alloca %"std::thread::Builder", align 8
  %_2 = alloca %"core::result::Result<std::thread::JoinHandle<()>, std::io::error::Error>", align 8
  store i64 -9223372036854775808, ptr %_7, align 8, !dbg !611
  store i64 0, ptr %_8, align 8, !dbg !615
  %i = getelementptr inbounds %"std::thread::Builder", ptr %self, i32 0, i32 1, !dbg !616
  call void @llvm.memcpy.p0.p0.i64(ptr align 8 %i, ptr align 8 %_7, i64 24, i1 false), !dbg !616
  store i64 0, ptr %self, align 8, !dbg !616
  %i4 = getelementptr inbounds { i64, i64 }, ptr %self, i32 0, i32 1, !dbg !616
  store i64 undef, ptr %i4, align 8, !dbg !616
; call std::thread::Builder::spawn_unchecked
  call fastcc void @_ZN3std6thread7Builder15spawn_unchecked17hceca2ace223f4951E(ptr noalias align 8 %_2, ptr align 8 %self) #29, !dbg !617
  call void @llvm.lifetime.start.p0(i64 8, ptr %e.i), !dbg !622
  %i5 = load ptr, ptr %_2, align 8, !dbg !622, !noundef !16
  %i6 = ptrtoint ptr %i5 to i64, !dbg !622
  %i7 = icmp eq i64 %i6, 0, !dbg !622
  %_3.i = select i1 %i7, i64 1, i64 0, !dbg !622
  %i8 = icmp eq i64 %_3.i, 0, !dbg !624
  br i1 %i8, label %bb3.i, label %codeRepl.i, !dbg !624

bb3.i:                                            ; preds = %start
  call void @llvm.memcpy.p0.p0.i64(ptr align 8 %_0, ptr align 8 %_2, i64 24, i1 false), !dbg !625
  call void @llvm.lifetime.end.p0(i64 8, ptr %e.i), !dbg !626
  ret void, !dbg !627

codeRepl.i:                                       ; preds = %start
  %0 = getelementptr i8, ptr %_2, i64 8, !dbg !628
  %_2.val = load ptr, ptr %0, align 8, !dbg !628, !nonnull !16, !noundef !16
; call core::result::Result<T,E>::expect.9.bb1
  call fastcc void @"_ZN4core6result19Result$LT$T$C$E$GT$6expect17h5e189d431b3b48bcE.9.bb1"(ptr %_2.val, ptr %e.i, ptr @alloc_e3605bf48dd8479a638909176cc37fce, i64 22, ptr @alloc_1f8c62d57f163807c7029893ad26ce72), !dbg !628
  unreachable
}

; std::thread::Builder::spawn_unchecked
; Function Attrs: nounwind nonlazybind
define internal fastcc void @_ZN3std6thread7Builder15spawn_unchecked17hceca2ace223f4951E(ptr noalias nocapture writeonly align 8 %_0, ptr nocapture readonly align 8 %self) unnamed_addr #3 !dbg !629 {
start:
  %_12 = alloca ptr, align 8
  %residual = alloca ptr, align 8
  %self1 = alloca %"core::result::Result<std::thread::JoinInner<'_, ()>, std::io::error::Error>", align 8
  %_4 = alloca %"core::ops::control_flow::ControlFlow<core::result::Result<core::convert::Infallible, std::io::error::Error>, std::thread::JoinInner<'_, ()>>", align 8
; call std::thread::Builder::spawn_unchecked_
  call fastcc void @_ZN3std6thread7Builder16spawn_unchecked_17h26a768cbb0d1cf2cE(ptr noalias align 8 %self1, ptr align 8 %self, ptr null) #29, !dbg !630
  %i = load ptr, ptr %self1, align 8, !dbg !632, !noundef !16
  %i3 = ptrtoint ptr %i to i64, !dbg !632
  %i4 = icmp eq i64 %i3, 0, !dbg !632
  br i1 %i4, label %bb7, label %Flow17, !dbg !637

Flow17:                                           ; preds = %bb7, %start
  %0 = phi i1 [ false, %bb7 ], [ true, %start ], !dbg !637
  br i1 %0, label %bb8, label %bb6, !dbg !637

bb8:                                              ; preds = %Flow17
  call void @llvm.memcpy.p0.p0.i64(ptr align 8 %_4, ptr align 8 %self1, i64 24, i1 false), !dbg !638
  %i9.pre = load ptr, ptr %_4, align 8, !dbg !636
  br label %bb6, !dbg !639

bb7:                                              ; preds = %start
  %i6 = getelementptr inbounds %"core::result::Result<std::thread::JoinInner<'_, ()>, std::io::error::Error>::Err", ptr %self1, i32 0, i32 1, !dbg !640
  %e = load ptr, ptr %i6, align 8, !dbg !640, !nonnull !16, !noundef !16
  store ptr %e, ptr %_12, align 8, !dbg !641
  %i8 = getelementptr inbounds %"core::ops::control_flow::ControlFlow<core::result::Result<core::convert::Infallible, std::io::error::Error>, std::thread::JoinInner<'_, ()>>::Break", ptr %_4, i32 0, i32 1, !dbg !643
  store ptr %e, ptr %i8, align 8, !dbg !643
  store ptr null, ptr %_4, align 8, !dbg !643
  br label %Flow17, !dbg !644

bb6:                                              ; preds = %bb8, %Flow17
  %i9 = phi ptr [ null, %Flow17 ], [ %i9.pre, %bb8 ], !dbg !636
  %i10 = ptrtoint ptr %i9 to i64, !dbg !636
  %i11 = icmp eq i64 %i10, 0, !dbg !636
  br i1 %i11, label %bb4, label %Flow, !dbg !636

Flow:                                             ; preds = %bb4, %bb6
  %1 = phi i1 [ false, %bb4 ], [ true, %bb6 ], !dbg !636
  br i1 %1, label %bb2, label %bb5, !dbg !636

bb2:                                              ; preds = %Flow
  call void @llvm.memcpy.p0.p0.i64(ptr align 8 %_0, ptr align 8 %_4, i64 24, i1 false), !dbg !636
  br label %bb5, !dbg !645

bb4:                                              ; preds = %bb6
  %i13 = getelementptr inbounds %"core::ops::control_flow::ControlFlow<core::result::Result<core::convert::Infallible, std::io::error::Error>, std::thread::JoinInner<'_, ()>>::Break", ptr %_4, i32 0, i32 1, !dbg !646
  %i14 = load ptr, ptr %i13, align 8, !dbg !646, !nonnull !16, !noundef !16
  store ptr %i14, ptr %residual, align 8, !dbg !646
  %i15 = getelementptr inbounds %"core::result::Result<std::thread::JoinHandle<()>, std::io::error::Error>::Err", ptr %_0, i32 0, i32 1, !dbg !647
  store ptr %i14, ptr %i15, align 8, !dbg !647
  store ptr null, ptr %_0, align 8, !dbg !647
  br label %Flow, !dbg !645

bb5:                                              ; preds = %bb2, %Flow
  ret void, !dbg !655
}

; std::thread::Builder::spawn_unchecked
; Function Attrs: nounwind nonlazybind
define internal fastcc void @_ZN3std6thread7Builder15spawn_unchecked17he8d68ab8ea134681E(ptr noalias nocapture writeonly align 8 %_0, ptr nocapture readonly align 8 %self) unnamed_addr #3 !dbg !656 {
start:
  %_12 = alloca ptr, align 8
  %residual = alloca ptr, align 8
  %self1 = alloca %"core::result::Result<std::thread::JoinInner<'_, ()>, std::io::error::Error>", align 8
  %_4 = alloca %"core::ops::control_flow::ControlFlow<core::result::Result<core::convert::Infallible, std::io::error::Error>, std::thread::JoinInner<'_, ()>>", align 8
; call std::thread::Builder::spawn_unchecked_
  call fastcc void @_ZN3std6thread7Builder16spawn_unchecked_17he556f2f00c127680E(ptr noalias align 8 %self1, ptr align 8 %self, ptr null) #29, !dbg !657
  %i = load ptr, ptr %self1, align 8, !dbg !659, !noundef !16
  %i3 = ptrtoint ptr %i to i64, !dbg !659
  %i4 = icmp eq i64 %i3, 0, !dbg !659
  br i1 %i4, label %bb7, label %Flow17, !dbg !663

Flow17:                                           ; preds = %bb7, %start
  %0 = phi i1 [ false, %bb7 ], [ true, %start ], !dbg !663
  br i1 %0, label %bb8, label %bb6, !dbg !663

bb8:                                              ; preds = %Flow17
  call void @llvm.memcpy.p0.p0.i64(ptr align 8 %_4, ptr align 8 %self1, i64 24, i1 false), !dbg !664
  %i9.pre = load ptr, ptr %_4, align 8, !dbg !662
  br label %bb6, !dbg !665

bb7:                                              ; preds = %start
  %i6 = getelementptr inbounds %"core::result::Result<std::thread::JoinInner<'_, ()>, std::io::error::Error>::Err", ptr %self1, i32 0, i32 1, !dbg !666
  %e = load ptr, ptr %i6, align 8, !dbg !666, !nonnull !16, !noundef !16
  store ptr %e, ptr %_12, align 8, !dbg !667
  %i8 = getelementptr inbounds %"core::ops::control_flow::ControlFlow<core::result::Result<core::convert::Infallible, std::io::error::Error>, std::thread::JoinInner<'_, ()>>::Break", ptr %_4, i32 0, i32 1, !dbg !669
  store ptr %e, ptr %i8, align 8, !dbg !669
  store ptr null, ptr %_4, align 8, !dbg !669
  br label %Flow17, !dbg !670

bb6:                                              ; preds = %bb8, %Flow17
  %i9 = phi ptr [ null, %Flow17 ], [ %i9.pre, %bb8 ], !dbg !662
  %i10 = ptrtoint ptr %i9 to i64, !dbg !662
  %i11 = icmp eq i64 %i10, 0, !dbg !662
  br i1 %i11, label %bb4, label %Flow, !dbg !662

Flow:                                             ; preds = %bb4, %bb6
  %1 = phi i1 [ false, %bb4 ], [ true, %bb6 ], !dbg !662
  br i1 %1, label %bb2, label %bb5, !dbg !662

bb2:                                              ; preds = %Flow
  call void @llvm.memcpy.p0.p0.i64(ptr align 8 %_0, ptr align 8 %_4, i64 24, i1 false), !dbg !662
  br label %bb5, !dbg !671

bb4:                                              ; preds = %bb6
  %i13 = getelementptr inbounds %"core::ops::control_flow::ControlFlow<core::result::Result<core::convert::Infallible, std::io::error::Error>, std::thread::JoinInner<'_, ()>>::Break", ptr %_4, i32 0, i32 1, !dbg !672
  %i14 = load ptr, ptr %i13, align 8, !dbg !672, !nonnull !16, !noundef !16
  store ptr %i14, ptr %residual, align 8, !dbg !672
  %i15 = getelementptr inbounds %"core::result::Result<std::thread::JoinHandle<()>, std::io::error::Error>::Err", ptr %_0, i32 0, i32 1, !dbg !673
  store ptr %i14, ptr %i15, align 8, !dbg !673
  store ptr null, ptr %_0, align 8, !dbg !673
  br label %Flow, !dbg !671

bb5:                                              ; preds = %bb2, %Flow
  ret void, !dbg !680
}

; std::thread::Builder::spawn_unchecked_
; Function Attrs: nounwind nonlazybind
define internal fastcc void @_ZN3std6thread7Builder16spawn_unchecked_17h26a768cbb0d1cf2cE(ptr noalias nocapture writeonly align 8 %_0, ptr nocapture readonly align 8 %self, ptr %arg) unnamed_addr #3 personality ptr @rust_eh_personality !dbg !681 {
start:
  %e.i = alloca %"alloc::ffi::c_str::NulError", align 8
  %self.i = alloca ptr, align 8
  %_4.i15 = alloca { ptr, i64 }, align 8
  %layout.i = alloca { i64, i64 }, align 8
  %_100 = alloca ptr, align 8
  %_94 = alloca { ptr, ptr }, align 8
  %_93 = alloca { ptr, ptr }, align 8
  %leaked = alloca ptr, align 8
  %_86 = alloca ptr, align 8
  %b = alloca ptr, align 8
  %_59 = alloca ptr, align 8
  %_57 = alloca %"core::result::Result<alloc::ffi::c_str::CString, alloc::ffi::c_str::NulError>", align 8
  %x = alloca %"alloc::string::String", align 8
  %_51 = alloca i8, align 1
  %_50 = alloca i8, align 1
  %_49 = alloca i8, align 1
  %_48 = alloca i8, align 1
  %_47 = alloca i8, align 1
  %_46 = alloca i8, align 1
  %_45 = alloca i8, align 1
  %residual = alloca ptr, align 8
  %self4 = alloca %"core::result::Result<std::sys::unix::thread::Thread, std::io::error::Error>", align 8
  %_37 = alloca %"core::ops::control_flow::ControlFlow<core::result::Result<core::convert::Infallible, std::io::error::Error>, std::sys::unix::thread::Thread>", align 8
  %_36 = alloca %"std::thread::JoinInner<'_, ()>", align 8
  %main3 = alloca { ptr, ptr }, align 8
  %_33 = alloca %"{closure@std::thread::Builder::spawn_unchecked_<'_, '_, {closure@data/RUSTSEC_2020_0159.rs:31:28: 31:30}, ()>::{closure#1}}", align 8
  %main = alloca %"{closure@std::thread::Builder::spawn_unchecked_<'_, '_, {closure@data/RUSTSEC_2020_0159.rs:31:28: 31:30}, ()>::{closure#1}}", align 8
  %_21 = alloca ptr, align 8
  %_20 = alloca ptr, align 8
  %output_capture = alloca ptr, align 8
  %their_packet = alloca ptr, align 8
  %value = alloca %"core::option::Option<core::result::Result<(), alloc::boxed::Box<dyn core::any::Any + core::marker::Send>>>", align 8
  %_13 = alloca %"std::thread::Packet<'_, ()>", align 8
  %my_packet = alloca ptr, align 8
  %their_thread = alloca ptr, align 8
  %self2 = alloca %"core::option::Option<alloc::string::String>", align 8
  %_8 = alloca { ptr, i64 }, align 8
  %my_thread = alloca ptr, align 8
  %stack_size1 = alloca i64, align 8
  %stack_size = alloca { i64, i64 }, align 8
  %name = alloca %"core::option::Option<alloc::string::String>", align 8
  %scope_data = alloca ptr, align 8
  store ptr %arg, ptr %scope_data, align 8
  store i8 1, ptr %_51, align 1, !dbg !682
  store i8 1, ptr %_50, align 1, !dbg !682
  store i8 1, ptr %_49, align 1, !dbg !683
  %i = getelementptr inbounds %"std::thread::Builder", ptr %self, i32 0, i32 1, !dbg !683
  call void @llvm.memcpy.p0.p0.i64(ptr align 8 %name, ptr align 8 %i, i64 24, i1 false), !dbg !683
  %i27 = load i64, ptr %self, align 8, !dbg !684, !range !109, !noundef !16
  %i28 = getelementptr inbounds { i64, i64 }, ptr %self, i32 0, i32 1, !dbg !684
  %i29 = load i64, ptr %i28, align 8, !dbg !684
  store i64 %i27, ptr %stack_size, align 8, !dbg !684
  %i30 = getelementptr inbounds { i64, i64 }, ptr %stack_size, i32 0, i32 1, !dbg !684
  store i64 %i29, ptr %i30, align 8, !dbg !684
  %i31 = icmp ne i64 %i27, 0, !dbg !685
  br i1 %i31, label %bb37, label %Flow112, !dbg !685

Flow112:                                          ; preds = %bb37, %start
  %0 = phi i1 [ false, %bb37 ], [ true, %start ], !dbg !685
  br i1 %0, label %bb36, label %bb38, !dbg !685

bb36:                                             ; preds = %Flow112
; call core::ops::function::FnOnce::call_once
  %i32 = call fastcc i64 @_ZN4core3ops8function6FnOnce9call_once17hf63b4fb42db3826aE() #29, !dbg !690
  store i64 %i32, ptr %stack_size1, align 8, !dbg !690
  br label %bb38, !dbg !690

bb37:                                             ; preds = %start
  store i64 %i29, ptr %stack_size1, align 8, !dbg !691
  br label %Flow112, !dbg !693

bb38:                                             ; preds = %bb36, %Flow112
  %_39 = phi i64 [ %i29, %Flow112 ], [ %i32, %bb36 ]
  store i8 0, ptr %_49, align 1, !dbg !694
  call void @llvm.memcpy.p0.p0.i64(ptr align 8 %self2, ptr align 8 %name, i64 24, i1 false), !dbg !694
  %i34 = load i64, ptr %self2, align 8, !dbg !696, !range !700, !noundef !16
  %i35 = icmp eq i64 %i34, -9223372036854775808, !dbg !696
  br i1 %i35, label %bb39, label %bb40, !dbg !701

bb39:                                             ; preds = %bb38
  store ptr null, ptr %_8, align 8, !dbg !702
  br label %bb41, !dbg !702

bb40:                                             ; preds = %bb38
  call void @llvm.memcpy.p0.p0.i64(ptr align 8 %x, ptr align 8 %name, i64 24, i1 false), !dbg !703
; call <T as alloc::ffi::c_str::CString::new::SpecNewImpl>::spec_new_impl
  call fastcc void @"_ZN66_$LT$T$u20$as$u20$alloc..ffi..c_str..CString..new..SpecNewImpl$GT$13spec_new_impl17h7fd65f06510761cfE"(ptr noalias align 8 %_57, ptr align 8 %x) #29, !dbg !704
  call void @llvm.lifetime.start.p0(i64 32, ptr %e.i), !dbg !716
  %i36 = load i64, ptr %_57, align 8, !dbg !716, !range !700, !noundef !16
  %i37 = icmp eq i64 %i36, -9223372036854775808, !dbg !716
  br i1 %i37, label %bb3.i18, label %codeRepl.i17, !dbg !719

bb41:                                             ; preds = %bb3.i18, %bb39
  %i40 = phi i64 [ %t.1.i, %bb3.i18 ], [ undef, %bb39 ], !dbg !720
  %i38 = phi ptr [ %t.0.i, %bb3.i18 ], [ null, %bb39 ], !dbg !720
; call std::thread::Thread::new
  %i41 = call ptr @_ZN3std6thread6Thread3new17h91c2acbc87f07c63E(ptr align 1 %i38, i64 %i40) #29, !dbg !720
  store ptr %i41, ptr %my_thread, align 8, !dbg !720
; call <alloc::sync::Arc<T,A> as core::clone::Clone>::clone
  %_61 = call fastcc ptr @"_ZN68_$LT$alloc..sync..Arc$LT$T$C$A$GT$$u20$as$u20$core..clone..Clone$GT$5clone17h3e63b87f3b7d7701E"(ptr align 8 %my_thread) #29, !dbg !721
  store ptr %_61, ptr %_59, align 8, !dbg !721
  store ptr %_61, ptr %their_thread, align 8, !dbg !733
  store i8 1, ptr %_48, align 1, !dbg !734
  store i8 0, ptr %_50, align 1, !dbg !735
  store i64 0, ptr %value, align 8, !dbg !737
  %i43 = getelementptr inbounds %"std::thread::Packet<'_, ()>", ptr %_13, i32 0, i32 1, !dbg !738
  call void @llvm.memcpy.p0.p0.i64(ptr align 8 %i43, ptr align 8 %value, i64 24, i1 false), !dbg !739
  store ptr %arg, ptr %_13, align 8, !dbg !738
; call alloc::sync::Arc<T>::new
  %i44 = call fastcc ptr @"_ZN5alloc4sync12Arc$LT$T$GT$3new17h41008552d3569eecE"(ptr align 8 %_13) #29, !dbg !746
  store ptr %i44, ptr %my_packet, align 8, !dbg !746
; call <alloc::sync::Arc<T,A> as core::clone::Clone>::clone
  %i45 = call fastcc ptr @"_ZN68_$LT$alloc..sync..Arc$LT$T$C$A$GT$$u20$as$u20$core..clone..Clone$GT$5clone17h3e63b87f3b7d7701E"(ptr align 8 %my_packet) #29, !dbg !747
  store ptr %i45, ptr %their_packet, align 8, !dbg !747
  store i8 1, ptr %_47, align 1, !dbg !749
; call std::io::stdio::set_output_capture
  %i46 = call ptr @_ZN3std2io5stdio18set_output_capture17hbfdad0a1763c8421E(ptr null) #29, !dbg !750
  store ptr %i46, ptr %output_capture, align 8, !dbg !750
  store i8 1, ptr %_46, align 1, !dbg !752
  %i48 = ptrtoint ptr %i46 to i64, !dbg !753
  %i49 = icmp ne i64 %i48, 0, !dbg !753
  br i1 %i49, label %bb47, label %Flow111, !dbg !759

bb3.i18:                                          ; preds = %bb40
  %i50 = getelementptr inbounds %"core::result::Result<alloc::ffi::c_str::CString, alloc::ffi::c_str::NulError>::Ok", ptr %_57, i32 0, i32 1, !dbg !760
  %t.0.i = load ptr, ptr %i50, align 8, !dbg !760, !nonnull !16, !align !582, !noundef !16
  %i51 = getelementptr inbounds { ptr, i64 }, ptr %i50, i32 0, i32 1, !dbg !760
  %t.1.i = load i64, ptr %i51, align 8, !dbg !760, !noundef !16
  call void @llvm.lifetime.end.p0(i64 32, ptr %e.i), !dbg !761
  store ptr %t.0.i, ptr %_8, align 8, !dbg !762
  %i52 = getelementptr inbounds { ptr, i64 }, ptr %_8, i32 0, i32 1, !dbg !762
  store i64 %t.1.i, ptr %i52, align 8, !dbg !762
  br label %bb41, !dbg !763

codeRepl.i17:                                     ; preds = %bb40
; call core::result::Result<T,E>::expect.8.bb1
  call fastcc void @"_ZN4core6result19Result$LT$T$C$E$GT$6expect17h8ba7d1c49a99f1cfE.8.bb1"(ptr %e.i, ptr %_57, ptr @alloc_498705839b3ae85466bce6e7ebfe4996, i64 47, ptr @alloc_10ce3643ab05b89124ccab86e25db141), !dbg !764
  unreachable

Flow111:                                          ; preds = %bb47, %bb41
  %1 = phi ptr [ %_65, %bb47 ], [ undef, %bb41 ]
  %2 = phi i1 [ false, %bb47 ], [ true, %bb41 ], !dbg !759
  br i1 %2, label %bb46, label %bb45, !dbg !759

bb46:                                             ; preds = %Flow111
  store ptr null, ptr %_21, align 8, !dbg !765
  br label %bb45, !dbg !765

bb47:                                             ; preds = %bb41
; call <alloc::sync::Arc<T,A> as core::clone::Clone>::clone
  %_65 = call fastcc ptr @"_ZN68_$LT$alloc..sync..Arc$LT$T$C$A$GT$$u20$as$u20$core..clone..Clone$GT$5clone17h3e63b87f3b7d7701E"(ptr align 8 %output_capture) #29, !dbg !766
  store ptr %_65, ptr %_21, align 8, !dbg !768
  br label %Flow111, !dbg !769

bb45:                                             ; preds = %bb46, %Flow111
  %i53 = phi ptr [ %1, %Flow111 ], [ null, %bb46 ], !dbg !770
; call std::io::stdio::set_output_capture
  %i54 = call ptr @_ZN3std2io5stdio18set_output_capture17hbfdad0a1763c8421E(ptr %i53) #29, !dbg !770
  store ptr %i54, ptr %_20, align 8, !dbg !770
  %i56 = ptrtoint ptr %i54 to i64, !dbg !771
  %i57 = icmp ne i64 %i56, 0, !dbg !771
  br i1 %i57, label %codeRepl.i21, label %bb6, !dbg !771

codeRepl.i21:                                     ; preds = %bb45
; call core::ptr::drop_in_place<core::option::Option<alloc::sync::Arc<std::sync::mutex::Mutex<alloc::vec::Vec<u8>>>>>.19.bb2
  call fastcc void @"_ZN4core3ptr129drop_in_place$LT$core..option..Option$LT$alloc..sync..Arc$LT$std..sync..mutex..Mutex$LT$alloc..vec..Vec$LT$u8$GT$$GT$$GT$$GT$$GT$17h05150d2e11303af0E.19.bb2"(ptr %_20), !dbg !771
  br label %bb6

bb6:                                              ; preds = %codeRepl.i21, %bb45
  store i8 0, ptr %_51, align 1, !dbg !774
  store i8 0, ptr %_48, align 1, !dbg !775
  store i8 0, ptr %_46, align 1, !dbg !775
  store i8 0, ptr %_47, align 1, !dbg !775
  store i8 1, ptr %_45, align 1, !dbg !775
  store ptr %_61, ptr %main, align 8, !dbg !775
  %i59 = load ptr, ptr %output_capture, align 8, !dbg !775, !noundef !16
  %i60 = getelementptr inbounds %"{closure@std::thread::Builder::spawn_unchecked_<'_, '_, {closure@data/RUSTSEC_2020_0159.rs:31:28: 31:30}, ()>::{closure#1}}", ptr %main, i32 0, i32 2, !dbg !775
  store ptr %i59, ptr %i60, align 8, !dbg !775
  %i62 = getelementptr inbounds %"{closure@std::thread::Builder::spawn_unchecked_<'_, '_, {closure@data/RUSTSEC_2020_0159.rs:31:28: 31:30}, ()>::{closure#1}}", ptr %main, i32 0, i32 1, !dbg !775
  store ptr %i45, ptr %i62, align 8, !dbg !775
  %self6 = load ptr, ptr %my_packet, align 8, !dbg !777, !nonnull !16, !noundef !16
  %i63 = getelementptr inbounds %"alloc::sync::ArcInner<std::thread::Packet<'_, ()>>", ptr %self6, i32 0, i32 2, !dbg !792
  %i64 = load ptr, ptr %i63, align 8, !dbg !792, !noundef !16
  %i65 = ptrtoint ptr %i64 to i64, !dbg !792
  %i66 = icmp eq i64 %i65, 0, !dbg !792
  %_27 = select i1 %i66, i64 0, i64 1, !dbg !792
  %i67 = icmp eq i64 %_27, 1, !dbg !792
  br i1 %i67, label %bb7, label %bb9, !dbg !792

bb7:                                              ; preds = %bb6
  %_30 = getelementptr inbounds %"alloc::sync::ArcInner<std::thread::scoped::ScopeData>", ptr %i64, i32 0, i32 2, !dbg !793
; call std::thread::scoped::ScopeData::increment_num_running_threads
  call void @_ZN3std6thread6scoped9ScopeData29increment_num_running_threads17h1f4288a87dda043cE(ptr align 8 %_30) #29, !dbg !793
  br label %bb9, !dbg !794

bb9:                                              ; preds = %bb7, %bb6
  store i8 0, ptr %_45, align 1, !dbg !795
  call void @llvm.memcpy.p0.p0.i64(ptr align 8 %_33, ptr align 8 %main, i64 24, i1 false), !dbg !795
  call void @llvm.lifetime.start.p0(i64 8, ptr %self.i), !dbg !796
  call void @llvm.lifetime.start.p0(i64 16, ptr %_4.i15), !dbg !796
  call void @llvm.lifetime.start.p0(i64 16, ptr %layout.i), !dbg !796
  %i69 = getelementptr inbounds { i64, i64 }, ptr %layout.i, i32 0, i32 1, !dbg !796
  store i64 24, ptr %i69, align 8, !dbg !796
  store i64 8, ptr %layout.i, align 8, !dbg !796
; call alloc::alloc::Global::alloc_impl
  %i73 = call fastcc { ptr, i64 } @_ZN5alloc5alloc6Global10alloc_impl17h829978be4ce278edE(i64 8, i64 24, i1 zeroext false) #29, !dbg !816
  store { ptr, i64 } %i73, ptr %_4.i15, align 8, !dbg !816
  %i74 = load ptr, ptr %_4.i15, align 8, !dbg !822, !noundef !16
  %i75 = ptrtoint ptr %i74 to i64, !dbg !822
  %i76 = icmp eq i64 %i75, 0, !dbg !822
  %_5.i = select i1 %i76, i64 1, i64 0, !dbg !822
  %i77 = icmp eq i64 %_5.i, 0, !dbg !823
  br i1 %i77, label %bb3.i, label %codeRepl.i, !dbg !823

bb3.i:                                            ; preds = %bb9
  store ptr %i74, ptr %self.i, align 8, !dbg !824
  call void @llvm.lifetime.end.p0(i64 8, ptr %self.i), !dbg !837
  call void @llvm.lifetime.end.p0(i64 16, ptr %_4.i15), !dbg !837
  call void @llvm.lifetime.end.p0(i64 16, ptr %layout.i), !dbg !837
  call void @llvm.memcpy.p0.p0.i64(ptr align 8 %i74, ptr align 8 %main, i64 24, i1 false), !dbg !838
  store ptr %i74, ptr %b, align 8, !dbg !839
  store ptr %i74, ptr %_86, align 8, !dbg !849
  store ptr %i74, ptr %leaked, align 8, !dbg !864
  store ptr %i74, ptr %_94, align 8, !dbg !876
  %i78 = getelementptr inbounds { ptr, ptr }, ptr %_94, i32 0, i32 1, !dbg !876
  store ptr @vtable.2, ptr %i78, align 8, !dbg !876
  store ptr %i74, ptr %_93, align 8, !dbg !895
  %i82 = getelementptr inbounds { ptr, ptr }, ptr %_93, i32 0, i32 1, !dbg !895
  store ptr @vtable.2, ptr %i82, align 8, !dbg !895
  store ptr %i74, ptr %main3, align 8, !dbg !896
  %i86 = getelementptr inbounds { ptr, ptr }, ptr %main3, i32 0, i32 1, !dbg !896
  store ptr @vtable.2, ptr %i86, align 8, !dbg !896
; call std::sys::unix::thread::Thread::new
  call void @_ZN3std3sys4unix6thread6Thread3new17h87f4070d7391b575E(ptr sret(%"core::result::Result<std::sys::unix::thread::Thread, std::io::error::Error>") align 8 %self4, i64 %_39, ptr align 1 %i74, ptr align 8 @vtable.2) #29, !dbg !897
  %_97 = load i64, ptr %self4, align 8, !dbg !900, !range !109, !noundef !16
  %i90 = icmp ne i64 %_97, 0, !dbg !903
  br i1 %i90, label %bb50, label %Flow110, !dbg !903

codeRepl.i:                                       ; preds = %bb9
  %layout.i.val = load i64, ptr %layout.i, align 8, !dbg !904, !range !905, !noundef !16
  %3 = getelementptr i8, ptr %layout.i, i64 8, !dbg !904
  %layout.i.val113 = load i64, ptr %3, align 8, !dbg !904, !noundef !16
; call alloc::alloc::exchange_malloc.5.bb1
  call fastcc void @_ZN5alloc5alloc15exchange_malloc17h33d2dad482dc5d9aE.5.bb1(i64 %layout.i.val, i64 %layout.i.val113), !dbg !904
  unreachable

Flow110:                                          ; preds = %bb50, %bb3.i
  %4 = phi ptr [ %e, %bb50 ], [ undef, %bb3.i ]
  %5 = phi i64 [ %8, %bb50 ], [ undef, %bb3.i ]
  %6 = phi i1 [ false, %bb50 ], [ true, %bb3.i ], !dbg !903
  br i1 %6, label %bb51, label %bb49, !dbg !903

bb51:                                             ; preds = %Flow110
  %i91 = getelementptr inbounds %"core::result::Result<std::sys::unix::thread::Thread, std::io::error::Error>::Ok", ptr %self4, i32 0, i32 1, !dbg !906
  %v = load i64, ptr %i91, align 8, !dbg !906, !noundef !16
  %i92 = getelementptr inbounds %"core::ops::control_flow::ControlFlow<core::result::Result<core::convert::Infallible, std::io::error::Error>, std::sys::unix::thread::Thread>::Continue", ptr %_37, i32 0, i32 1, !dbg !907
  store i64 %v, ptr %i92, align 8, !dbg !907
  store i64 0, ptr %_37, align 8, !dbg !907
  %7 = inttoptr i64 %v to ptr, !dbg !909
  br label %bb49, !dbg !909

bb50:                                             ; preds = %bb3.i
  %i93 = getelementptr inbounds %"core::result::Result<std::sys::unix::thread::Thread, std::io::error::Error>::Err", ptr %self4, i32 0, i32 1, !dbg !910
  %e = load ptr, ptr %i93, align 8, !dbg !910, !nonnull !16, !noundef !16
  store ptr %e, ptr %_100, align 8, !dbg !911
  %i95 = getelementptr inbounds %"core::ops::control_flow::ControlFlow<core::result::Result<core::convert::Infallible, std::io::error::Error>, std::sys::unix::thread::Thread>::Break", ptr %_37, i32 0, i32 1, !dbg !913
  store ptr %e, ptr %i95, align 8, !dbg !913
  store i64 1, ptr %_37, align 8, !dbg !913
  %8 = ptrtoint ptr %e to i64, !dbg !914
  br label %Flow110, !dbg !914

bb49:                                             ; preds = %bb51, %Flow110
  %val = phi i64 [ %5, %Flow110 ], [ %v, %bb51 ]
  %i101 = phi ptr [ %4, %Flow110 ], [ %7, %bb51 ]
  %_40 = phi i64 [ 1, %Flow110 ], [ 0, %bb51 ], !dbg !897
  %i96 = icmp ne i64 %_40, 0, !dbg !897
  br i1 %i96, label %bb14, label %Flow, !dbg !897

Flow:                                             ; preds = %bb14, %bb49
  %9 = phi i1 [ false, %bb14 ], [ true, %bb49 ], !dbg !897
  br i1 %9, label %bb12, label %bb17, !dbg !897

bb12:                                             ; preds = %Flow
  %_43 = load ptr, ptr %my_thread, align 8, !dbg !915, !nonnull !16, !noundef !16
  %_44 = load ptr, ptr %my_packet, align 8, !dbg !916, !nonnull !16, !noundef !16
  %i98 = getelementptr inbounds %"std::thread::JoinInner<'_, ()>", ptr %_36, i32 0, i32 2, !dbg !917
  store i64 %val, ptr %i98, align 8, !dbg !917
  store ptr %_43, ptr %_36, align 8, !dbg !917
  %i99 = getelementptr inbounds %"std::thread::JoinInner<'_, ()>", ptr %_36, i32 0, i32 1, !dbg !917
  store ptr %_44, ptr %i99, align 8, !dbg !917
  call void @llvm.memcpy.p0.p0.i64(ptr align 8 %_0, ptr align 8 %_36, i64 24, i1 false), !dbg !918
  br label %bb17, !dbg !919

bb14:                                             ; preds = %bb49
  store ptr %i101, ptr %residual, align 8, !dbg !920
  %i102 = getelementptr inbounds %"core::result::Result<std::thread::JoinInner<'_, ()>, std::io::error::Error>::Err", ptr %_0, i32 0, i32 1, !dbg !921
  store ptr %i101, ptr %i102, align 8, !dbg !921
  store ptr null, ptr %_0, align 8, !dbg !921
; call core::ptr::drop_in_place<alloc::sync::Arc<std::thread::Packet<()>>>
  call fastcc void @"_ZN4core3ptr80drop_in_place$LT$alloc..sync..Arc$LT$std..thread..Packet$LT$$LP$$RP$$GT$$GT$$GT$17h28be71a15cc83f57E"(ptr align 8 %my_packet) #29, !dbg !928
; call core::ptr::drop_in_place<std::thread::Thread>
  call fastcc void @"_ZN4core3ptr40drop_in_place$LT$std..thread..Thread$GT$17h1a2e51b24819ff73E"(ptr align 8 %my_thread) #29, !dbg !929
  br label %Flow, !dbg !919

bb17:                                             ; preds = %bb12, %Flow
  ret void, !dbg !930
}

; std::thread::Builder::spawn_unchecked_
; Function Attrs: nounwind nonlazybind
define internal fastcc void @_ZN3std6thread7Builder16spawn_unchecked_17he556f2f00c127680E(ptr noalias nocapture writeonly align 8 %_0, ptr nocapture readonly align 8 %self, ptr %arg) unnamed_addr #3 personality ptr @rust_eh_personality !dbg !931 {
start:
  %e.i = alloca %"alloc::ffi::c_str::NulError", align 8
  %self.i = alloca ptr, align 8
  %_4.i15 = alloca { ptr, i64 }, align 8
  %layout.i = alloca { i64, i64 }, align 8
  %_100 = alloca ptr, align 8
  %_94 = alloca { ptr, ptr }, align 8
  %_93 = alloca { ptr, ptr }, align 8
  %leaked = alloca ptr, align 8
  %_86 = alloca ptr, align 8
  %b = alloca ptr, align 8
  %_59 = alloca ptr, align 8
  %_57 = alloca %"core::result::Result<alloc::ffi::c_str::CString, alloc::ffi::c_str::NulError>", align 8
  %x = alloca %"alloc::string::String", align 8
  %_51 = alloca i8, align 1
  %_50 = alloca i8, align 1
  %_49 = alloca i8, align 1
  %_48 = alloca i8, align 1
  %_47 = alloca i8, align 1
  %_46 = alloca i8, align 1
  %_45 = alloca i8, align 1
  %residual = alloca ptr, align 8
  %self4 = alloca %"core::result::Result<std::sys::unix::thread::Thread, std::io::error::Error>", align 8
  %_37 = alloca %"core::ops::control_flow::ControlFlow<core::result::Result<core::convert::Infallible, std::io::error::Error>, std::sys::unix::thread::Thread>", align 8
  %_36 = alloca %"std::thread::JoinInner<'_, ()>", align 8
  %main3 = alloca { ptr, ptr }, align 8
  %_33 = alloca %"{closure@std::thread::Builder::spawn_unchecked_<'_, '_, {closure@data/RUSTSEC_2020_0159.rs:24:28: 24:35}, ()>::{closure#1}}", align 8
  %main = alloca %"{closure@std::thread::Builder::spawn_unchecked_<'_, '_, {closure@data/RUSTSEC_2020_0159.rs:24:28: 24:35}, ()>::{closure#1}}", align 8
  %_21 = alloca ptr, align 8
  %_20 = alloca ptr, align 8
  %output_capture = alloca ptr, align 8
  %their_packet = alloca ptr, align 8
  %value = alloca %"core::option::Option<core::result::Result<(), alloc::boxed::Box<dyn core::any::Any + core::marker::Send>>>", align 8
  %_13 = alloca %"std::thread::Packet<'_, ()>", align 8
  %my_packet = alloca ptr, align 8
  %their_thread = alloca ptr, align 8
  %self2 = alloca %"core::option::Option<alloc::string::String>", align 8
  %_8 = alloca { ptr, i64 }, align 8
  %my_thread = alloca ptr, align 8
  %stack_size1 = alloca i64, align 8
  %stack_size = alloca { i64, i64 }, align 8
  %name = alloca %"core::option::Option<alloc::string::String>", align 8
  %scope_data = alloca ptr, align 8
  store ptr %arg, ptr %scope_data, align 8
  store i8 1, ptr %_51, align 1, !dbg !932
  store i8 1, ptr %_50, align 1, !dbg !932
  store i8 1, ptr %_49, align 1, !dbg !933
  %i = getelementptr inbounds %"std::thread::Builder", ptr %self, i32 0, i32 1, !dbg !933
  call void @llvm.memcpy.p0.p0.i64(ptr align 8 %name, ptr align 8 %i, i64 24, i1 false), !dbg !933
  %i27 = load i64, ptr %self, align 8, !dbg !934, !range !109, !noundef !16
  %i28 = getelementptr inbounds { i64, i64 }, ptr %self, i32 0, i32 1, !dbg !934
  %i29 = load i64, ptr %i28, align 8, !dbg !934
  store i64 %i27, ptr %stack_size, align 8, !dbg !934
  %i30 = getelementptr inbounds { i64, i64 }, ptr %stack_size, i32 0, i32 1, !dbg !934
  store i64 %i29, ptr %i30, align 8, !dbg !934
  %i31 = icmp ne i64 %i27, 0, !dbg !935
  br i1 %i31, label %bb37, label %Flow112, !dbg !935

Flow112:                                          ; preds = %bb37, %start
  %0 = phi i1 [ false, %bb37 ], [ true, %start ], !dbg !935
  br i1 %0, label %bb36, label %bb38, !dbg !935

bb36:                                             ; preds = %Flow112
; call core::ops::function::FnOnce::call_once
  %i32 = call fastcc i64 @_ZN4core3ops8function6FnOnce9call_once17hf63b4fb42db3826aE() #29, !dbg !940
  store i64 %i32, ptr %stack_size1, align 8, !dbg !940
  br label %bb38, !dbg !940

bb37:                                             ; preds = %start
  store i64 %i29, ptr %stack_size1, align 8, !dbg !941
  br label %Flow112, !dbg !943

bb38:                                             ; preds = %bb36, %Flow112
  %_39 = phi i64 [ %i29, %Flow112 ], [ %i32, %bb36 ]
  store i8 0, ptr %_49, align 1, !dbg !944
  call void @llvm.memcpy.p0.p0.i64(ptr align 8 %self2, ptr align 8 %name, i64 24, i1 false), !dbg !944
  %i34 = load i64, ptr %self2, align 8, !dbg !946, !range !700, !noundef !16
  %i35 = icmp eq i64 %i34, -9223372036854775808, !dbg !946
  br i1 %i35, label %bb39, label %bb40, !dbg !950

bb39:                                             ; preds = %bb38
  store ptr null, ptr %_8, align 8, !dbg !951
  br label %bb41, !dbg !951

bb40:                                             ; preds = %bb38
  call void @llvm.memcpy.p0.p0.i64(ptr align 8 %x, ptr align 8 %name, i64 24, i1 false), !dbg !952
; call <T as alloc::ffi::c_str::CString::new::SpecNewImpl>::spec_new_impl
  call fastcc void @"_ZN66_$LT$T$u20$as$u20$alloc..ffi..c_str..CString..new..SpecNewImpl$GT$13spec_new_impl17h7fd65f06510761cfE"(ptr noalias align 8 %_57, ptr align 8 %x) #29, !dbg !953
  call void @llvm.lifetime.start.p0(i64 32, ptr %e.i), !dbg !961
  %i36 = load i64, ptr %_57, align 8, !dbg !961, !range !700, !noundef !16
  %i37 = icmp eq i64 %i36, -9223372036854775808, !dbg !961
  br i1 %i37, label %bb3.i18, label %codeRepl.i17, !dbg !963

bb41:                                             ; preds = %bb3.i18, %bb39
  %i40 = phi i64 [ %t.1.i, %bb3.i18 ], [ undef, %bb39 ], !dbg !964
  %i38 = phi ptr [ %t.0.i, %bb3.i18 ], [ null, %bb39 ], !dbg !964
; call std::thread::Thread::new
  %i41 = call ptr @_ZN3std6thread6Thread3new17h91c2acbc87f07c63E(ptr align 1 %i38, i64 %i40) #29, !dbg !964
  store ptr %i41, ptr %my_thread, align 8, !dbg !964
; call <alloc::sync::Arc<T,A> as core::clone::Clone>::clone
  %_61 = call fastcc ptr @"_ZN68_$LT$alloc..sync..Arc$LT$T$C$A$GT$$u20$as$u20$core..clone..Clone$GT$5clone17h3e63b87f3b7d7701E"(ptr align 8 %my_thread) #29, !dbg !965
  store ptr %_61, ptr %_59, align 8, !dbg !965
  store ptr %_61, ptr %their_thread, align 8, !dbg !973
  store i8 1, ptr %_48, align 1, !dbg !974
  store i8 0, ptr %_50, align 1, !dbg !975
  store i64 0, ptr %value, align 8, !dbg !977
  %i43 = getelementptr inbounds %"std::thread::Packet<'_, ()>", ptr %_13, i32 0, i32 1, !dbg !978
  call void @llvm.memcpy.p0.p0.i64(ptr align 8 %i43, ptr align 8 %value, i64 24, i1 false), !dbg !979
  store ptr %arg, ptr %_13, align 8, !dbg !978
; call alloc::sync::Arc<T>::new
  %i44 = call fastcc ptr @"_ZN5alloc4sync12Arc$LT$T$GT$3new17h41008552d3569eecE"(ptr align 8 %_13) #29, !dbg !983
  store ptr %i44, ptr %my_packet, align 8, !dbg !983
; call <alloc::sync::Arc<T,A> as core::clone::Clone>::clone
  %i45 = call fastcc ptr @"_ZN68_$LT$alloc..sync..Arc$LT$T$C$A$GT$$u20$as$u20$core..clone..Clone$GT$5clone17h3e63b87f3b7d7701E"(ptr align 8 %my_packet) #29, !dbg !984
  store ptr %i45, ptr %their_packet, align 8, !dbg !984
  store i8 1, ptr %_47, align 1, !dbg !986
; call std::io::stdio::set_output_capture
  %i46 = call ptr @_ZN3std2io5stdio18set_output_capture17hbfdad0a1763c8421E(ptr null) #29, !dbg !987
  store ptr %i46, ptr %output_capture, align 8, !dbg !987
  store i8 1, ptr %_46, align 1, !dbg !989
  %i48 = ptrtoint ptr %i46 to i64, !dbg !990
  %i49 = icmp ne i64 %i48, 0, !dbg !990
  br i1 %i49, label %bb47, label %Flow111, !dbg !995

bb3.i18:                                          ; preds = %bb40
  %i50 = getelementptr inbounds %"core::result::Result<alloc::ffi::c_str::CString, alloc::ffi::c_str::NulError>::Ok", ptr %_57, i32 0, i32 1, !dbg !996
  %t.0.i = load ptr, ptr %i50, align 8, !dbg !996, !nonnull !16, !align !582, !noundef !16
  %i51 = getelementptr inbounds { ptr, i64 }, ptr %i50, i32 0, i32 1, !dbg !996
  %t.1.i = load i64, ptr %i51, align 8, !dbg !996, !noundef !16
  call void @llvm.lifetime.end.p0(i64 32, ptr %e.i), !dbg !997
  store ptr %t.0.i, ptr %_8, align 8, !dbg !998
  %i52 = getelementptr inbounds { ptr, i64 }, ptr %_8, i32 0, i32 1, !dbg !998
  store i64 %t.1.i, ptr %i52, align 8, !dbg !998
  br label %bb41, !dbg !999

codeRepl.i17:                                     ; preds = %bb40
; call core::result::Result<T,E>::expect.8.bb1
  call fastcc void @"_ZN4core6result19Result$LT$T$C$E$GT$6expect17h8ba7d1c49a99f1cfE.8.bb1"(ptr %e.i, ptr %_57, ptr @alloc_498705839b3ae85466bce6e7ebfe4996, i64 47, ptr @alloc_10ce3643ab05b89124ccab86e25db141), !dbg !1000
  unreachable

Flow111:                                          ; preds = %bb47, %bb41
  %1 = phi ptr [ %_65, %bb47 ], [ undef, %bb41 ]
  %2 = phi i1 [ false, %bb47 ], [ true, %bb41 ], !dbg !995
  br i1 %2, label %bb46, label %bb45, !dbg !995

bb46:                                             ; preds = %Flow111
  store ptr null, ptr %_21, align 8, !dbg !1001
  br label %bb45, !dbg !1001

bb47:                                             ; preds = %bb41
; call <alloc::sync::Arc<T,A> as core::clone::Clone>::clone
  %_65 = call fastcc ptr @"_ZN68_$LT$alloc..sync..Arc$LT$T$C$A$GT$$u20$as$u20$core..clone..Clone$GT$5clone17h3e63b87f3b7d7701E"(ptr align 8 %output_capture) #29, !dbg !1002
  store ptr %_65, ptr %_21, align 8, !dbg !1004
  br label %Flow111, !dbg !1005

bb45:                                             ; preds = %bb46, %Flow111
  %i53 = phi ptr [ %1, %Flow111 ], [ null, %bb46 ], !dbg !1006
; call std::io::stdio::set_output_capture
  %i54 = call ptr @_ZN3std2io5stdio18set_output_capture17hbfdad0a1763c8421E(ptr %i53) #29, !dbg !1006
  store ptr %i54, ptr %_20, align 8, !dbg !1006
  %i56 = ptrtoint ptr %i54 to i64, !dbg !1007
  %i57 = icmp ne i64 %i56, 0, !dbg !1007
  br i1 %i57, label %codeRepl.i21, label %bb6, !dbg !1007

codeRepl.i21:                                     ; preds = %bb45
; call core::ptr::drop_in_place<core::option::Option<alloc::sync::Arc<std::sync::mutex::Mutex<alloc::vec::Vec<u8>>>>>.19.bb2
  call fastcc void @"_ZN4core3ptr129drop_in_place$LT$core..option..Option$LT$alloc..sync..Arc$LT$std..sync..mutex..Mutex$LT$alloc..vec..Vec$LT$u8$GT$$GT$$GT$$GT$$GT$17h05150d2e11303af0E.19.bb2"(ptr %_20), !dbg !1007
  br label %bb6

bb6:                                              ; preds = %codeRepl.i21, %bb45
  store i8 0, ptr %_51, align 1, !dbg !1009
  store i8 0, ptr %_48, align 1, !dbg !1010
  store i8 0, ptr %_46, align 1, !dbg !1010
  store i8 0, ptr %_47, align 1, !dbg !1010
  store i8 1, ptr %_45, align 1, !dbg !1010
  store ptr %_61, ptr %main, align 8, !dbg !1010
  %i59 = load ptr, ptr %output_capture, align 8, !dbg !1010, !noundef !16
  %i60 = getelementptr inbounds %"{closure@std::thread::Builder::spawn_unchecked_<'_, '_, {closure@data/RUSTSEC_2020_0159.rs:24:28: 24:35}, ()>::{closure#1}}", ptr %main, i32 0, i32 2, !dbg !1010
  store ptr %i59, ptr %i60, align 8, !dbg !1010
  %i62 = getelementptr inbounds %"{closure@std::thread::Builder::spawn_unchecked_<'_, '_, {closure@data/RUSTSEC_2020_0159.rs:24:28: 24:35}, ()>::{closure#1}}", ptr %main, i32 0, i32 1, !dbg !1010
  store ptr %i45, ptr %i62, align 8, !dbg !1010
  %self6 = load ptr, ptr %my_packet, align 8, !dbg !1012, !nonnull !16, !noundef !16
  %i63 = getelementptr inbounds %"alloc::sync::ArcInner<std::thread::Packet<'_, ()>>", ptr %self6, i32 0, i32 2, !dbg !1026
  %i64 = load ptr, ptr %i63, align 8, !dbg !1026, !noundef !16
  %i65 = ptrtoint ptr %i64 to i64, !dbg !1026
  %i66 = icmp eq i64 %i65, 0, !dbg !1026
  %_27 = select i1 %i66, i64 0, i64 1, !dbg !1026
  %i67 = icmp eq i64 %_27, 1, !dbg !1026
  br i1 %i67, label %bb7, label %bb9, !dbg !1026

bb7:                                              ; preds = %bb6
  %_30 = getelementptr inbounds %"alloc::sync::ArcInner<std::thread::scoped::ScopeData>", ptr %i64, i32 0, i32 2, !dbg !1027
; call std::thread::scoped::ScopeData::increment_num_running_threads
  call void @_ZN3std6thread6scoped9ScopeData29increment_num_running_threads17h1f4288a87dda043cE(ptr align 8 %_30) #29, !dbg !1027
  br label %bb9, !dbg !1028

bb9:                                              ; preds = %bb7, %bb6
  store i8 0, ptr %_45, align 1, !dbg !1029
  call void @llvm.memcpy.p0.p0.i64(ptr align 8 %_33, ptr align 8 %main, i64 24, i1 false), !dbg !1029
  call void @llvm.lifetime.start.p0(i64 8, ptr %self.i), !dbg !1030
  call void @llvm.lifetime.start.p0(i64 16, ptr %_4.i15), !dbg !1030
  call void @llvm.lifetime.start.p0(i64 16, ptr %layout.i), !dbg !1030
  %i69 = getelementptr inbounds { i64, i64 }, ptr %layout.i, i32 0, i32 1, !dbg !1030
  store i64 24, ptr %i69, align 8, !dbg !1030
  store i64 8, ptr %layout.i, align 8, !dbg !1030
; call alloc::alloc::Global::alloc_impl
  %i73 = call fastcc { ptr, i64 } @_ZN5alloc5alloc6Global10alloc_impl17h829978be4ce278edE(i64 8, i64 24, i1 zeroext false) #29, !dbg !1036
  store { ptr, i64 } %i73, ptr %_4.i15, align 8, !dbg !1036
  %i74 = load ptr, ptr %_4.i15, align 8, !dbg !1038, !noundef !16
  %i75 = ptrtoint ptr %i74 to i64, !dbg !1038
  %i76 = icmp eq i64 %i75, 0, !dbg !1038
  %_5.i = select i1 %i76, i64 1, i64 0, !dbg !1038
  %i77 = icmp eq i64 %_5.i, 0, !dbg !1039
  br i1 %i77, label %bb3.i, label %codeRepl.i, !dbg !1039

bb3.i:                                            ; preds = %bb9
  store ptr %i74, ptr %self.i, align 8, !dbg !1040
  call void @llvm.lifetime.end.p0(i64 8, ptr %self.i), !dbg !1044
  call void @llvm.lifetime.end.p0(i64 16, ptr %_4.i15), !dbg !1044
  call void @llvm.lifetime.end.p0(i64 16, ptr %layout.i), !dbg !1044
  call void @llvm.memcpy.p0.p0.i64(ptr align 8 %i74, ptr align 8 %main, i64 24, i1 false), !dbg !1045
  store ptr %i74, ptr %b, align 8, !dbg !1046
  store ptr %i74, ptr %_86, align 8, !dbg !1055
  store ptr %i74, ptr %leaked, align 8, !dbg !1067
  store ptr %i74, ptr %_94, align 8, !dbg !1075
  %i78 = getelementptr inbounds { ptr, ptr }, ptr %_94, i32 0, i32 1, !dbg !1075
  store ptr @vtable.3, ptr %i78, align 8, !dbg !1075
  store ptr %i74, ptr %_93, align 8, !dbg !1092
  %i82 = getelementptr inbounds { ptr, ptr }, ptr %_93, i32 0, i32 1, !dbg !1092
  store ptr @vtable.3, ptr %i82, align 8, !dbg !1092
  store ptr %i74, ptr %main3, align 8, !dbg !1093
  %i86 = getelementptr inbounds { ptr, ptr }, ptr %main3, i32 0, i32 1, !dbg !1093
  store ptr @vtable.3, ptr %i86, align 8, !dbg !1093
; call std::sys::unix::thread::Thread::new
  call void @_ZN3std3sys4unix6thread6Thread3new17h87f4070d7391b575E(ptr sret(%"core::result::Result<std::sys::unix::thread::Thread, std::io::error::Error>") align 8 %self4, i64 %_39, ptr align 1 %i74, ptr align 8 @vtable.3) #29, !dbg !1094
  %_97 = load i64, ptr %self4, align 8, !dbg !1097, !range !109, !noundef !16
  %i90 = icmp ne i64 %_97, 0, !dbg !1100
  br i1 %i90, label %bb50, label %Flow110, !dbg !1100

codeRepl.i:                                       ; preds = %bb9
  %layout.i.val = load i64, ptr %layout.i, align 8, !dbg !1101, !range !905, !noundef !16
  %3 = getelementptr i8, ptr %layout.i, i64 8, !dbg !1101
  %layout.i.val113 = load i64, ptr %3, align 8, !dbg !1101, !noundef !16
; call alloc::alloc::exchange_malloc.5.bb1
  call fastcc void @_ZN5alloc5alloc15exchange_malloc17h33d2dad482dc5d9aE.5.bb1(i64 %layout.i.val, i64 %layout.i.val113), !dbg !1101
  unreachable

Flow110:                                          ; preds = %bb50, %bb3.i
  %4 = phi ptr [ %e, %bb50 ], [ undef, %bb3.i ]
  %5 = phi i64 [ %8, %bb50 ], [ undef, %bb3.i ]
  %6 = phi i1 [ false, %bb50 ], [ true, %bb3.i ], !dbg !1100
  br i1 %6, label %bb51, label %bb49, !dbg !1100

bb51:                                             ; preds = %Flow110
  %i91 = getelementptr inbounds %"core::result::Result<std::sys::unix::thread::Thread, std::io::error::Error>::Ok", ptr %self4, i32 0, i32 1, !dbg !1102
  %v = load i64, ptr %i91, align 8, !dbg !1102, !noundef !16
  %i92 = getelementptr inbounds %"core::ops::control_flow::ControlFlow<core::result::Result<core::convert::Infallible, std::io::error::Error>, std::sys::unix::thread::Thread>::Continue", ptr %_37, i32 0, i32 1, !dbg !1103
  store i64 %v, ptr %i92, align 8, !dbg !1103
  store i64 0, ptr %_37, align 8, !dbg !1103
  %7 = inttoptr i64 %v to ptr, !dbg !1105
  br label %bb49, !dbg !1105

bb50:                                             ; preds = %bb3.i
  %i93 = getelementptr inbounds %"core::result::Result<std::sys::unix::thread::Thread, std::io::error::Error>::Err", ptr %self4, i32 0, i32 1, !dbg !1106
  %e = load ptr, ptr %i93, align 8, !dbg !1106, !nonnull !16, !noundef !16
  store ptr %e, ptr %_100, align 8, !dbg !1107
  %i95 = getelementptr inbounds %"core::ops::control_flow::ControlFlow<core::result::Result<core::convert::Infallible, std::io::error::Error>, std::sys::unix::thread::Thread>::Break", ptr %_37, i32 0, i32 1, !dbg !1109
  store ptr %e, ptr %i95, align 8, !dbg !1109
  store i64 1, ptr %_37, align 8, !dbg !1109
  %8 = ptrtoint ptr %e to i64, !dbg !1110
  br label %Flow110, !dbg !1110

bb49:                                             ; preds = %bb51, %Flow110
  %val = phi i64 [ %5, %Flow110 ], [ %v, %bb51 ]
  %i101 = phi ptr [ %4, %Flow110 ], [ %7, %bb51 ]
  %_40 = phi i64 [ 1, %Flow110 ], [ 0, %bb51 ], !dbg !1094
  %i96 = icmp ne i64 %_40, 0, !dbg !1094
  br i1 %i96, label %bb14, label %Flow, !dbg !1094

Flow:                                             ; preds = %bb14, %bb49
  %9 = phi i1 [ false, %bb14 ], [ true, %bb49 ], !dbg !1094
  br i1 %9, label %bb12, label %bb17, !dbg !1094

bb12:                                             ; preds = %Flow
  %_43 = load ptr, ptr %my_thread, align 8, !dbg !1111, !nonnull !16, !noundef !16
  %_44 = load ptr, ptr %my_packet, align 8, !dbg !1112, !nonnull !16, !noundef !16
  %i98 = getelementptr inbounds %"std::thread::JoinInner<'_, ()>", ptr %_36, i32 0, i32 2, !dbg !1113
  store i64 %val, ptr %i98, align 8, !dbg !1113
  store ptr %_43, ptr %_36, align 8, !dbg !1113
  %i99 = getelementptr inbounds %"std::thread::JoinInner<'_, ()>", ptr %_36, i32 0, i32 1, !dbg !1113
  store ptr %_44, ptr %i99, align 8, !dbg !1113
  call void @llvm.memcpy.p0.p0.i64(ptr align 8 %_0, ptr align 8 %_36, i64 24, i1 false), !dbg !1114
  br label %bb17, !dbg !1115

bb14:                                             ; preds = %bb49
  store ptr %i101, ptr %residual, align 8, !dbg !1116
  %i102 = getelementptr inbounds %"core::result::Result<std::thread::JoinInner<'_, ()>, std::io::error::Error>::Err", ptr %_0, i32 0, i32 1, !dbg !1117
  store ptr %i101, ptr %i102, align 8, !dbg !1117
  store ptr null, ptr %_0, align 8, !dbg !1117
; call core::ptr::drop_in_place<alloc::sync::Arc<std::thread::Packet<()>>>
  call fastcc void @"_ZN4core3ptr80drop_in_place$LT$alloc..sync..Arc$LT$std..thread..Packet$LT$$LP$$RP$$GT$$GT$$GT$17h28be71a15cc83f57E"(ptr align 8 %my_packet) #29, !dbg !1124
; call core::ptr::drop_in_place<std::thread::Thread>
  call fastcc void @"_ZN4core3ptr40drop_in_place$LT$std..thread..Thread$GT$17h1a2e51b24819ff73E"(ptr align 8 %my_thread) #29, !dbg !1125
  br label %Flow, !dbg !1115

bb17:                                             ; preds = %bb12, %Flow
  ret void, !dbg !1126
}

; std::thread::Builder::spawn_unchecked_::{{closure}}
; Function Attrs: inlinehint nounwind nonlazybind
define internal fastcc void @"_ZN3std6thread7Builder16spawn_unchecked_28_$u7b$$u7b$closure$u7d$$u7d$17h74e98377b3335e67E"(ptr align 8 %_1) unnamed_addr #1 personality ptr @rust_eh_personality !dbg !1127 {
start:
  %_26 = alloca i8, align 1
  %_25 = alloca i8, align 1
  %_24 = alloca i8, align 1
  %_23 = alloca i8, align 1
  %_22 = alloca i8, align 1
  %_x = alloca ptr, align 8
  %_17 = alloca %"core::option::Option<core::result::Result<(), alloc::boxed::Box<dyn core::any::Any + core::marker::Send>>>", align 8
  %_12 = alloca %"core::option::Option<core::ops::range::Range<usize>>", align 8
  %_7 = alloca ptr, align 8
  %_2 = alloca { ptr, i64 }, align 8
  store i8 1, ptr %_23, align 1, !dbg !1128
  store i8 1, ptr %_24, align 1, !dbg !1128
  store i8 1, ptr %_25, align 1, !dbg !1128
  store i8 1, ptr %_26, align 1, !dbg !1128
; call std::thread::Thread::cname
  %i = call { ptr, i64 } @_ZN3std6thread6Thread5cname17h91163d95cfb5c369E(ptr align 8 %_1) #29, !dbg !1129
  store { ptr, i64 } %i, ptr %_2, align 8, !dbg !1129
  %i10 = load ptr, ptr %_2, align 8, !dbg !1131, !noundef !16
  %i11 = ptrtoint ptr %i10 to i64, !dbg !1131
  %i12 = icmp eq i64 %i11, 0, !dbg !1131
  %_4 = select i1 %i12, i64 0, i64 1, !dbg !1131
  %i13 = icmp eq i64 %_4, 1, !dbg !1131
  br i1 %i13, label %bb2, label %bb3, !dbg !1131

bb2:                                              ; preds = %start
  %i14 = getelementptr inbounds { ptr, i64 }, ptr %_2, i32 0, i32 1, !dbg !1132
  %name.1 = load i64, ptr %i14, align 8, !dbg !1132, !noundef !16
; call std::sys::unix::thread::Thread::set_name
  call void @_ZN3std3sys4unix6thread6Thread8set_name17h944eeb69463a3300E(ptr align 1 %i10, i64 %name.1) #29, !dbg !1133
  br label %bb3, !dbg !1133

bb3:                                              ; preds = %bb2, %start
  store i8 0, ptr %_26, align 1, !dbg !1134
  %i15 = getelementptr inbounds %"{closure@std::thread::Builder::spawn_unchecked_<'_, '_, {closure@data/RUSTSEC_2020_0159.rs:31:28: 31:30}, ()>::{closure#1}}", ptr %_1, i32 0, i32 2, !dbg !1134
  %_8 = load ptr, ptr %i15, align 8, !dbg !1134, !noundef !16
; call std::io::stdio::set_output_capture
  %i16 = call ptr @_ZN3std2io5stdio18set_output_capture17hbfdad0a1763c8421E(ptr %_8) #29, !dbg !1135
  store ptr %i16, ptr %_7, align 8, !dbg !1135
  %i18 = ptrtoint ptr %i16 to i64, !dbg !1136
  %i19 = icmp ne i64 %i18, 0, !dbg !1136
  br i1 %i19, label %codeRepl.i6, label %bb5, !dbg !1136

codeRepl.i6:                                      ; preds = %bb3
; call core::ptr::drop_in_place<core::option::Option<alloc::sync::Arc<std::sync::mutex::Mutex<alloc::vec::Vec<u8>>>>>.19.bb2
  call fastcc void @"_ZN4core3ptr129drop_in_place$LT$core..option..Option$LT$alloc..sync..Arc$LT$std..sync..mutex..Mutex$LT$alloc..vec..Vec$LT$u8$GT$$GT$$GT$$GT$$GT$17h05150d2e11303af0E.19.bb2"(ptr %_7), !dbg !1136
  br label %bb5

bb5:                                              ; preds = %codeRepl.i6, %bb3
  store i8 0, ptr %_25, align 1, !dbg !1138
  store i8 1, ptr %_22, align 1, !dbg !1139
; call std::sys::unix::thread::guard::current
  call void @_ZN3std3sys4unix6thread5guard7current17h5a7c57689f473c66E(ptr sret(%"core::option::Option<core::ops::range::Range<usize>>") align 8 %_12) #29, !dbg !1140
  store i8 0, ptr %_24, align 1, !dbg !1143
  %_13 = load ptr, ptr %_1, align 8, !dbg !1143, !nonnull !16, !noundef !16
; call std::sys_common::thread_info::set
  call void @_ZN3std10sys_common11thread_info3set17hb38d90ff4419d5b1E(ptr align 8 %_12, ptr %_13) #29, !dbg !1144
  store i8 0, ptr %_22, align 1, !dbg !1145
; call std::panicking::try
  %i20 = call fastcc { ptr, ptr } @_ZN3std9panicking3try17hb10191935f0006d5E() #29, !dbg !1146
  %try_result.0 = extractvalue { ptr, ptr } %i20, 0, !dbg !1146
  %try_result.1 = extractvalue { ptr, ptr } %i20, 1, !dbg !1146
  %i21 = getelementptr inbounds %"core::option::Option<core::result::Result<(), alloc::boxed::Box<dyn core::any::Any + core::marker::Send>>>::Some", ptr %_17, i32 0, i32 1, !dbg !1153
  store ptr %try_result.0, ptr %i21, align 8, !dbg !1153
  %i22 = getelementptr inbounds { ptr, ptr }, ptr %i21, i32 0, i32 1, !dbg !1153
  store ptr %try_result.1, ptr %i22, align 8, !dbg !1153
  store i64 1, ptr %_17, align 8, !dbg !1153
  %i23 = getelementptr inbounds %"{closure@std::thread::Builder::spawn_unchecked_<'_, '_, {closure@data/RUSTSEC_2020_0159.rs:31:28: 31:30}, ()>::{closure#1}}", ptr %_1, i32 0, i32 1, !dbg !1156
  %self3 = load ptr, ptr %i23, align 8, !dbg !1156, !nonnull !16, !noundef !16
  %i24 = getelementptr inbounds %"alloc::sync::ArcInner<std::thread::Packet<'_, ()>>", ptr %self3, i32 0, i32 2, !dbg !1168
  %_39 = getelementptr inbounds %"std::thread::Packet<'_, ()>", ptr %i24, i32 0, i32 1, !dbg !1168
  %_2.i = load i64, ptr %_39, align 8, !dbg !1172, !range !109, !noundef !16
  %i25 = icmp ne i64 %_2.i, 0, !dbg !1172
  br i1 %i25, label %codeRepl.i, label %bb8, !dbg !1172

codeRepl.i:                                       ; preds = %bb5
; call core::ptr::drop_in_place<core::option::Option<core::result::Result<(),alloc::boxed::Box<dyn core::any::Any+core::marker::Send>>>>.17.bb2
  call fastcc void @"_ZN4core3ptr158drop_in_place$LT$core..option..Option$LT$core..result..Result$LT$$LP$$RP$$C$alloc..boxed..Box$LT$dyn$u20$core..any..Any$u2b$core..marker..Send$GT$$GT$$GT$$GT$17hc748219b06bece92E.17.bb2"(ptr %_39), !dbg !1172
  br label %bb8

bb8:                                              ; preds = %codeRepl.i, %bb5
  call void @llvm.memcpy.p0.p0.i64(ptr align 8 %_39, ptr align 8 %_17, i64 24, i1 false), !dbg !1175
  store i8 0, ptr %_23, align 1, !dbg !1176
  %i27 = load ptr, ptr %i23, align 8, !dbg !1176, !nonnull !16, !noundef !16
  store ptr %i27, ptr %_x, align 8, !dbg !1176
; call core::ptr::drop_in_place<alloc::sync::Arc<std::thread::Packet<()>>>
  call fastcc void @"_ZN4core3ptr80drop_in_place$LT$alloc..sync..Arc$LT$std..thread..Packet$LT$$LP$$RP$$GT$$GT$$GT$17h28be71a15cc83f57E"(ptr align 8 %_x) #29, !dbg !1177
  ret void, !dbg !1181
}

; std::thread::Builder::spawn_unchecked_::{{closure}}
; Function Attrs: inlinehint nounwind nonlazybind
define internal fastcc void @"_ZN3std6thread7Builder16spawn_unchecked_28_$u7b$$u7b$closure$u7d$$u7d$17h7b3f2eed90cb2eb5E"(ptr align 8 %_1) unnamed_addr #1 personality ptr @rust_eh_personality !dbg !1182 {
start:
  %_26 = alloca i8, align 1
  %_25 = alloca i8, align 1
  %_24 = alloca i8, align 1
  %_23 = alloca i8, align 1
  %_22 = alloca i8, align 1
  %_x = alloca ptr, align 8
  %_17 = alloca %"core::option::Option<core::result::Result<(), alloc::boxed::Box<dyn core::any::Any + core::marker::Send>>>", align 8
  %_12 = alloca %"core::option::Option<core::ops::range::Range<usize>>", align 8
  %_7 = alloca ptr, align 8
  %_2 = alloca { ptr, i64 }, align 8
  store i8 1, ptr %_23, align 1, !dbg !1183
  store i8 1, ptr %_24, align 1, !dbg !1183
  store i8 1, ptr %_25, align 1, !dbg !1183
  store i8 1, ptr %_26, align 1, !dbg !1183
; call std::thread::Thread::cname
  %i = call { ptr, i64 } @_ZN3std6thread6Thread5cname17h91163d95cfb5c369E(ptr align 8 %_1) #29, !dbg !1184
  store { ptr, i64 } %i, ptr %_2, align 8, !dbg !1184
  %i10 = load ptr, ptr %_2, align 8, !dbg !1186, !noundef !16
  %i11 = ptrtoint ptr %i10 to i64, !dbg !1186
  %i12 = icmp eq i64 %i11, 0, !dbg !1186
  %_4 = select i1 %i12, i64 0, i64 1, !dbg !1186
  %i13 = icmp eq i64 %_4, 1, !dbg !1186
  br i1 %i13, label %bb2, label %bb3, !dbg !1186

bb2:                                              ; preds = %start
  %i14 = getelementptr inbounds { ptr, i64 }, ptr %_2, i32 0, i32 1, !dbg !1187
  %name.1 = load i64, ptr %i14, align 8, !dbg !1187, !noundef !16
; call std::sys::unix::thread::Thread::set_name
  call void @_ZN3std3sys4unix6thread6Thread8set_name17h944eeb69463a3300E(ptr align 1 %i10, i64 %name.1) #29, !dbg !1188
  br label %bb3, !dbg !1188

bb3:                                              ; preds = %bb2, %start
  store i8 0, ptr %_26, align 1, !dbg !1189
  %i15 = getelementptr inbounds %"{closure@std::thread::Builder::spawn_unchecked_<'_, '_, {closure@data/RUSTSEC_2020_0159.rs:24:28: 24:35}, ()>::{closure#1}}", ptr %_1, i32 0, i32 2, !dbg !1189
  %_8 = load ptr, ptr %i15, align 8, !dbg !1189, !noundef !16
; call std::io::stdio::set_output_capture
  %i16 = call ptr @_ZN3std2io5stdio18set_output_capture17hbfdad0a1763c8421E(ptr %_8) #29, !dbg !1190
  store ptr %i16, ptr %_7, align 8, !dbg !1190
  %i18 = ptrtoint ptr %i16 to i64, !dbg !1191
  %i19 = icmp ne i64 %i18, 0, !dbg !1191
  br i1 %i19, label %codeRepl.i6, label %bb5, !dbg !1191

codeRepl.i6:                                      ; preds = %bb3
; call core::ptr::drop_in_place<core::option::Option<alloc::sync::Arc<std::sync::mutex::Mutex<alloc::vec::Vec<u8>>>>>.19.bb2
  call fastcc void @"_ZN4core3ptr129drop_in_place$LT$core..option..Option$LT$alloc..sync..Arc$LT$std..sync..mutex..Mutex$LT$alloc..vec..Vec$LT$u8$GT$$GT$$GT$$GT$$GT$17h05150d2e11303af0E.19.bb2"(ptr %_7), !dbg !1191
  br label %bb5

bb5:                                              ; preds = %codeRepl.i6, %bb3
  store i8 0, ptr %_25, align 1, !dbg !1193
  store i8 1, ptr %_22, align 1, !dbg !1194
; call std::sys::unix::thread::guard::current
  call void @_ZN3std3sys4unix6thread5guard7current17h5a7c57689f473c66E(ptr sret(%"core::option::Option<core::ops::range::Range<usize>>") align 8 %_12) #29, !dbg !1195
  store i8 0, ptr %_24, align 1, !dbg !1198
  %_13 = load ptr, ptr %_1, align 8, !dbg !1198, !nonnull !16, !noundef !16
; call std::sys_common::thread_info::set
  call void @_ZN3std10sys_common11thread_info3set17hb38d90ff4419d5b1E(ptr align 8 %_12, ptr %_13) #29, !dbg !1199
  store i8 0, ptr %_22, align 1, !dbg !1200
; call std::panicking::try
  %i20 = call fastcc { ptr, ptr } @_ZN3std9panicking3try17ha4841f85d949a9b0E() #29, !dbg !1201
  %try_result.0 = extractvalue { ptr, ptr } %i20, 0, !dbg !1201
  %try_result.1 = extractvalue { ptr, ptr } %i20, 1, !dbg !1201
  %i21 = getelementptr inbounds %"core::option::Option<core::result::Result<(), alloc::boxed::Box<dyn core::any::Any + core::marker::Send>>>::Some", ptr %_17, i32 0, i32 1, !dbg !1206
  store ptr %try_result.0, ptr %i21, align 8, !dbg !1206
  %i22 = getelementptr inbounds { ptr, ptr }, ptr %i21, i32 0, i32 1, !dbg !1206
  store ptr %try_result.1, ptr %i22, align 8, !dbg !1206
  store i64 1, ptr %_17, align 8, !dbg !1206
  %i23 = getelementptr inbounds %"{closure@std::thread::Builder::spawn_unchecked_<'_, '_, {closure@data/RUSTSEC_2020_0159.rs:24:28: 24:35}, ()>::{closure#1}}", ptr %_1, i32 0, i32 1, !dbg !1209
  %self3 = load ptr, ptr %i23, align 8, !dbg !1209, !nonnull !16, !noundef !16
  %i24 = getelementptr inbounds %"alloc::sync::ArcInner<std::thread::Packet<'_, ()>>", ptr %self3, i32 0, i32 2, !dbg !1221
  %_39 = getelementptr inbounds %"std::thread::Packet<'_, ()>", ptr %i24, i32 0, i32 1, !dbg !1221
  %_2.i = load i64, ptr %_39, align 8, !dbg !1225, !range !109, !noundef !16
  %i25 = icmp ne i64 %_2.i, 0, !dbg !1225
  br i1 %i25, label %codeRepl.i, label %bb8, !dbg !1225

codeRepl.i:                                       ; preds = %bb5
; call core::ptr::drop_in_place<core::option::Option<core::result::Result<(),alloc::boxed::Box<dyn core::any::Any+core::marker::Send>>>>.17.bb2
  call fastcc void @"_ZN4core3ptr158drop_in_place$LT$core..option..Option$LT$core..result..Result$LT$$LP$$RP$$C$alloc..boxed..Box$LT$dyn$u20$core..any..Any$u2b$core..marker..Send$GT$$GT$$GT$$GT$17hc748219b06bece92E.17.bb2"(ptr %_39), !dbg !1225
  br label %bb8

bb8:                                              ; preds = %codeRepl.i, %bb5
  call void @llvm.memcpy.p0.p0.i64(ptr align 8 %_39, ptr align 8 %_17, i64 24, i1 false), !dbg !1227
  store i8 0, ptr %_23, align 1, !dbg !1228
  %i27 = load ptr, ptr %i23, align 8, !dbg !1228, !nonnull !16, !noundef !16
  store ptr %i27, ptr %_x, align 8, !dbg !1228
; call core::ptr::drop_in_place<alloc::sync::Arc<std::thread::Packet<()>>>
  call fastcc void @"_ZN4core3ptr80drop_in_place$LT$alloc..sync..Arc$LT$std..thread..Packet$LT$$LP$$RP$$GT$$GT$$GT$17h28be71a15cc83f57E"(ptr align 8 %_x) #29, !dbg !1229
  ret void, !dbg !1233
}

; std::thread::Builder::spawn_unchecked_::{{closure}}::{{closure}}
; Function Attrs: inlinehint nounwind nonlazybind
define internal fastcc void @"_ZN3std6thread7Builder16spawn_unchecked_28_$u7b$$u7b$closure$u7d$$u7d$28_$u7b$$u7b$closure$u7d$$u7d$17h5b9f92dc8b787966E"() unnamed_addr #1 !dbg !1234 {
start:
; call std::sys_common::backtrace::__rust_begin_short_backtrace
  call fastcc void @_ZN3std10sys_common9backtrace28__rust_begin_short_backtrace17h45ab6dd9de8870a7E() #29, !dbg !1236
  ret void, !dbg !1237
}

; std::thread::Builder::spawn_unchecked_::{{closure}}::{{closure}}
; Function Attrs: inlinehint nounwind nonlazybind
define internal fastcc void @"_ZN3std6thread7Builder16spawn_unchecked_28_$u7b$$u7b$closure$u7d$$u7d$28_$u7b$$u7b$closure$u7d$$u7d$17h5f4f2bcd1cb3a7c9E"() unnamed_addr #1 !dbg !1238 {
start:
; call std::sys_common::backtrace::__rust_begin_short_backtrace
  call fastcc void @_ZN3std10sys_common9backtrace28__rust_begin_short_backtrace17hed14abe39ba5a0e7E() #29, !dbg !1239
  ret void, !dbg !1240
}

; std::panicking::try
; Function Attrs: nounwind nonlazybind
define internal fastcc { ptr, ptr } @_ZN3std9panicking3try17ha4841f85d949a9b0E() unnamed_addr #3 !dbg !1241 {
start:
  %i = alloca i32, align 4
  %_0 = alloca { ptr, ptr }, align 8
; call std::panicking::try::do_call
  call fastcc void @_ZN3std9panicking3try7do_call17h5c194fef05d78feeE(), !dbg !1244
  store i32 0, ptr %i, align 4, !dbg !1244
  br label %bb2

bb2:                                              ; preds = %start
  store ptr null, ptr %_0, align 8, !dbg !1248
  br label %bb4, !dbg !1249

bb4:                                              ; preds = %bb2
  ret { ptr, ptr } { ptr null, ptr undef }, !dbg !1250
}

; std::panicking::try
; Function Attrs: nounwind nonlazybind
define internal fastcc { ptr, ptr } @_ZN3std9panicking3try17hb10191935f0006d5E() unnamed_addr #3 !dbg !1251 {
start:
  %i = alloca i32, align 4
  %_0 = alloca { ptr, ptr }, align 8
; call std::panicking::try::do_call
  call fastcc void @_ZN3std9panicking3try7do_call17had5dd1ae16c172dbE(), !dbg !1252
  store i32 0, ptr %i, align 4, !dbg !1252
  br label %bb2

bb2:                                              ; preds = %start
  store ptr null, ptr %_0, align 8, !dbg !1256
  br label %bb4, !dbg !1257

bb4:                                              ; preds = %bb2
  ret { ptr, ptr } { ptr null, ptr undef }, !dbg !1258
}

; std::panicking::try
; Function Attrs: nounwind nonlazybind
define internal fastcc { ptr, ptr } @_ZN3std9panicking3try17hd7991d0524424f58E(ptr align 8 %f) unnamed_addr #3 !dbg !1259 {
start:
  %i = alloca i32, align 4
  %_3 = alloca ptr, align 8
  %data = alloca %"std::panicking::try::Data<core::panic::unwind_safe::AssertUnwindSafe<{closure@<std::thread::Packet<'_, ()> as core::ops::drop::Drop>::drop::{closure#0}}>, ()>", align 8
  %_0 = alloca { ptr, ptr }, align 8
  store ptr %f, ptr %_3, align 8, !dbg !1260
  store ptr %f, ptr %data, align 8, !dbg !1264
  %data.val = load ptr, ptr %data, align 8, !dbg !1265, !nonnull !16, !align !483, !noundef !16
; call std::panicking::try::do_call
  call fastcc void @_ZN3std9panicking3try7do_call17h97b03e971a5ce698E(ptr %data.val), !dbg !1265
  store i32 0, ptr %i, align 4, !dbg !1265
  br label %bb2

bb2:                                              ; preds = %start
  store ptr null, ptr %_0, align 8, !dbg !1269
  br label %bb4, !dbg !1270

bb4:                                              ; preds = %bb2
  ret { ptr, ptr } { ptr null, ptr undef }, !dbg !1271
}

; std::panicking::try::do_call
; Function Attrs: inlinehint nounwind nonlazybind
define internal fastcc void @_ZN3std9panicking3try7do_call17h5c194fef05d78feeE() unnamed_addr #1 !dbg !1272 {
start:
; call <core::panic::unwind_safe::AssertUnwindSafe<F> as core::ops::function::FnOnce<()>>::call_once
  call fastcc void @"_ZN115_$LT$core..panic..unwind_safe..AssertUnwindSafe$LT$F$GT$$u20$as$u20$core..ops..function..FnOnce$LT$$LP$$RP$$GT$$GT$9call_once17h13e4957a6feabf1dE"() #29, !dbg !1274
  ret void, !dbg !1279
}

; std::panicking::try::do_call
; Function Attrs: inlinehint nounwind nonlazybind
define internal fastcc void @_ZN3std9panicking3try7do_call17h97b03e971a5ce698E(ptr %data.0.val) unnamed_addr #1 !dbg !1280 {
start:
  %0 = icmp ne ptr %data.0.val, null
  call void @llvm.assume(i1 %0)
; call <core::panic::unwind_safe::AssertUnwindSafe<F> as core::ops::function::FnOnce<()>>::call_once
  call fastcc void @"_ZN115_$LT$core..panic..unwind_safe..AssertUnwindSafe$LT$F$GT$$u20$as$u20$core..ops..function..FnOnce$LT$$LP$$RP$$GT$$GT$9call_once17h95ac5e89df7a0fbaE"(ptr align 8 %data.0.val) #29, !dbg !1281
  ret void, !dbg !1286
}

; std::panicking::try::do_call
; Function Attrs: inlinehint nounwind nonlazybind
define internal fastcc void @_ZN3std9panicking3try7do_call17had5dd1ae16c172dbE() unnamed_addr #1 !dbg !1287 {
start:
; call <core::panic::unwind_safe::AssertUnwindSafe<F> as core::ops::function::FnOnce<()>>::call_once
  call fastcc void @"_ZN115_$LT$core..panic..unwind_safe..AssertUnwindSafe$LT$F$GT$$u20$as$u20$core..ops..function..FnOnce$LT$$LP$$RP$$GT$$GT$9call_once17hede66030316b7e60E"() #29, !dbg !1288
  ret void, !dbg !1293
}

; <&T as core::fmt::Debug>::fmt
; Function Attrs: nounwind nonlazybind
define internal zeroext i1 @"_ZN42_$LT$$RF$T$u20$as$u20$core..fmt..Debug$GT$3fmt17h5725052751dcd9b7E"(ptr nocapture readonly align 8 %self, ptr align 8 %f) unnamed_addr #3 !dbg !1294 {
start:
  %_3 = load ptr, ptr %self, align 8, !dbg !1298, !nonnull !16, !align !582, !noundef !16
; call core::fmt::num::<impl core::fmt::Debug for u8>::fmt
  %_0 = call fastcc zeroext i1 @"_ZN4core3fmt3num49_$LT$impl$u20$core..fmt..Debug$u20$for$u20$u8$GT$3fmt17h4b7c75634f87422aE"(ptr align 1 %_3, ptr align 8 %f) #29, !dbg !1299
  ret i1 %_0, !dbg !1300
}

; <&T as core::fmt::Debug>::fmt
; Function Attrs: nounwind nonlazybind
define internal zeroext i1 @"_ZN42_$LT$$RF$T$u20$as$u20$core..fmt..Debug$GT$3fmt17h625f6358bc8ce70dE"(ptr nocapture readonly align 8 %self, ptr align 8 %f) unnamed_addr #3 !dbg !1301 {
start:
  %_3 = load ptr, ptr %self, align 8, !dbg !1302, !nonnull !16, !align !483, !noundef !16
  %0 = getelementptr i8, ptr %_3, i64 8, !dbg !1303
  %_3.val = load ptr, ptr %0, align 8, !dbg !1303, !nonnull !16, !noundef !16
  %1 = getelementptr i8, ptr %_3, i64 16, !dbg !1303
  %_3.val1 = load i64, ptr %1, align 8, !dbg !1303, !noundef !16
; call <alloc::vec::Vec<T,A> as core::fmt::Debug>::fmt
  %_0 = call fastcc zeroext i1 @"_ZN65_$LT$alloc..vec..Vec$LT$T$C$A$GT$$u20$as$u20$core..fmt..Debug$GT$3fmt17h7ee0e2e94f178b3cE"(ptr %_3.val, i64 %_3.val1, ptr align 8 %f) #29, !dbg !1303
  ret i1 %_0, !dbg !1304
}

; <&T as core::fmt::Debug>::fmt
; Function Attrs: nounwind nonlazybind
define internal zeroext i1 @"_ZN42_$LT$$RF$T$u20$as$u20$core..fmt..Debug$GT$3fmt17hb3fdab835ca8350dE"(ptr nocapture readonly align 8 %self, ptr align 8 %f) unnamed_addr #3 !dbg !1305 {
start:
  %_3 = load ptr, ptr %self, align 8, !dbg !1306, !nonnull !16, !align !1307, !noundef !16
; call core::fmt::num::<impl core::fmt::Debug for i32>::fmt
  %_0 = call fastcc zeroext i1 @"_ZN4core3fmt3num50_$LT$impl$u20$core..fmt..Debug$u20$for$u20$i32$GT$3fmt17hae2c519510c241deE"(ptr align 4 %_3, ptr align 8 %f) #29, !dbg !1308
  ret i1 %_0, !dbg !1309
}

; <&A as core::alloc::Allocator>::deallocate
; Function Attrs: inlinehint nounwind nonlazybind
define internal fastcc void @"_ZN48_$LT$$RF$A$u20$as$u20$core..alloc..Allocator$GT$10deallocate17haf5becb89e536b27E"(ptr %ptr, i64 %layout.0, i64 %layout.1) unnamed_addr #1 !dbg !1310 {
start:
; call <alloc::alloc::Global as core::alloc::Allocator>::deallocate
  call fastcc void @"_ZN63_$LT$alloc..alloc..Global$u20$as$u20$core..alloc..Allocator$GT$10deallocate17hd3acf073eca4c5d1E"(ptr %ptr, i64 %layout.0, i64 %layout.1) #29, !dbg !1313
  ret void, !dbg !1315
}

; <[T] as core::fmt::Debug>::fmt
; Function Attrs: nounwind nonlazybind
define internal fastcc zeroext i1 @"_ZN48_$LT$$u5b$T$u5d$$u20$as$u20$core..fmt..Debug$GT$3fmt17hed2fc67c4f4a54fbE"(ptr align 1 %self.0, i64 %self.1, ptr align 8 %f) unnamed_addr #3 !dbg !1316 {
start:
  %_12 = alloca ptr, align 8
  %end_or_len = alloca ptr, align 8
  %_6 = alloca { ptr, ptr }, align 8
  %_5 = alloca %"core::fmt::builders::DebugList<'_, '_>", align 8
; call core::fmt::Formatter::debug_list
  call void @_ZN4core3fmt9Formatter10debug_list17h1616b9a56f5bf339E(ptr sret(%"core::fmt::builders::DebugList<'_, '_>") align 8 %_5, ptr align 8 %f) #29, !dbg !1318
  %i = getelementptr inbounds i8, ptr %self.0, i64 %self.1, !dbg !1319
  store ptr %i, ptr %end_or_len, align 8, !dbg !1319
  store ptr %self.0, ptr %_12, align 8, !dbg !1337
  store ptr %self.0, ptr %_6, align 8, !dbg !1343
  %i2 = getelementptr inbounds { ptr, ptr }, ptr %_6, i32 0, i32 1, !dbg !1343
  store ptr %i, ptr %i2, align 8, !dbg !1343
; call core::fmt::builders::DebugList::entries
  %_3 = call fastcc align 8 ptr @_ZN4core3fmt8builders9DebugList7entries17hb2f323cd98f9297cE(ptr align 8 %_5, ptr %self.0, ptr %i) #29, !dbg !1318
; call core::fmt::builders::DebugList::finish
  %_0 = call zeroext i1 @_ZN4core3fmt8builders9DebugList6finish17hadbed7078d8807f7E(ptr align 8 %_3) #29, !dbg !1318
  ret i1 %_0, !dbg !1344
}

; core::ffi::c_str::CStr::as_ptr
; Function Attrs: inlinehint mustprogress nofree norecurse nosync nounwind nonlazybind willreturn memory(none)
define internal fastcc ptr @_ZN4core3ffi5c_str4CStr6as_ptr17h7f31b99b648d2234E(ptr readnone returned align 1 %self.0, i64 %self.1) unnamed_addr #5 !dbg !1345 {
start:
  ret ptr %self.0, !dbg !1350
}

; core::fmt::num::<impl core::fmt::Debug for u8>::fmt
; Function Attrs: inlinehint nounwind nonlazybind
define internal fastcc zeroext i1 @"_ZN4core3fmt3num49_$LT$impl$u20$core..fmt..Debug$u20$for$u20$u8$GT$3fmt17h4b7c75634f87422aE"(ptr align 1 %self, ptr align 8 %f) unnamed_addr #1 !dbg !1351 {
start:
  %_0 = alloca i8, align 1
  %i = getelementptr inbounds %"core::fmt::Formatter<'_>", ptr %f, i32 0, i32 4, !dbg !1355
  %_4 = load i32, ptr %i, align 4, !dbg !1355, !noundef !16
  %_3 = and i32 %_4, 16, !dbg !1355
  %i1 = icmp ne i32 %_3, 0, !dbg !1360
  br i1 %i1, label %bb1, label %Flow14, !dbg !1360

Flow14:                                           ; preds = %bb1, %start
  %0 = phi i1 [ %i4, %bb1 ], [ undef, %start ]
  %1 = phi i1 [ false, %bb1 ], [ true, %start ], !dbg !1360
  br i1 %1, label %bb2, label %bb5, !dbg !1360

bb2:                                              ; preds = %Flow14
  %_5 = and i32 %_4, 32, !dbg !1361
  %i3 = icmp ne i32 %_5, 0, !dbg !1365
  br i1 %i3, label %bb3, label %Flow, !dbg !1365

bb1:                                              ; preds = %start
; call core::fmt::num::<impl core::fmt::LowerHex for u8>::fmt
  %i4 = call zeroext i1 @"_ZN4core3fmt3num52_$LT$impl$u20$core..fmt..LowerHex$u20$for$u20$u8$GT$3fmt17hf9f952c6b540cee3E"(ptr align 1 %self, ptr align 8 %f) #29, !dbg !1366
  %i5 = zext i1 %i4 to i8, !dbg !1366
  store i8 %i5, ptr %_0, align 1, !dbg !1366
  br label %Flow14, !dbg !1366

Flow:                                             ; preds = %bb3, %bb2
  %2 = phi i1 [ %i8, %bb3 ], [ undef, %bb2 ]
  %3 = phi i1 [ false, %bb3 ], [ true, %bb2 ], !dbg !1365
  br i1 %3, label %bb4, label %Flow13, !dbg !1365

bb4:                                              ; preds = %Flow
; call core::fmt::num::imp::<impl core::fmt::Display for u8>::fmt
  %i6 = call zeroext i1 @"_ZN4core3fmt3num3imp51_$LT$impl$u20$core..fmt..Display$u20$for$u20$u8$GT$3fmt17h3d4d19436d6d837dE"(ptr align 1 %self, ptr align 8 %f) #29, !dbg !1367
  %i7 = zext i1 %i6 to i8, !dbg !1367
  store i8 %i7, ptr %_0, align 1, !dbg !1367
  br label %Flow13, !dbg !1367

bb3:                                              ; preds = %bb2
; call core::fmt::num::<impl core::fmt::UpperHex for u8>::fmt
  %i8 = call zeroext i1 @"_ZN4core3fmt3num52_$LT$impl$u20$core..fmt..UpperHex$u20$for$u20$u8$GT$3fmt17hd83f82e68b17db74E"(ptr align 1 %self, ptr align 8 %f) #29, !dbg !1368
  %i9 = zext i1 %i8 to i8, !dbg !1368
  store i8 %i9, ptr %_0, align 1, !dbg !1368
  br label %Flow, !dbg !1368

Flow13:                                           ; preds = %bb4, %Flow
  %4 = phi i1 [ %i6, %bb4 ], [ %2, %Flow ]
  br label %bb5, !dbg !1365

bb5:                                              ; preds = %Flow14, %Flow13
  %i10 = phi i1 [ %0, %Flow14 ], [ %4, %Flow13 ], !dbg !1369
  ret i1 %i10, !dbg !1369
}

; core::fmt::num::<impl core::fmt::Debug for i32>::fmt
; Function Attrs: inlinehint nounwind nonlazybind
define internal fastcc zeroext i1 @"_ZN4core3fmt3num50_$LT$impl$u20$core..fmt..Debug$u20$for$u20$i32$GT$3fmt17hae2c519510c241deE"(ptr align 4 %self, ptr align 8 %f) unnamed_addr #1 !dbg !1370 {
start:
  %_0 = alloca i8, align 1
  %i = getelementptr inbounds %"core::fmt::Formatter<'_>", ptr %f, i32 0, i32 4, !dbg !1372
  %_4 = load i32, ptr %i, align 4, !dbg !1372, !noundef !16
  %_3 = and i32 %_4, 16, !dbg !1372
  %i1 = icmp ne i32 %_3, 0, !dbg !1376
  br i1 %i1, label %bb1, label %Flow14, !dbg !1376

Flow14:                                           ; preds = %bb1, %start
  %0 = phi i1 [ %i4, %bb1 ], [ undef, %start ]
  %1 = phi i1 [ false, %bb1 ], [ true, %start ], !dbg !1376
  br i1 %1, label %bb2, label %bb5, !dbg !1376

bb2:                                              ; preds = %Flow14
  %_5 = and i32 %_4, 32, !dbg !1377
  %i3 = icmp ne i32 %_5, 0, !dbg !1381
  br i1 %i3, label %bb3, label %Flow, !dbg !1381

bb1:                                              ; preds = %start
; call core::fmt::num::<impl core::fmt::LowerHex for i32>::fmt
  %i4 = call zeroext i1 @"_ZN4core3fmt3num53_$LT$impl$u20$core..fmt..LowerHex$u20$for$u20$i32$GT$3fmt17h8e89ccd3b870a36eE"(ptr align 4 %self, ptr align 8 %f) #29, !dbg !1382
  %i5 = zext i1 %i4 to i8, !dbg !1382
  store i8 %i5, ptr %_0, align 1, !dbg !1382
  br label %Flow14, !dbg !1382

Flow:                                             ; preds = %bb3, %bb2
  %2 = phi i1 [ %i8, %bb3 ], [ undef, %bb2 ]
  %3 = phi i1 [ false, %bb3 ], [ true, %bb2 ], !dbg !1381
  br i1 %3, label %bb4, label %Flow13, !dbg !1381

bb4:                                              ; preds = %Flow
; call core::fmt::num::imp::<impl core::fmt::Display for i32>::fmt
  %i6 = call zeroext i1 @"_ZN4core3fmt3num3imp52_$LT$impl$u20$core..fmt..Display$u20$for$u20$i32$GT$3fmt17hc9733ab76fb3c52cE"(ptr align 4 %self, ptr align 8 %f) #29, !dbg !1383
  %i7 = zext i1 %i6 to i8, !dbg !1383
  store i8 %i7, ptr %_0, align 1, !dbg !1383
  br label %Flow13, !dbg !1383

bb3:                                              ; preds = %bb2
; call core::fmt::num::<impl core::fmt::UpperHex for i32>::fmt
  %i8 = call zeroext i1 @"_ZN4core3fmt3num53_$LT$impl$u20$core..fmt..UpperHex$u20$for$u20$i32$GT$3fmt17h891839fecf0a4aefE"(ptr align 4 %self, ptr align 8 %f) #29, !dbg !1384
  %i9 = zext i1 %i8 to i8, !dbg !1384
  store i8 %i9, ptr %_0, align 1, !dbg !1384
  br label %Flow, !dbg !1384

Flow13:                                           ; preds = %bb4, %Flow
  %4 = phi i1 [ %i6, %bb4 ], [ %2, %Flow ]
  br label %bb5, !dbg !1381

bb5:                                              ; preds = %Flow14, %Flow13
  %i10 = phi i1 [ %0, %Flow14 ], [ %4, %Flow13 ], !dbg !1385
  ret i1 %i10, !dbg !1385
}

; core::fmt::num::<impl core::fmt::Debug for usize>::fmt
; Function Attrs: inlinehint nounwind nonlazybind
define internal zeroext i1 @"_ZN4core3fmt3num52_$LT$impl$u20$core..fmt..Debug$u20$for$u20$usize$GT$3fmt17hb85cc1d6cef6a928E"(ptr align 8 %self, ptr align 8 %f) unnamed_addr #1 !dbg !1386 {
start:
  %_0 = alloca i8, align 1
  %i = getelementptr inbounds %"core::fmt::Formatter<'_>", ptr %f, i32 0, i32 4, !dbg !1388
  %_4 = load i32, ptr %i, align 4, !dbg !1388, !noundef !16
  %_3 = and i32 %_4, 16, !dbg !1388
  %i1 = icmp ne i32 %_3, 0, !dbg !1392
  br i1 %i1, label %bb1, label %Flow14, !dbg !1392

Flow14:                                           ; preds = %bb1, %start
  %0 = phi i1 [ %i4, %bb1 ], [ undef, %start ]
  %1 = phi i1 [ false, %bb1 ], [ true, %start ], !dbg !1392
  br i1 %1, label %bb2, label %bb5, !dbg !1392

bb2:                                              ; preds = %Flow14
  %_5 = and i32 %_4, 32, !dbg !1393
  %i3 = icmp ne i32 %_5, 0, !dbg !1397
  br i1 %i3, label %bb3, label %Flow, !dbg !1397

bb1:                                              ; preds = %start
; call core::fmt::num::<impl core::fmt::LowerHex for usize>::fmt
  %i4 = call zeroext i1 @"_ZN4core3fmt3num55_$LT$impl$u20$core..fmt..LowerHex$u20$for$u20$usize$GT$3fmt17h2a402146377b71d4E"(ptr align 8 %self, ptr align 8 %f) #29, !dbg !1398
  %i5 = zext i1 %i4 to i8, !dbg !1398
  store i8 %i5, ptr %_0, align 1, !dbg !1398
  br label %Flow14, !dbg !1398

Flow:                                             ; preds = %bb3, %bb2
  %2 = phi i1 [ %i8, %bb3 ], [ undef, %bb2 ]
  %3 = phi i1 [ false, %bb3 ], [ true, %bb2 ], !dbg !1397
  br i1 %3, label %bb4, label %Flow13, !dbg !1397

bb4:                                              ; preds = %Flow
; call core::fmt::num::imp::<impl core::fmt::Display for usize>::fmt
  %i6 = call zeroext i1 @"_ZN4core3fmt3num3imp54_$LT$impl$u20$core..fmt..Display$u20$for$u20$usize$GT$3fmt17h54d4af2b1bb3d966E"(ptr align 8 %self, ptr align 8 %f) #29, !dbg !1399
  %i7 = zext i1 %i6 to i8, !dbg !1399
  store i8 %i7, ptr %_0, align 1, !dbg !1399
  br label %Flow13, !dbg !1399

bb3:                                              ; preds = %bb2
; call core::fmt::num::<impl core::fmt::UpperHex for usize>::fmt
  %i8 = call zeroext i1 @"_ZN4core3fmt3num55_$LT$impl$u20$core..fmt..UpperHex$u20$for$u20$usize$GT$3fmt17hfb9868ecfefdd0c2E"(ptr align 8 %self, ptr align 8 %f) #29, !dbg !1400
  %i9 = zext i1 %i8 to i8, !dbg !1400
  store i8 %i9, ptr %_0, align 1, !dbg !1400
  br label %Flow, !dbg !1400

Flow13:                                           ; preds = %bb4, %Flow
  %4 = phi i1 [ %i6, %bb4 ], [ %2, %Flow ]
  br label %bb5, !dbg !1397

bb5:                                              ; preds = %Flow14, %Flow13
  %i10 = phi i1 [ %0, %Flow14 ], [ %4, %Flow13 ], !dbg !1401
  ret i1 %i10, !dbg !1401
}

; core::fmt::Write::write_char
; Function Attrs: nounwind nonlazybind
define internal zeroext i1 @_ZN4core3fmt5Write10write_char17hc2964ec341ed83d9E(ptr nocapture align 8 %self, i32 %c) unnamed_addr #3 !dbg !1402 {
start:
  %_6 = alloca [4 x i8], align 1
  call void @llvm.memset.p0.i64(ptr align 1 %_6, i8 0, i64 4, i1 false), !dbg !1404
; call core::char::methods::encode_utf8_raw
  %i = call fastcc { ptr, i64 } @_ZN4core4char7methods15encode_utf8_raw17hc1b006d0257fa94dE(i32 %c, ptr align 1 %_6, i64 4) #29, !dbg !1405
  %v.0 = extractvalue { ptr, i64 } %i, 0, !dbg !1405
  %v.1 = extractvalue { ptr, i64 } %i, 1, !dbg !1405
; call <std::io::Write::write_fmt::Adapter<T> as core::fmt::Write>::write_str
  %_0 = call zeroext i1 @"_ZN80_$LT$std..io..Write..write_fmt..Adapter$LT$T$GT$$u20$as$u20$core..fmt..Write$GT$9write_str17hd2fea9578d68f497E"(ptr align 8 %self, ptr align 1 %v.0, i64 %v.1) #29, !dbg !1414
  ret i1 %_0, !dbg !1415
}

; core::fmt::Write::write_fmt
; Function Attrs: nounwind nonlazybind
define internal zeroext i1 @_ZN4core3fmt5Write9write_fmt17hd7558952f98e743aE(ptr align 8 %self, ptr align 8 %args) unnamed_addr #3 !dbg !1416 {
start:
; call <&mut W as core::fmt::Write::write_fmt::SpecWriteFmt>::spec_write_fmt
  %_0 = call fastcc zeroext i1 @"_ZN75_$LT$$RF$mut$u20$W$u20$as$u20$core..fmt..Write..write_fmt..SpecWriteFmt$GT$14spec_write_fmt17h8f06b11c80c03066E"(ptr align 8 %self, ptr align 8 %args) #29, !dbg !1417
  ret i1 %_0, !dbg !1418
}

; core::fmt::builders::DebugList::entries
; Function Attrs: nounwind nonlazybind
define internal fastcc align 8 ptr @_ZN4core3fmt8builders9DebugList7entries17hb2f323cd98f9297cE(ptr returned align 8 %self, ptr %entries.0, ptr %entries.1) unnamed_addr #3 personality ptr @rust_eh_personality !dbg !1419 {
start:
  %entry = alloca ptr, align 8
  %_5 = alloca ptr, align 8
  %iter = alloca { ptr, ptr }, align 8
; call <I as core::iter::traits::collect::IntoIterator>::into_iter
  %i = call fastcc { ptr, ptr } @"_ZN63_$LT$I$u20$as$u20$core..iter..traits..collect..IntoIterator$GT$9into_iter17hfda019a1ee555c51E"(ptr %entries.0, ptr %entries.1) #29, !dbg !1423
  %_3.0 = extractvalue { ptr, ptr } %i, 0, !dbg !1423
  %_3.1 = extractvalue { ptr, ptr } %i, 1, !dbg !1423
  store ptr %_3.0, ptr %iter, align 8, !dbg !1423
  %i1 = getelementptr inbounds { ptr, ptr }, ptr %iter, i32 0, i32 1, !dbg !1423
  store ptr %_3.1, ptr %i1, align 8, !dbg !1423
  br label %bb2, !dbg !1424

bb2:                                              ; preds = %Flow, %start
; call <core::slice::iter::Iter<T> as core::iter::traits::iterator::Iterator>::next
  %i2 = call fastcc align 1 ptr @"_ZN91_$LT$core..slice..iter..Iter$LT$T$GT$$u20$as$u20$core..iter..traits..iterator..Iterator$GT$4next17hc2befa558bd2b438E"(ptr align 8 %iter) #29, !dbg !1426
  store ptr %i2, ptr %_5, align 8, !dbg !1426
  %i4 = ptrtoint ptr %i2 to i64, !dbg !1426
  %i5 = icmp ne i64 %i4, 0, !dbg !1426
  br i1 %i5, label %bb4, label %Flow, !dbg !1426

Flow:                                             ; preds = %bb4, %bb2
  %0 = phi i1 [ false, %bb4 ], [ true, %bb2 ]
  br i1 %0, label %bb6, label %bb2, !dbg !1426

bb6:                                              ; preds = %Flow
  ret ptr %self, !dbg !1427

bb4:                                              ; preds = %bb2
  store ptr %i2, ptr %entry, align 8, !dbg !1428
; call core::fmt::builders::DebugList::entry
  %_9 = call align 8 ptr @_ZN4core3fmt8builders9DebugList5entry17h2ed5a4f4153b90ddE(ptr align 8 %self, ptr align 1 %entry, ptr align 8 @vtable.4) #29, !dbg !1429
  br label %Flow, !dbg !1424
}

; core::fmt::Arguments::new_v1_formatted
; Function Attrs: inlinehint mustprogress nofree norecurse nosync nounwind nonlazybind willreturn memory(argmem: write)
define internal fastcc void @_ZN4core3fmt9Arguments16new_v1_formatted17h94ebf04632a1fb1fE(ptr noalias nocapture writeonly align 8 %_0, ptr align 8 %pieces.0, i64 %pieces.1, ptr align 8 %args.0, i64 %args.1, ptr align 8 %fmt.0, i64 %fmt.1) unnamed_addr #7 !dbg !1431 {
start:
  %_5 = alloca { ptr, i64 }, align 8
  store ptr %fmt.0, ptr %_5, align 8, !dbg !1433
  %i = getelementptr inbounds { ptr, i64 }, ptr %_5, i32 0, i32 1, !dbg !1433
  store i64 %fmt.1, ptr %i, align 8, !dbg !1433
  store ptr %pieces.0, ptr %_0, align 8, !dbg !1434
  %i1 = getelementptr inbounds { ptr, i64 }, ptr %_0, i32 0, i32 1, !dbg !1434
  store i64 %pieces.1, ptr %i1, align 8, !dbg !1434
  %i5 = getelementptr inbounds %"core::fmt::Arguments<'_>", ptr %_0, i32 0, i32 2, !dbg !1434
  store ptr %fmt.0, ptr %i5, align 8, !dbg !1434
  %i6 = getelementptr inbounds { ptr, i64 }, ptr %i5, i32 0, i32 1, !dbg !1434
  store i64 %fmt.1, ptr %i6, align 8, !dbg !1434
  %i7 = getelementptr inbounds %"core::fmt::Arguments<'_>", ptr %_0, i32 0, i32 1, !dbg !1434
  store ptr %args.0, ptr %i7, align 8, !dbg !1434
  %i8 = getelementptr inbounds { ptr, i64 }, ptr %i7, i32 0, i32 1, !dbg !1434
  store i64 %args.1, ptr %i8, align 8, !dbg !1434
  ret void, !dbg !1435
}

; core::fmt::Arguments::new_v1
; Function Attrs: inlinehint nounwind nonlazybind
define internal fastcc void @_ZN4core3fmt9Arguments6new_v117h30f75a7048ec2f69E(ptr noalias nocapture writeonly align 8 %_0, ptr align 8 %pieces.0, i64 %pieces.1, ptr align 8 %args.0, i64 %args.1) unnamed_addr #1 !dbg !1436 {
start:
  %_15 = alloca { ptr, i64 }, align 8
  %_13 = alloca { ptr, i64 }, align 8
  %_11 = alloca %"core::fmt::Arguments<'_>", align 8
  %_3 = icmp ult i64 %pieces.1, %args.1, !dbg !1437
  %_8 = add i64 %args.1, 1
  %_6 = icmp ugt i64 %pieces.1, %_8
  %or.cond = or i1 %_3, %_6, !dbg !1437
  br i1 %or.cond, label %bb3, label %bb4, !dbg !1437

bb4:                                              ; preds = %start
  store ptr null, ptr %_13, align 8, !dbg !1438
  store ptr %pieces.0, ptr %_0, align 8, !dbg !1439
  %i = getelementptr inbounds { ptr, i64 }, ptr %_0, i32 0, i32 1, !dbg !1439
  store i64 %pieces.1, ptr %i, align 8, !dbg !1439
  %i4 = getelementptr inbounds %"core::fmt::Arguments<'_>", ptr %_0, i32 0, i32 2, !dbg !1439
  store ptr null, ptr %i4, align 8, !dbg !1439
  %i5 = getelementptr inbounds { ptr, i64 }, ptr %i4, i32 0, i32 1, !dbg !1439
  store i64 undef, ptr %i5, align 8, !dbg !1439
  %i6 = getelementptr inbounds %"core::fmt::Arguments<'_>", ptr %_0, i32 0, i32 1, !dbg !1439
  store ptr %args.0, ptr %i6, align 8, !dbg !1439
  %i7 = getelementptr inbounds { ptr, i64 }, ptr %i6, i32 0, i32 1, !dbg !1439
  store i64 %args.1, ptr %i7, align 8, !dbg !1439
  ret void, !dbg !1440

bb3:                                              ; preds = %start
  store ptr null, ptr %_15, align 8, !dbg !1441
  store ptr @alloc_af99043bc04c419363a7f04d23183506, ptr %_11, align 8, !dbg !1447
  %i8 = getelementptr inbounds { ptr, i64 }, ptr %_11, i32 0, i32 1, !dbg !1447
  store i64 1, ptr %i8, align 8, !dbg !1447
  %i12 = getelementptr inbounds %"core::fmt::Arguments<'_>", ptr %_11, i32 0, i32 2, !dbg !1447
  store ptr null, ptr %i12, align 8, !dbg !1447
  %i13 = getelementptr inbounds { ptr, i64 }, ptr %i12, i32 0, i32 1, !dbg !1447
  store i64 undef, ptr %i13, align 8, !dbg !1447
  %i14 = getelementptr inbounds %"core::fmt::Arguments<'_>", ptr %_11, i32 0, i32 1, !dbg !1447
  store ptr @alloc_513570631223a12912d85da2bec3b15a, ptr %i14, align 8, !dbg !1447
  %i15 = getelementptr inbounds { ptr, i64 }, ptr %i14, i32 0, i32 1, !dbg !1447
  store i64 0, ptr %i15, align 8, !dbg !1447
; call core::panicking::panic_fmt
  call void @_ZN4core9panicking9panic_fmt17h784f20a50eaab275E(ptr align 8 %_11, ptr align 8 @alloc_5f330cd7dff757941d785f386d839300) #28, !dbg !1448
  unreachable, !dbg !1448
}

; core::ops::function::FnOnce::call_once{{vtable.shim}}
; Function Attrs: inlinehint nounwind nonlazybind
define internal i32 @"_ZN4core3ops8function6FnOnce40call_once$u7b$$u7b$vtable.shim$u7d$$u7d$17h9b1ac5b35cdaeab1E"(ptr nocapture readonly %_1) unnamed_addr #1 !dbg !1449 {
start:
  %i = load ptr, ptr %_1, align 8, !dbg !1454, !nonnull !16, !noundef !16
; call core::ops::function::FnOnce::call_once
  %_0 = call fastcc i32 @_ZN4core3ops8function6FnOnce9call_once17h8acabe7636dc4bc0E(ptr %i) #29, !dbg !1454
  ret i32 %_0, !dbg !1454
}

; core::ops::function::FnOnce::call_once{{vtable.shim}}
; Function Attrs: inlinehint nounwind nonlazybind
define internal void @"_ZN4core3ops8function6FnOnce40call_once$u7b$$u7b$vtable.shim$u7d$$u7d$17hc59e2cd603c48a05E"(ptr %_1) unnamed_addr #1 !dbg !1455 {
start:
; call std::thread::Builder::spawn_unchecked_::{{closure}}
  call fastcc void @"_ZN3std6thread7Builder16spawn_unchecked_28_$u7b$$u7b$closure$u7d$$u7d$17h74e98377b3335e67E"(ptr align 8 %_1) #29, !dbg !1456
  ret void, !dbg !1456
}

; core::ops::function::FnOnce::call_once{{vtable.shim}}
; Function Attrs: inlinehint nounwind nonlazybind
define internal void @"_ZN4core3ops8function6FnOnce40call_once$u7b$$u7b$vtable.shim$u7d$$u7d$17hfa2a89eec06de5bdE"(ptr %_1) unnamed_addr #1 !dbg !1457 {
start:
; call std::thread::Builder::spawn_unchecked_::{{closure}}
  call fastcc void @"_ZN3std6thread7Builder16spawn_unchecked_28_$u7b$$u7b$closure$u7d$$u7d$17h7b3f2eed90cb2eb5E"(ptr align 8 %_1) #29, !dbg !1458
  ret void, !dbg !1458
}

; core::ops::function::FnOnce::call_once
; Function Attrs: inlinehint nounwind nonlazybind
define internal fastcc void @_ZN4core3ops8function6FnOnce9call_once17h7b4e27fc1140926aE(ptr align 8 %arg) unnamed_addr #1 !dbg !1459 {
start:
  %_1 = alloca ptr, align 8
  store ptr %arg, ptr %_1, align 8
  %_1.val = load ptr, ptr %_1, align 8, !dbg !1460, !nonnull !16, !align !483, !noundef !16
; call <std::thread::Packet<T> as core::ops::drop::Drop>::drop::{{closure}}
  call fastcc void @"_ZN70_$LT$std..thread..Packet$LT$T$GT$$u20$as$u20$core..ops..drop..Drop$GT$4drop28_$u7b$$u7b$closure$u7d$$u7d$17h92ab65ca6c8b78a6E"(ptr %_1.val) #29, !dbg !1460
  ret void, !dbg !1460
}

; core::ops::function::FnOnce::call_once
; Function Attrs: inlinehint nounwind nonlazybind
define internal fastcc void @_ZN4core3ops8function6FnOnce9call_once17h7f2918a75723012eE(ptr nocapture readonly %_1) unnamed_addr #1 !dbg !1461 {
start:
  call void %_1() #29, !dbg !1462
  ret void, !dbg !1462
}

; core::ops::function::FnOnce::call_once
; Function Attrs: inlinehint nounwind nonlazybind
define internal fastcc i32 @_ZN4core3ops8function6FnOnce9call_once17h8acabe7636dc4bc0E(ptr %arg) unnamed_addr #1 !dbg !1463 {
start:
  %_1 = alloca ptr, align 8
  store ptr %arg, ptr %_1, align 8
; call std::rt::lang_start::{{closure}}
  %_0 = call i32 @"_ZN3std2rt10lang_start28_$u7b$$u7b$closure$u7d$$u7d$17hfc0ab7cf0ac3e043E"(ptr align 8 %_1) #29, !dbg !1464
  ret i32 %_0, !dbg !1464
}

; core::ops::function::FnOnce::call_once
; Function Attrs: inlinehint nounwind nonlazybind
define internal fastcc i64 @_ZN4core3ops8function6FnOnce9call_once17hf63b4fb42db3826aE() unnamed_addr #1 !dbg !1465 {
start:
; call std::sys_common::thread::min_stack
  %_0 = call i64 @_ZN3std10sys_common6thread9min_stack17hbc35171617379d33E() #29, !dbg !1466
  ret i64 %_0, !dbg !1466
}

; core::ptr::drop_in_place<alloc::sync::Arc<std::sync::mutex::Mutex<alloc::vec::Vec<u8>>>>
; Function Attrs: nounwind nonlazybind
define internal fastcc void @"_ZN4core3ptr101drop_in_place$LT$alloc..sync..Arc$LT$std..sync..mutex..Mutex$LT$alloc..vec..Vec$LT$u8$GT$$GT$$GT$$GT$17h17c7a41f4933544dE"(ptr align 8 %_1) unnamed_addr #3 !dbg !1467 {
start:
; call <alloc::sync::Arc<T,A> as core::ops::drop::Drop>::drop
  call fastcc void @"_ZN71_$LT$alloc..sync..Arc$LT$T$C$A$GT$$u20$as$u20$core..ops..drop..Drop$GT$4drop17h65c648b412881f08E"(ptr align 8 %_1) #29, !dbg !1468
  ret void, !dbg !1468
}

; core::ptr::drop_in_place<std::io::error::ErrorData<alloc::boxed::Box<std::io::error::Custom>>>
; Function Attrs: nounwind nonlazybind
define internal fastcc void @"_ZN4core3ptr101drop_in_place$LT$std..io..error..ErrorData$LT$alloc..boxed..Box$LT$std..io..error..Custom$GT$$GT$$GT$17h877676197a2e3e5aE"(ptr nocapture readonly align 8 %_1) unnamed_addr #3 !dbg !1469 {
start:
  br i1 undef, label %bb2, label %bb1, !dbg !1470

bb2:                                              ; preds = %start
  %i1 = getelementptr inbounds %"std::io::error::ErrorData<alloc::boxed::Box<std::io::error::Custom>>::Custom", ptr %_1, i32 0, i32 1, !dbg !1470
; call core::ptr::drop_in_place<alloc::boxed::Box<std::io::error::Custom>>
  call fastcc void @"_ZN4core3ptr68drop_in_place$LT$alloc..boxed..Box$LT$std..io..error..Custom$GT$$GT$17he48fa77f789da66aE"(ptr align 8 %i1) #29, !dbg !1470
  br label %bb1, !dbg !1470

bb1:                                              ; preds = %bb2, %start
  ret void, !dbg !1470
}

; core::ptr::drop_in_place<alloc::sync::Weak<std::thread::scoped::ScopeData,&alloc::alloc::Global>>
; Function Attrs: nounwind nonlazybind
define internal fastcc void @"_ZN4core3ptr103drop_in_place$LT$alloc..sync..Weak$LT$std..thread..scoped..ScopeData$C$$RF$alloc..alloc..Global$GT$$GT$17h5deb261c6f4bf76eE"(ptr nocapture readonly align 8 %_1) unnamed_addr #3 !dbg !1471 {
start:
; call <alloc::sync::Weak<T,A> as core::ops::drop::Drop>::drop
  call fastcc void @"_ZN72_$LT$alloc..sync..Weak$LT$T$C$A$GT$$u20$as$u20$core..ops..drop..Drop$GT$4drop17hed4936534cfa97acE"(ptr align 8 %_1) #29, !dbg !1472
  ret void, !dbg !1472
}

; core::ptr::drop_in_place<alloc::sync::Weak<std::thread::Packet<()>,&alloc::alloc::Global>>
; Function Attrs: nounwind nonlazybind
define internal fastcc void @"_ZN4core3ptr108drop_in_place$LT$alloc..sync..Weak$LT$std..thread..Packet$LT$$LP$$RP$$GT$$C$$RF$alloc..alloc..Global$GT$$GT$17hf37f8b060b403758E"(ptr nocapture readonly align 8 %_1) unnamed_addr #3 !dbg !1473 {
start:
; call <alloc::sync::Weak<T,A> as core::ops::drop::Drop>::drop
  call fastcc void @"_ZN72_$LT$alloc..sync..Weak$LT$T$C$A$GT$$u20$as$u20$core..ops..drop..Drop$GT$4drop17ha096f5ce55f468a1E"(ptr align 8 %_1) #29, !dbg !1474
  ret void, !dbg !1474
}

; core::ptr::drop_in_place<alloc::boxed::Box<dyn core::error::Error+core::marker::Send+core::marker::Sync>>
; Function Attrs: nounwind nonlazybind
define internal fastcc void @"_ZN4core3ptr118drop_in_place$LT$alloc..boxed..Box$LT$dyn$u20$core..error..Error$u2b$core..marker..Send$u2b$core..marker..Sync$GT$$GT$17hd60bd1354a9a6f9aE"(ptr nocapture readonly align 8 %_1) unnamed_addr #3 !dbg !1475 {
start:
  %_6.0 = load ptr, ptr %_1, align 8, !dbg !1476, !noundef !16
  %i = getelementptr inbounds { ptr, ptr }, ptr %_1, i32 0, i32 1, !dbg !1476
  %_6.1 = load ptr, ptr %i, align 8, !dbg !1476, !nonnull !16, !align !483, !noundef !16
  %i1 = load ptr, ptr %_6.1, align 8, !dbg !1476, !invariant.load !16, !nonnull !16
  call void %i1(ptr align 1 %_6.0) #29, !dbg !1476
  %_1.val = load ptr, ptr %_1, align 8, !dbg !1476, !nonnull !16, !noundef !16
  %0 = getelementptr i8, ptr %_1, i64 8, !dbg !1476
  %_1.val2 = load ptr, ptr %0, align 8, !dbg !1476, !nonnull !16, !align !483, !noundef !16
; call <alloc::boxed::Box<T,A> as core::ops::drop::Drop>::drop
  call fastcc void @"_ZN72_$LT$alloc..boxed..Box$LT$T$C$A$GT$$u20$as$u20$core..ops..drop..Drop$GT$4drop17h8e6768716c13844eE"(ptr %_1.val, ptr %_1.val2) #29, !dbg !1476
  ret void, !dbg !1476
}

; core::ptr::drop_in_place<std::thread::Builder::spawn_unchecked_::MaybeDangling<RUSTSEC_2020_0159::main::{{closure}}>>
; Function Attrs: mustprogress nofree norecurse nosync nounwind nonlazybind willreturn memory(none)
define internal fastcc void @"_ZN4core3ptr134drop_in_place$LT$std..thread..Builder..spawn_unchecked_..MaybeDangling$LT$RUSTSEC_2020_0159..main..$u7b$$u7b$closure$u7d$$u7d$$GT$$GT$17h85fa8bb2d90286b8E"(ptr nocapture align 1 %_1) unnamed_addr #0 !dbg !1477 {
start:
  ret void, !dbg !1478
}

; core::ptr::drop_in_place<std::thread::Builder::spawn_unchecked_<RUSTSEC_2020_0159::main::{{closure}},()>::{{closure}}>
; Function Attrs: nounwind nonlazybind
define internal void @"_ZN4core3ptr159drop_in_place$LT$std..thread..Builder..spawn_unchecked_$LT$RUSTSEC_2020_0159..main..$u7b$$u7b$closure$u7d$$u7d$$C$$LP$$RP$$GT$..$u7b$$u7b$closure$u7d$$u7d$$GT$17h3beca8dcf379d12bE"(ptr align 8 %_1) unnamed_addr #3 !dbg !1479 {
start:
; call core::ptr::drop_in_place<std::thread::Thread>
  call fastcc void @"_ZN4core3ptr40drop_in_place$LT$std..thread..Thread$GT$17h1a2e51b24819ff73E"(ptr align 8 %_1) #29, !dbg !1480
  %i = getelementptr inbounds %"{closure@std::thread::Builder::spawn_unchecked_<'_, '_, {closure@data/RUSTSEC_2020_0159.rs:31:28: 31:30}, ()>::{closure#1}}", ptr %_1, i32 0, i32 2, !dbg !1480
  %i1 = load ptr, ptr %i, align 8, !dbg !1481, !noundef !16
  %i2 = ptrtoint ptr %i1 to i64, !dbg !1481
  %i3 = icmp ne i64 %i2, 0, !dbg !1481
  br i1 %i3, label %codeRepl.i, label %"_ZN4core3ptr129drop_in_place$LT$core..option..Option$LT$alloc..sync..Arc$LT$std..sync..mutex..Mutex$LT$alloc..vec..Vec$LT$u8$GT$$GT$$GT$$GT$$GT$17h05150d2e11303af0E.19.exit", !dbg !1481

codeRepl.i:                                       ; preds = %start
; call core::ptr::drop_in_place<core::option::Option<alloc::sync::Arc<std::sync::mutex::Mutex<alloc::vec::Vec<u8>>>>>.19.bb2
  call fastcc void @"_ZN4core3ptr129drop_in_place$LT$core..option..Option$LT$alloc..sync..Arc$LT$std..sync..mutex..Mutex$LT$alloc..vec..Vec$LT$u8$GT$$GT$$GT$$GT$$GT$17h05150d2e11303af0E.19.bb2"(ptr %i), !dbg !1481
  br label %"_ZN4core3ptr129drop_in_place$LT$core..option..Option$LT$alloc..sync..Arc$LT$std..sync..mutex..Mutex$LT$alloc..vec..Vec$LT$u8$GT$$GT$$GT$$GT$$GT$17h05150d2e11303af0E.19.exit"

"_ZN4core3ptr129drop_in_place$LT$core..option..Option$LT$alloc..sync..Arc$LT$std..sync..mutex..Mutex$LT$alloc..vec..Vec$LT$u8$GT$$GT$$GT$$GT$$GT$17h05150d2e11303af0E.19.exit": ; preds = %codeRepl.i, %start
  %i5 = getelementptr inbounds %"{closure@std::thread::Builder::spawn_unchecked_<'_, '_, {closure@data/RUSTSEC_2020_0159.rs:31:28: 31:30}, ()>::{closure#1}}", ptr %_1, i32 0, i32 1, !dbg !1480
; call core::ptr::drop_in_place<alloc::sync::Arc<std::thread::Packet<()>>>
  call fastcc void @"_ZN4core3ptr80drop_in_place$LT$alloc..sync..Arc$LT$std..thread..Packet$LT$$LP$$RP$$GT$$GT$$GT$17h28be71a15cc83f57E"(ptr align 8 %i5) #29, !dbg !1480
  ret void, !dbg !1480
}

; core::ptr::drop_in_place<core::cell::UnsafeCell<core::option::Option<core::result::Result<(),alloc::boxed::Box<dyn core::any::Any+core::marker::Send>>>>>
; Function Attrs: nounwind nonlazybind
define internal fastcc void @"_ZN4core3ptr188drop_in_place$LT$core..cell..UnsafeCell$LT$core..option..Option$LT$core..result..Result$LT$$LP$$RP$$C$alloc..boxed..Box$LT$dyn$u20$core..any..Any$u2b$core..marker..Send$GT$$GT$$GT$$GT$$GT$17h53bc4746fa27f760E"(ptr nocapture readonly align 8 %_1) unnamed_addr #3 !dbg !1483 {
start:
  %_2.i = load i64, ptr %_1, align 8, !dbg !1484, !range !109, !noundef !16
  %i = icmp ne i64 %_2.i, 0, !dbg !1484
  br i1 %i, label %codeRepl.i, label %"_ZN4core3ptr158drop_in_place$LT$core..option..Option$LT$core..result..Result$LT$$LP$$RP$$C$alloc..boxed..Box$LT$dyn$u20$core..any..Any$u2b$core..marker..Send$GT$$GT$$GT$$GT$17hc748219b06bece92E.17.exit", !dbg !1484

codeRepl.i:                                       ; preds = %start
; call core::ptr::drop_in_place<core::option::Option<core::result::Result<(),alloc::boxed::Box<dyn core::any::Any+core::marker::Send>>>>.17.bb2
  call fastcc void @"_ZN4core3ptr158drop_in_place$LT$core..option..Option$LT$core..result..Result$LT$$LP$$RP$$C$alloc..boxed..Box$LT$dyn$u20$core..any..Any$u2b$core..marker..Send$GT$$GT$$GT$$GT$17hc748219b06bece92E.17.bb2"(ptr %_1), !dbg !1484
  br label %"_ZN4core3ptr158drop_in_place$LT$core..option..Option$LT$core..result..Result$LT$$LP$$RP$$C$alloc..boxed..Box$LT$dyn$u20$core..any..Any$u2b$core..marker..Send$GT$$GT$$GT$$GT$17hc748219b06bece92E.17.exit"

"_ZN4core3ptr158drop_in_place$LT$core..option..Option$LT$core..result..Result$LT$$LP$$RP$$C$alloc..boxed..Box$LT$dyn$u20$core..any..Any$u2b$core..marker..Send$GT$$GT$$GT$$GT$17hc748219b06bece92E.17.exit": ; preds = %codeRepl.i, %start
  ret void, !dbg !1486
}

; core::ptr::drop_in_place<usize>
; Function Attrs: inlinehint mustprogress nofree norecurse nosync nounwind nonlazybind willreturn memory(none)
define internal void @"_ZN4core3ptr26drop_in_place$LT$usize$GT$17h6ef62bcffd42ffdaE"(ptr nocapture align 8 %_1) unnamed_addr #5 !dbg !1487 {
start:
  ret void, !dbg !1488
}

; core::ptr::drop_in_place<std::thread::Thread>
; Function Attrs: nounwind nonlazybind
define internal fastcc void @"_ZN4core3ptr40drop_in_place$LT$std..thread..Thread$GT$17h1a2e51b24819ff73E"(ptr align 8 %_1) unnamed_addr #3 !dbg !1489 {
start:
; call core::ptr::drop_in_place<core::pin::Pin<alloc::sync::Arc<std::thread::Inner>>>
  call fastcc void @"_ZN4core3ptr85drop_in_place$LT$core..pin..Pin$LT$alloc..sync..Arc$LT$std..thread..Inner$GT$$GT$$GT$17hb4bcf188d7e0e977E"(ptr align 8 %_1) #29, !dbg !1490
  ret void, !dbg !1490
}

; core::ptr::drop_in_place<std::io::error::Error>
; Function Attrs: nounwind nonlazybind
define internal void @"_ZN4core3ptr42drop_in_place$LT$std..io..error..Error$GT$17h73a7c5e879c4c70eE"(ptr nocapture readonly align 8 %_1) unnamed_addr #3 !dbg !1491 {
start:
  %_1.val = load ptr, ptr %_1, align 8, !dbg !1492, !nonnull !16, !noundef !16
; call core::ptr::drop_in_place<std::io::error::repr_bitpacked::Repr>
  call fastcc void @"_ZN4core3ptr57drop_in_place$LT$std..io..error..repr_bitpacked..Repr$GT$17h4ed01642df2c17f1E"(ptr %_1.val) #29, !dbg !1492
  ret void, !dbg !1492
}

; core::ptr::drop_in_place<std::io::error::Custom>
; Function Attrs: nounwind nonlazybind
define internal fastcc void @"_ZN4core3ptr43drop_in_place$LT$std..io..error..Custom$GT$17h3883adca341d5e16E"(ptr nocapture readonly align 8 %_1) unnamed_addr #3 !dbg !1493 {
start:
; call core::ptr::drop_in_place<alloc::boxed::Box<dyn core::error::Error+core::marker::Send+core::marker::Sync>>
  call fastcc void @"_ZN4core3ptr118drop_in_place$LT$alloc..boxed..Box$LT$dyn$u20$core..error..Error$u2b$core..marker..Send$u2b$core..marker..Sync$GT$$GT$17hd60bd1354a9a6f9aE"(ptr align 8 %_1) #29, !dbg !1494
  ret void, !dbg !1494
}

; core::ptr::drop_in_place<alloc::ffi::c_str::CString>
; Function Attrs: nounwind nonlazybind
define internal fastcc void @"_ZN4core3ptr47drop_in_place$LT$alloc..ffi..c_str..CString$GT$17h65a7d8220b141eb0E"(ptr nocapture readonly align 8 %_1) unnamed_addr #3 !dbg !1495 {
start:
  %_1.val = load ptr, ptr %_1, align 8, !dbg !1496, !nonnull !16, !align !582, !noundef !16
; call <alloc::ffi::c_str::CString as core::ops::drop::Drop>::drop
  call fastcc void @"_ZN68_$LT$alloc..ffi..c_str..CString$u20$as$u20$core..ops..drop..Drop$GT$4drop17h7eac1aafb64cfe63E"(ptr %_1.val) #29, !dbg !1496
  %_1.val1 = load ptr, ptr %_1, align 8, !dbg !1496, !nonnull !16, !noundef !16
  %0 = getelementptr i8, ptr %_1, i64 8, !dbg !1496
  %_1.val2 = load i64, ptr %0, align 8, !dbg !1496, !noundef !16
; call core::ptr::drop_in_place<alloc::boxed::Box<[u8]>>
  call fastcc void @"_ZN4core3ptr58drop_in_place$LT$alloc..boxed..Box$LT$$u5b$u8$u5d$$GT$$GT$17h6dfe61fbd5d049a3E"(ptr %_1.val1, i64 %_1.val2) #29, !dbg !1496
  ret void, !dbg !1496
}

; core::ptr::drop_in_place<alloc::ffi::c_str::NulError>
; Function Attrs: nounwind nonlazybind
define internal void @"_ZN4core3ptr48drop_in_place$LT$alloc..ffi..c_str..NulError$GT$17h236ed01cde6f9923E"(ptr nocapture readonly align 8 %_1) unnamed_addr #3 !dbg !1497 {
start:
  %_2.i.i.i = alloca %"core::option::Option<(core::ptr::non_null::NonNull<u8>, core::alloc::layout::Layout)>", align 8
  call void @llvm.lifetime.start.p0(i64 24, ptr %_2.i.i.i), !dbg !1498
; call alloc::raw_vec::RawVec<T,A>::current_memory
  call fastcc void @"_ZN5alloc7raw_vec19RawVec$LT$T$C$A$GT$14current_memory17hcc08feaa0ad931eeE"(ptr noalias align 8 %_2.i.i.i, ptr align 8 %_1) #29, !dbg !1498
  %i = getelementptr inbounds %"core::option::Option<(core::ptr::non_null::NonNull<u8>, core::alloc::layout::Layout)>", ptr %_2.i.i.i, i32 0, i32 1, !dbg !1509
  %i1 = load i64, ptr %i, align 8, !dbg !1509, !range !700, !noundef !16
  %i2 = icmp eq i64 %i1, 0, !dbg !1509
  %_4.i.i.i = select i1 %i2, i64 0, i64 1, !dbg !1509
  %i3 = icmp eq i64 %_4.i.i.i, 1, !dbg !1509
  br i1 %i3, label %codeRepl.i, label %"_ZN4core3ptr46drop_in_place$LT$alloc..vec..Vec$LT$u8$GT$$GT$17h275e4b0fe2e6a17cE.14.exit", !dbg !1509

codeRepl.i:                                       ; preds = %start
; call core::ptr::drop_in_place<alloc::vec::Vec<u8>>.14.codeRepl.i
  call fastcc void @"_ZN4core3ptr46drop_in_place$LT$alloc..vec..Vec$LT$u8$GT$$GT$17h275e4b0fe2e6a17cE.14.codeRepl.i"(ptr %_2.i.i.i), !dbg !1510
  br label %"_ZN4core3ptr46drop_in_place$LT$alloc..vec..Vec$LT$u8$GT$$GT$17h275e4b0fe2e6a17cE.14.exit"

"_ZN4core3ptr46drop_in_place$LT$alloc..vec..Vec$LT$u8$GT$$GT$17h275e4b0fe2e6a17cE.14.exit": ; preds = %codeRepl.i, %start
  call void @llvm.lifetime.end.p0(i64 24, ptr %_2.i.i.i), !dbg !1511
  ret void, !dbg !1512
}

; core::ptr::drop_in_place<std::thread::scoped::ScopeData>
; Function Attrs: nounwind nonlazybind
define internal fastcc void @"_ZN4core3ptr51drop_in_place$LT$std..thread..scoped..ScopeData$GT$17h5d11e48d2e4be4a6E"(ptr align 8 %_1) unnamed_addr #3 !dbg !1513 {
start:
; call core::ptr::drop_in_place<std::thread::Thread>
  call fastcc void @"_ZN4core3ptr40drop_in_place$LT$std..thread..Thread$GT$17h1a2e51b24819ff73E"(ptr align 8 %_1) #29, !dbg !1514
  ret void, !dbg !1514
}

; core::ptr::drop_in_place<std::thread::Packet<()>>
; Function Attrs: nounwind nonlazybind
define internal fastcc void @"_ZN4core3ptr56drop_in_place$LT$std..thread..Packet$LT$$LP$$RP$$GT$$GT$17hd87058fe370f9ee8E"(ptr align 8 %_1) unnamed_addr #3 !dbg !1515 {
start:
; call <std::thread::Packet<T> as core::ops::drop::Drop>::drop
  call fastcc void @"_ZN70_$LT$std..thread..Packet$LT$T$GT$$u20$as$u20$core..ops..drop..Drop$GT$4drop17he74ea5c0c2b7e4b3E"(ptr align 8 %_1) #29, !dbg !1516
  %i = load ptr, ptr %_1, align 8, !dbg !1517, !noundef !16
  %i1 = ptrtoint ptr %i to i64, !dbg !1517
  %i2 = icmp ne i64 %i1, 0, !dbg !1517
  br i1 %i2, label %codeRepl.i, label %"_ZN4core3ptr103drop_in_place$LT$core..option..Option$LT$alloc..sync..Arc$LT$std..thread..scoped..ScopeData$GT$$GT$$GT$17hbac6f01ec1103931E.20.exit", !dbg !1517

codeRepl.i:                                       ; preds = %start
; call core::ptr::drop_in_place<core::option::Option<alloc::sync::Arc<std::thread::scoped::ScopeData>>>.20.bb2
  call fastcc void @"_ZN4core3ptr103drop_in_place$LT$core..option..Option$LT$alloc..sync..Arc$LT$std..thread..scoped..ScopeData$GT$$GT$$GT$17hbac6f01ec1103931E.20.bb2"(ptr %_1), !dbg !1517
  br label %"_ZN4core3ptr103drop_in_place$LT$core..option..Option$LT$alloc..sync..Arc$LT$std..thread..scoped..ScopeData$GT$$GT$$GT$17hbac6f01ec1103931E.20.exit"

"_ZN4core3ptr103drop_in_place$LT$core..option..Option$LT$alloc..sync..Arc$LT$std..thread..scoped..ScopeData$GT$$GT$$GT$17hbac6f01ec1103931E.20.exit": ; preds = %codeRepl.i, %start
  %i3 = getelementptr inbounds %"std::thread::Packet<'_, ()>", ptr %_1, i32 0, i32 1, !dbg !1516
; call core::ptr::drop_in_place<core::cell::UnsafeCell<core::option::Option<core::result::Result<(),alloc::boxed::Box<dyn core::any::Any+core::marker::Send>>>>>
  call fastcc void @"_ZN4core3ptr188drop_in_place$LT$core..cell..UnsafeCell$LT$core..option..Option$LT$core..result..Result$LT$$LP$$RP$$C$alloc..boxed..Box$LT$dyn$u20$core..any..Any$u2b$core..marker..Send$GT$$GT$$GT$$GT$$GT$17h53bc4746fa27f760E"(ptr align 8 %i3) #29, !dbg !1516
  ret void, !dbg !1516
}

; core::ptr::drop_in_place<std::io::error::repr_bitpacked::Repr>
; Function Attrs: nounwind nonlazybind
define internal fastcc void @"_ZN4core3ptr57drop_in_place$LT$std..io..error..repr_bitpacked..Repr$GT$17h4ed01642df2c17f1E"(ptr %_1.0.val) unnamed_addr #3 !dbg !1520 {
start:
  %0 = icmp ne ptr %_1.0.val, null
  call void @llvm.assume(i1 %0)
; call <std::io::error::repr_bitpacked::Repr as core::ops::drop::Drop>::drop
  call fastcc void @"_ZN78_$LT$std..io..error..repr_bitpacked..Repr$u20$as$u20$core..ops..drop..Drop$GT$4drop17h884f0c73e2182be3E"(ptr %_1.0.val) #29, !dbg !1521
  ret void, !dbg !1521
}

; core::ptr::drop_in_place<alloc::boxed::Box<[u8]>>
; Function Attrs: nounwind nonlazybind
define internal fastcc void @"_ZN4core3ptr58drop_in_place$LT$alloc..boxed..Box$LT$$u5b$u8$u5d$$GT$$GT$17h6dfe61fbd5d049a3E"(ptr %_1.0.val, i64 %_1.8.val) unnamed_addr #3 !dbg !1522 {
start:
  %0 = icmp ne ptr %_1.0.val, null
  call void @llvm.assume(i1 %0)
; call <alloc::boxed::Box<T,A> as core::ops::drop::Drop>::drop
  call fastcc void @"_ZN72_$LT$alloc..boxed..Box$LT$T$C$A$GT$$u20$as$u20$core..ops..drop..Drop$GT$4drop17h0014416b320abb0cE"(ptr %_1.0.val, i64 %_1.8.val) #29, !dbg !1523
  ret void, !dbg !1523
}

; core::ptr::drop_in_place<alloc::sync::Arc<std::thread::Inner>>
; Function Attrs: nounwind nonlazybind
define internal fastcc void @"_ZN4core3ptr63drop_in_place$LT$alloc..sync..Arc$LT$std..thread..Inner$GT$$GT$17hf4384de3c5514643E"(ptr align 8 %_1) unnamed_addr #3 !dbg !1524 {
start:
; call <alloc::sync::Arc<T,A> as core::ops::drop::Drop>::drop
  call fastcc void @"_ZN71_$LT$alloc..sync..Arc$LT$T$C$A$GT$$u20$as$u20$core..ops..drop..Drop$GT$4drop17hc4b6dc9260fda413E"(ptr align 8 %_1) #29, !dbg !1525
  ret void, !dbg !1525
}

; core::ptr::drop_in_place<alloc::boxed::Box<std::io::error::Custom>>
; Function Attrs: nounwind nonlazybind
define internal fastcc void @"_ZN4core3ptr68drop_in_place$LT$alloc..boxed..Box$LT$std..io..error..Custom$GT$$GT$17he48fa77f789da66aE"(ptr nocapture readonly align 8 %_1) unnamed_addr #3 !dbg !1526 {
start:
  %_6 = load ptr, ptr %_1, align 8, !dbg !1527, !noundef !16
; call core::ptr::drop_in_place<std::io::error::Custom>
  call fastcc void @"_ZN4core3ptr43drop_in_place$LT$std..io..error..Custom$GT$17h3883adca341d5e16E"(ptr align 8 %_6) #29, !dbg !1527
  %_1.val = load ptr, ptr %_1, align 8, !dbg !1527, !nonnull !16, !noundef !16
; call <alloc::boxed::Box<T,A> as core::ops::drop::Drop>::drop
  call fastcc void @"_ZN72_$LT$alloc..boxed..Box$LT$T$C$A$GT$$u20$as$u20$core..ops..drop..Drop$GT$4drop17h107c36266decdcc3E"(ptr %_1.val) #29, !dbg !1527
  ret void, !dbg !1527
}

; core::ptr::drop_in_place<alloc::sync::Arc<std::thread::scoped::ScopeData>>
; Function Attrs: nounwind nonlazybind
define internal fastcc void @"_ZN4core3ptr75drop_in_place$LT$alloc..sync..Arc$LT$std..thread..scoped..ScopeData$GT$$GT$17h7fef4cd01fdf2b30E"(ptr align 8 %_1) unnamed_addr #3 !dbg !1528 {
start:
; call <alloc::sync::Arc<T,A> as core::ops::drop::Drop>::drop
  call fastcc void @"_ZN71_$LT$alloc..sync..Arc$LT$T$C$A$GT$$u20$as$u20$core..ops..drop..Drop$GT$4drop17h4694c991c6e61788E"(ptr align 8 %_1) #29, !dbg !1529
  ret void, !dbg !1529
}

; core::ptr::drop_in_place<core::cell::UnsafeCell<alloc::vec::Vec<u8>>>
; Function Attrs: nounwind nonlazybind
define internal fastcc void @"_ZN4core3ptr76drop_in_place$LT$core..cell..UnsafeCell$LT$alloc..vec..Vec$LT$u8$GT$$GT$$GT$17h59436d8817ed988aE"(ptr nocapture readonly align 8 %_1) unnamed_addr #3 !dbg !1530 {
start:
  %_2.i.i.i = alloca %"core::option::Option<(core::ptr::non_null::NonNull<u8>, core::alloc::layout::Layout)>", align 8
  call void @llvm.lifetime.start.p0(i64 24, ptr %_2.i.i.i), !dbg !1531
; call alloc::raw_vec::RawVec<T,A>::current_memory
  call fastcc void @"_ZN5alloc7raw_vec19RawVec$LT$T$C$A$GT$14current_memory17hcc08feaa0ad931eeE"(ptr noalias align 8 %_2.i.i.i, ptr align 8 %_1) #29, !dbg !1531
  %i = getelementptr inbounds %"core::option::Option<(core::ptr::non_null::NonNull<u8>, core::alloc::layout::Layout)>", ptr %_2.i.i.i, i32 0, i32 1, !dbg !1535
  %i1 = load i64, ptr %i, align 8, !dbg !1535, !range !700, !noundef !16
  %i2 = icmp eq i64 %i1, 0, !dbg !1535
  %_4.i.i.i = select i1 %i2, i64 0, i64 1, !dbg !1535
  %i3 = icmp eq i64 %_4.i.i.i, 1, !dbg !1535
  br i1 %i3, label %codeRepl.i, label %"_ZN4core3ptr46drop_in_place$LT$alloc..vec..Vec$LT$u8$GT$$GT$17h275e4b0fe2e6a17cE.14.exit", !dbg !1535

codeRepl.i:                                       ; preds = %start
; call core::ptr::drop_in_place<alloc::vec::Vec<u8>>.14.codeRepl.i
  call fastcc void @"_ZN4core3ptr46drop_in_place$LT$alloc..vec..Vec$LT$u8$GT$$GT$17h275e4b0fe2e6a17cE.14.codeRepl.i"(ptr %_2.i.i.i), !dbg !1536
  br label %"_ZN4core3ptr46drop_in_place$LT$alloc..vec..Vec$LT$u8$GT$$GT$17h275e4b0fe2e6a17cE.14.exit"

"_ZN4core3ptr46drop_in_place$LT$alloc..vec..Vec$LT$u8$GT$$GT$17h275e4b0fe2e6a17cE.14.exit": ; preds = %codeRepl.i, %start
  call void @llvm.lifetime.end.p0(i64 24, ptr %_2.i.i.i), !dbg !1537
  ret void, !dbg !1538
}

; core::ptr::drop_in_place<std::sync::mutex::Mutex<alloc::vec::Vec<u8>>>
; Function Attrs: nounwind nonlazybind
define internal fastcc void @"_ZN4core3ptr77drop_in_place$LT$std..sync..mutex..Mutex$LT$alloc..vec..Vec$LT$u8$GT$$GT$$GT$17h5124281c89c3705fE"(ptr nocapture readonly align 8 %_1) unnamed_addr #3 !dbg !1539 {
start:
  %i = getelementptr inbounds %"std::sync::mutex::Mutex<alloc::vec::Vec<u8>>", ptr %_1, i32 0, i32 3, !dbg !1540
; call core::ptr::drop_in_place<core::cell::UnsafeCell<alloc::vec::Vec<u8>>>
  call fastcc void @"_ZN4core3ptr76drop_in_place$LT$core..cell..UnsafeCell$LT$alloc..vec..Vec$LT$u8$GT$$GT$$GT$17h59436d8817ed988aE"(ptr align 8 %i) #29, !dbg !1540
  ret void, !dbg !1540
}

; core::ptr::drop_in_place<alloc::sync::Arc<std::thread::Packet<()>>>
; Function Attrs: nounwind nonlazybind
define internal fastcc void @"_ZN4core3ptr80drop_in_place$LT$alloc..sync..Arc$LT$std..thread..Packet$LT$$LP$$RP$$GT$$GT$$GT$17h28be71a15cc83f57E"(ptr align 8 %_1) unnamed_addr #3 !dbg !1541 {
start:
; call <alloc::sync::Arc<T,A> as core::ops::drop::Drop>::drop
  call fastcc void @"_ZN71_$LT$alloc..sync..Arc$LT$T$C$A$GT$$u20$as$u20$core..ops..drop..Drop$GT$4drop17h6a6059d9c42dc319E"(ptr align 8 %_1) #29, !dbg !1542
  ret void, !dbg !1542
}

; core::ptr::drop_in_place<core::pin::Pin<alloc::sync::Arc<std::thread::Inner>>>
; Function Attrs: nounwind nonlazybind
define internal fastcc void @"_ZN4core3ptr85drop_in_place$LT$core..pin..Pin$LT$alloc..sync..Arc$LT$std..thread..Inner$GT$$GT$$GT$17hb4bcf188d7e0e977E"(ptr align 8 %_1) unnamed_addr #3 !dbg !1543 {
start:
; call core::ptr::drop_in_place<alloc::sync::Arc<std::thread::Inner>>
  call fastcc void @"_ZN4core3ptr63drop_in_place$LT$alloc..sync..Arc$LT$std..thread..Inner$GT$$GT$17hf4384de3c5514643E"(ptr align 8 %_1) #29, !dbg !1544
  ret void, !dbg !1544
}

; core::ptr::drop_in_place<alloc::boxed::Box<dyn core::any::Any+core::marker::Send>>
; Function Attrs: nounwind nonlazybind
define internal void @"_ZN4core3ptr91drop_in_place$LT$alloc..boxed..Box$LT$dyn$u20$core..any..Any$u2b$core..marker..Send$GT$$GT$17h87c6624e6a6c01e5E"(ptr nocapture readonly align 8 %_1) unnamed_addr #3 !dbg !1545 {
start:
  %_6.0 = load ptr, ptr %_1, align 8, !dbg !1546, !noundef !16
  %i = getelementptr inbounds { ptr, ptr }, ptr %_1, i32 0, i32 1, !dbg !1546
  %_6.1 = load ptr, ptr %i, align 8, !dbg !1546, !nonnull !16, !align !483, !noundef !16
  %i1 = load ptr, ptr %_6.1, align 8, !dbg !1546, !invariant.load !16, !nonnull !16
  call void %i1(ptr align 1 %_6.0) #29, !dbg !1546
  %_1.val = load ptr, ptr %_1, align 8, !dbg !1546, !nonnull !16, !noundef !16
  %0 = getelementptr i8, ptr %_1, i64 8, !dbg !1546
  %_1.val2 = load ptr, ptr %0, align 8, !dbg !1546, !nonnull !16, !align !483, !noundef !16
; call <alloc::boxed::Box<T,A> as core::ops::drop::Drop>::drop
  call fastcc void @"_ZN72_$LT$alloc..boxed..Box$LT$T$C$A$GT$$u20$as$u20$core..ops..drop..Drop$GT$4drop17h8e6768716c13844eE"(ptr %_1.val, ptr %_1.val2) #29, !dbg !1546
  ret void, !dbg !1546
}

; core::ptr::drop_in_place<std::io::Write::write_fmt::Adapter<std::sys::unix::stdio::Stderr>>
; Function Attrs: nounwind nonlazybind
define internal void @"_ZN4core3ptr92drop_in_place$LT$std..io..Write..write_fmt..Adapter$LT$std..sys..unix..stdio..Stderr$GT$$GT$17h024882fad083b3d7E"(ptr nocapture readonly align 8 %_1) unnamed_addr #3 !dbg !1547 {
start:
  %i = getelementptr inbounds { ptr, ptr }, ptr %_1, i32 0, i32 1, !dbg !1548
  %i1 = load ptr, ptr %i, align 8, !dbg !1549, !noundef !16
  %i2 = ptrtoint ptr %i1 to i64, !dbg !1549
  %i3 = icmp ne i64 %i2, 0, !dbg !1549
  br i1 %i3, label %codeRepl.i, label %"_ZN4core3ptr81drop_in_place$LT$core..result..Result$LT$$LP$$RP$$C$std..io..error..Error$GT$$GT$17hac28bd6a75d778ebE.10.exit", !dbg !1549

codeRepl.i:                                       ; preds = %start
; call core::ptr::drop_in_place<core::result::Result<(),std::io::error::Error>>.10.bb2
  call fastcc void @"_ZN4core3ptr81drop_in_place$LT$core..result..Result$LT$$LP$$RP$$C$std..io..error..Error$GT$$GT$17hac28bd6a75d778ebE.10.bb2"(ptr %i), !dbg !1549
  br label %"_ZN4core3ptr81drop_in_place$LT$core..result..Result$LT$$LP$$RP$$C$std..io..error..Error$GT$$GT$17hac28bd6a75d778ebE.10.exit"

"_ZN4core3ptr81drop_in_place$LT$core..result..Result$LT$$LP$$RP$$C$std..io..error..Error$GT$$GT$17hac28bd6a75d778ebE.10.exit": ; preds = %codeRepl.i, %start
  ret void, !dbg !1548
}

; core::char::methods::encode_utf8_raw
; Function Attrs: inlinehint nounwind nonlazybind
define internal fastcc { ptr, i64 } @_ZN4core4char7methods15encode_utf8_raw17hc1b006d0257fa94dE(i32 %arg, ptr align 1 %dst.0, i64 %dst.1) unnamed_addr #1 !dbg !1551 {
start:
  %_85 = alloca { i64, i64 }, align 8
  %_70 = alloca i64, align 8
  %_68 = alloca { ptr, ptr }, align 8
  %_66 = alloca { ptr, ptr }, align 8
  %_64 = alloca { ptr, ptr }, align 8
  %_63 = alloca [3 x { ptr, ptr }], align 8
  %_59 = alloca %"core::fmt::Arguments<'_>", align 8
  %len = alloca i64, align 8
  %code = alloca i32, align 4
  store i32 %arg, ptr %code, align 4
  %_73 = icmp uge i32 %arg, 128, !dbg !1552
  br i1 %_73, label %bb13, label %Flow49, !dbg !1552

bb13:                                             ; preds = %start
  %_74 = icmp uge i32 %arg, 2048, !dbg !1556
  br i1 %_74, label %bb15, label %Flow47, !dbg !1556

Flow49:                                           ; preds = %Flow48, %start
  %0 = phi i64 [ %6, %Flow48 ], [ undef, %start ]
  %1 = phi i1 [ false, %Flow48 ], [ true, %start ], !dbg !1552
  br i1 %1, label %bb12, label %bb20, !dbg !1552

bb12:                                             ; preds = %Flow49
  store i64 1, ptr %len, align 8, !dbg !1557
  br label %bb20, !dbg !1558

bb15:                                             ; preds = %bb13
  %_75 = icmp uge i32 %arg, 65536, !dbg !1559
  br i1 %_75, label %bb17, label %Flow, !dbg !1559

Flow47:                                           ; preds = %Flow46, %bb13
  %2 = phi i64 [ %5, %Flow46 ], [ undef, %bb13 ]
  %3 = phi i1 [ false, %Flow46 ], [ true, %bb13 ], !dbg !1556
  br i1 %3, label %bb14, label %Flow48, !dbg !1556

bb14:                                             ; preds = %Flow47
  store i64 2, ptr %len, align 8, !dbg !1560
  br label %Flow48, !dbg !1561

bb17:                                             ; preds = %bb15
  store i64 4, ptr %len, align 8, !dbg !1562
  br label %Flow, !dbg !1563

Flow:                                             ; preds = %bb17, %bb15
  %4 = phi i1 [ false, %bb17 ], [ true, %bb15 ], !dbg !1559
  br i1 %4, label %bb16, label %Flow46, !dbg !1559

bb16:                                             ; preds = %Flow
  store i64 3, ptr %len, align 8, !dbg !1564
  br label %Flow46, !dbg !1563

Flow46:                                           ; preds = %bb16, %Flow
  %5 = phi i64 [ 3, %bb16 ], [ 4, %Flow ]
  br label %Flow47, !dbg !1559

Flow48:                                           ; preds = %bb14, %Flow47
  %6 = phi i64 [ 2, %bb14 ], [ %2, %Flow47 ]
  br label %Flow49, !dbg !1556

bb20:                                             ; preds = %bb12, %Flow49
  %index = phi i64 [ %0, %Flow49 ], [ 1, %bb12 ], !dbg !1565
  switch i64 %index, label %bb2 [
    i64 1, label %bb1
    i64 2, label %bb3
    i64 3, label %bb4
    i64 4, label %bb5
  ], !dbg !1567

bb2:                                              ; preds = %bb5, %bb4, %bb3, %bb1, %bb20
  store ptr %len, ptr %_64, align 8, !dbg !1568
  %i = getelementptr inbounds { ptr, ptr }, ptr %_64, i32 0, i32 1, !dbg !1568
  store ptr @"_ZN4core3fmt3num3imp54_$LT$impl$u20$core..fmt..Display$u20$for$u20$usize$GT$3fmt17h54d4af2b1bb3d966E", ptr %i, align 8, !dbg !1568
  store ptr %code, ptr %_66, align 8, !dbg !1579
  %i8 = getelementptr inbounds { ptr, ptr }, ptr %_66, i32 0, i32 1, !dbg !1579
  store ptr @"_ZN4core3fmt3num53_$LT$impl$u20$core..fmt..UpperHex$u20$for$u20$u32$GT$3fmt17h457ee4312ccc84c1E", ptr %i8, align 8, !dbg !1579
  store i64 %dst.1, ptr %_70, align 8, !dbg !1587
  store ptr %_70, ptr %_68, align 8, !dbg !1588
  %i9 = getelementptr inbounds { ptr, ptr }, ptr %_68, i32 0, i32 1, !dbg !1588
  store ptr @"_ZN4core3fmt3num3imp54_$LT$impl$u20$core..fmt..Display$u20$for$u20$usize$GT$3fmt17h54d4af2b1bb3d966E", ptr %i9, align 8, !dbg !1588
  store ptr %len, ptr %_63, align 8, !dbg !1594
  %i13 = getelementptr inbounds { ptr, ptr }, ptr %_63, i32 0, i32 1, !dbg !1594
  store ptr @"_ZN4core3fmt3num3imp54_$LT$impl$u20$core..fmt..Display$u20$for$u20$usize$GT$3fmt17h54d4af2b1bb3d966E", ptr %i13, align 8, !dbg !1594
  %i17 = getelementptr inbounds [3 x { ptr, ptr }], ptr %_63, i64 0, i64 1, !dbg !1594
  store ptr %code, ptr %i17, align 8, !dbg !1594
  %i18 = getelementptr inbounds { ptr, ptr }, ptr %i17, i32 0, i32 1, !dbg !1594
  store ptr @"_ZN4core3fmt3num53_$LT$impl$u20$core..fmt..UpperHex$u20$for$u20$u32$GT$3fmt17h457ee4312ccc84c1E", ptr %i18, align 8, !dbg !1594
  %i22 = getelementptr inbounds [3 x { ptr, ptr }], ptr %_63, i64 0, i64 2, !dbg !1594
  store ptr %_70, ptr %i22, align 8, !dbg !1594
  %i23 = getelementptr inbounds { ptr, ptr }, ptr %i22, i32 0, i32 1, !dbg !1594
  store ptr @"_ZN4core3fmt3num3imp54_$LT$impl$u20$core..fmt..Display$u20$for$u20$usize$GT$3fmt17h54d4af2b1bb3d966E", ptr %i23, align 8, !dbg !1594
; call core::fmt::Arguments::new_v1
  call fastcc void @_ZN4core3fmt9Arguments6new_v117h30f75a7048ec2f69E(ptr noalias align 8 %_59, ptr align 8 @alloc_d51214f097f67314513b76e97e13aa6b, i64 3, ptr align 8 %_63, i64 3) #29, !dbg !1594
; call core::panicking::panic_fmt
  call void @_ZN4core9panicking9panic_fmt17h784f20a50eaab275E(ptr align 8 %_59, ptr align 8 @alloc_15e56ccbce15945ea86b75a3c6d59ec8) #28, !dbg !1594
  unreachable, !dbg !1594

bb1:                                              ; preds = %bb20
  %_7 = icmp uge i64 %dst.1, 1, !dbg !1595
  br i1 %_7, label %bb6, label %bb2, !dbg !1595

bb3:                                              ; preds = %bb20
  %_9 = icmp uge i64 %dst.1, 2, !dbg !1596
  br i1 %_9, label %bb7, label %bb2, !dbg !1596

bb4:                                              ; preds = %bb20
  %_11 = icmp uge i64 %dst.1, 3, !dbg !1597
  br i1 %_11, label %bb8, label %bb2, !dbg !1597

bb5:                                              ; preds = %bb20
  %_13 = icmp uge i64 %dst.1, 4, !dbg !1598
  br i1 %_13, label %bb9, label %bb2, !dbg !1598

bb6:                                              ; preds = %bb1
  %i24 = trunc i32 %arg to i8, !dbg !1599
  store i8 %i24, ptr %dst.0, align 1, !dbg !1599
  br label %bb11, !dbg !1601

bb11:                                             ; preds = %bb9, %bb8, %bb7, %bb6
  store i64 0, ptr %_85, align 8, !dbg !1602
  %i25 = getelementptr inbounds { i64, i64 }, ptr %_85, i32 0, i32 1, !dbg !1602
  store i64 %index, ptr %i25, align 8, !dbg !1602
; call <core::ops::range::Range<usize> as core::slice::index::SliceIndex<[T]>>::index_mut
  %i29 = call fastcc { ptr, i64 } @"_ZN106_$LT$core..ops..range..Range$LT$usize$GT$$u20$as$u20$core..slice..index..SliceIndex$LT$$u5b$T$u5d$$GT$$GT$9index_mut17h83f7501c510678dfE"(i64 0, i64 %index, ptr align 1 %dst.0, i64 %dst.1, ptr align 8 @alloc_6a0114d2661e84bef3991f7200e47da8) #29, !dbg !1602
  ret { ptr, i64 } %i29, !dbg !1611

bb7:                                              ; preds = %bb3
  %_20 = lshr i32 %arg, 6, !dbg !1612
  %_19 = and i32 %_20, 31, !dbg !1614
  %_18 = trunc i32 %_19 to i8, !dbg !1614
  %i30 = or i8 %_18, -64, !dbg !1615
  store i8 %i30, ptr %dst.0, align 1, !dbg !1615
  %_23 = and i32 %arg, 63, !dbg !1616
  %_22 = trunc i32 %_23 to i8, !dbg !1616
  %i31 = getelementptr inbounds [0 x i8], ptr %dst.0, i64 0, i64 1, !dbg !1617
  %i32 = or i8 %_22, -128, !dbg !1617
  store i8 %i32, ptr %i31, align 1, !dbg !1617
  br label %bb11, !dbg !1618

bb8:                                              ; preds = %bb4
  %_30 = lshr i32 %arg, 12, !dbg !1619
  %_29 = and i32 %_30, 15, !dbg !1621
  %_28 = trunc i32 %_29 to i8, !dbg !1621
  %i33 = or i8 %_28, -32, !dbg !1622
  store i8 %i33, ptr %dst.0, align 1, !dbg !1622
  %_34 = lshr i32 %arg, 6, !dbg !1623
  %_33 = and i32 %_34, 63, !dbg !1624
  %_32 = trunc i32 %_33 to i8, !dbg !1624
  %i34 = getelementptr inbounds [0 x i8], ptr %dst.0, i64 0, i64 1, !dbg !1625
  %i35 = or i8 %_32, -128, !dbg !1625
  store i8 %i35, ptr %i34, align 1, !dbg !1625
  %_37 = and i32 %arg, 63, !dbg !1626
  %_36 = trunc i32 %_37 to i8, !dbg !1626
  %i36 = getelementptr inbounds [0 x i8], ptr %dst.0, i64 0, i64 2, !dbg !1627
  %i37 = or i8 %_36, -128, !dbg !1627
  store i8 %i37, ptr %i36, align 1, !dbg !1627
  br label %bb11, !dbg !1628

bb9:                                              ; preds = %bb5
  %_45 = lshr i32 %arg, 18, !dbg !1629
  %_44 = and i32 %_45, 7, !dbg !1631
  %_43 = trunc i32 %_44 to i8, !dbg !1631
  %i38 = or i8 %_43, -16, !dbg !1632
  store i8 %i38, ptr %dst.0, align 1, !dbg !1632
  %_49 = lshr i32 %arg, 12, !dbg !1633
  %_48 = and i32 %_49, 63, !dbg !1634
  %_47 = trunc i32 %_48 to i8, !dbg !1634
  %i39 = getelementptr inbounds [0 x i8], ptr %dst.0, i64 0, i64 1, !dbg !1635
  %i40 = or i8 %_47, -128, !dbg !1635
  store i8 %i40, ptr %i39, align 1, !dbg !1635
  %_53 = lshr i32 %arg, 6, !dbg !1636
  %_52 = and i32 %_53, 63, !dbg !1637
  %_51 = trunc i32 %_52 to i8, !dbg !1637
  %i41 = getelementptr inbounds [0 x i8], ptr %dst.0, i64 0, i64 2, !dbg !1638
  %i42 = or i8 %_51, -128, !dbg !1638
  store i8 %i42, ptr %i41, align 1, !dbg !1638
  %_56 = and i32 %arg, 63, !dbg !1639
  %_55 = trunc i32 %_56 to i8, !dbg !1639
  %i43 = getelementptr inbounds [0 x i8], ptr %dst.0, i64 0, i64 3, !dbg !1640
  %i44 = or i8 %_55, -128, !dbg !1640
  store i8 %i44, ptr %i43, align 1, !dbg !1640
  br label %bb11, !dbg !1641
}

; core::sync::atomic::atomic_load
; Function Attrs: inlinehint nounwind nonlazybind
define internal fastcc i64 @_ZN4core4sync6atomic11atomic_load17hdd2f74c8bc3b7284E(ptr nocapture readonly %dst, i8 %arg) unnamed_addr #1 !dbg !1642 {
start:
  %_26 = alloca { ptr, i64 }, align 8
  %_17 = alloca { ptr, i64 }, align 8
  %_8 = alloca %"core::fmt::Arguments<'_>", align 8
  %_5 = alloca %"core::fmt::Arguments<'_>", align 8
  %_0 = alloca i64, align 8
  %order = alloca i8, align 1
  store i8 %arg, ptr %order, align 1
  %_3 = zext i8 %arg to i64, !dbg !1646
  switch i64 %_3, label %bb2 [
    i64 0, label %bb3
    i64 1, label %bb13
    i64 2, label %bb4
    i64 3, label %bb10
    i64 4, label %bb5
  ], !dbg !1648

bb2:                                              ; preds = %start
  unreachable

bb3:                                              ; preds = %start
  %i2 = load atomic i64, ptr %dst monotonic, align 8, !dbg !1649
  store i64 %i2, ptr %_0, align 8, !dbg !1649
  br label %bb7, !dbg !1649

bb4:                                              ; preds = %start
  %i3 = load atomic i64, ptr %dst acquire, align 8, !dbg !1650
  store i64 %i3, ptr %_0, align 8, !dbg !1650
  br label %bb7, !dbg !1650

bb5:                                              ; preds = %start
  %i4 = load atomic i64, ptr %dst seq_cst, align 8, !dbg !1651
  store i64 %i4, ptr %_0, align 8, !dbg !1651
  br label %bb7, !dbg !1651

bb7:                                              ; preds = %bb5, %bb4, %bb3
  %i5 = phi i64 [ %i4, %bb5 ], [ %i3, %bb4 ], [ %i2, %bb3 ], !dbg !1652
  ret i64 %i5, !dbg !1652

bb13:                                             ; preds = %start
  store ptr null, ptr %_26, align 8, !dbg !1653
  store ptr @alloc_cf8f91dd8bc9347b20052f6ccc905cd7, ptr %_5, align 8, !dbg !1658
  %i6 = getelementptr inbounds { ptr, i64 }, ptr %_5, i32 0, i32 1, !dbg !1658
  store i64 1, ptr %i6, align 8, !dbg !1658
  %i10 = getelementptr inbounds %"core::fmt::Arguments<'_>", ptr %_5, i32 0, i32 2, !dbg !1658
  store ptr null, ptr %i10, align 8, !dbg !1658
  %i11 = getelementptr inbounds { ptr, i64 }, ptr %i10, i32 0, i32 1, !dbg !1658
  store i64 undef, ptr %i11, align 8, !dbg !1658
  %i12 = getelementptr inbounds %"core::fmt::Arguments<'_>", ptr %_5, i32 0, i32 1, !dbg !1658
  store ptr @alloc_513570631223a12912d85da2bec3b15a, ptr %i12, align 8, !dbg !1658
  %i13 = getelementptr inbounds { ptr, i64 }, ptr %i12, i32 0, i32 1, !dbg !1658
  store i64 0, ptr %i13, align 8, !dbg !1658
; call core::panicking::panic_fmt
  call void @_ZN4core9panicking9panic_fmt17h784f20a50eaab275E(ptr align 8 %_5, ptr align 8 @alloc_4c32346d01eeb3c0619dc95e0468893e) #28, !dbg !1659
  unreachable

bb10:                                             ; preds = %start
  store ptr null, ptr %_17, align 8, !dbg !1660
  store ptr @alloc_7e8e9a1d4bc7d0bbec692f0a50681e22, ptr %_8, align 8, !dbg !1662
  %i14 = getelementptr inbounds { ptr, i64 }, ptr %_8, i32 0, i32 1, !dbg !1662
  store i64 1, ptr %i14, align 8, !dbg !1662
  %i18 = getelementptr inbounds %"core::fmt::Arguments<'_>", ptr %_8, i32 0, i32 2, !dbg !1662
  store ptr null, ptr %i18, align 8, !dbg !1662
  %i19 = getelementptr inbounds { ptr, i64 }, ptr %i18, i32 0, i32 1, !dbg !1662
  store i64 undef, ptr %i19, align 8, !dbg !1662
  %i20 = getelementptr inbounds %"core::fmt::Arguments<'_>", ptr %_8, i32 0, i32 1, !dbg !1662
  store ptr @alloc_513570631223a12912d85da2bec3b15a, ptr %i20, align 8, !dbg !1662
  %i21 = getelementptr inbounds { ptr, i64 }, ptr %i20, i32 0, i32 1, !dbg !1662
  store i64 0, ptr %i21, align 8, !dbg !1662
; call core::panicking::panic_fmt
  call void @_ZN4core9panicking9panic_fmt17h784f20a50eaab275E(ptr align 8 %_8, ptr align 8 @alloc_93c532d79ae5a1fe4b07989efd8a35e4) #28, !dbg !1663
  unreachable
}

; core::sync::atomic::atomic_store
; Function Attrs: inlinehint nounwind nonlazybind
define internal fastcc void @_ZN4core4sync6atomic12atomic_store17h14c506ef093836f9E(ptr nocapture writeonly %dst, i64 %val, i8 %arg) unnamed_addr #1 !dbg !1664 {
start:
  %_27 = alloca { ptr, i64 }, align 8
  %_18 = alloca { ptr, i64 }, align 8
  %_9 = alloca %"core::fmt::Arguments<'_>", align 8
  %_6 = alloca %"core::fmt::Arguments<'_>", align 8
  %order = alloca i8, align 1
  store i8 %arg, ptr %order, align 1
  %_4 = zext i8 %arg to i64, !dbg !1665
  switch i64 %_4, label %bb2 [
    i64 0, label %bb3
    i64 1, label %bb4
    i64 2, label %bb13
    i64 3, label %bb10
    i64 4, label %bb5
  ], !dbg !1667

bb2:                                              ; preds = %start
  unreachable

bb3:                                              ; preds = %start
  store atomic i64 %val, ptr %dst monotonic, align 8, !dbg !1668
  br label %bb7, !dbg !1668

bb4:                                              ; preds = %start
  store atomic i64 %val, ptr %dst release, align 8, !dbg !1669
  br label %bb7, !dbg !1669

bb5:                                              ; preds = %start
  store atomic i64 %val, ptr %dst seq_cst, align 8, !dbg !1670
  br label %bb7, !dbg !1670

bb7:                                              ; preds = %bb5, %bb4, %bb3
  ret void, !dbg !1671

bb13:                                             ; preds = %start
  store ptr null, ptr %_27, align 8, !dbg !1672
  store ptr @alloc_47c752ba42fbab56d43a37cfd56e4899, ptr %_6, align 8, !dbg !1677
  %i2 = getelementptr inbounds { ptr, i64 }, ptr %_6, i32 0, i32 1, !dbg !1677
  store i64 1, ptr %i2, align 8, !dbg !1677
  %i6 = getelementptr inbounds %"core::fmt::Arguments<'_>", ptr %_6, i32 0, i32 2, !dbg !1677
  store ptr null, ptr %i6, align 8, !dbg !1677
  %i7 = getelementptr inbounds { ptr, i64 }, ptr %i6, i32 0, i32 1, !dbg !1677
  store i64 undef, ptr %i7, align 8, !dbg !1677
  %i8 = getelementptr inbounds %"core::fmt::Arguments<'_>", ptr %_6, i32 0, i32 1, !dbg !1677
  store ptr @alloc_513570631223a12912d85da2bec3b15a, ptr %i8, align 8, !dbg !1677
  %i9 = getelementptr inbounds { ptr, i64 }, ptr %i8, i32 0, i32 1, !dbg !1677
  store i64 0, ptr %i9, align 8, !dbg !1677
; call core::panicking::panic_fmt
  call void @_ZN4core9panicking9panic_fmt17h784f20a50eaab275E(ptr align 8 %_6, ptr align 8 @alloc_cb63d255000c7e9fed7db8f9c4b60326) #28, !dbg !1678
  unreachable

bb10:                                             ; preds = %start
  store ptr null, ptr %_18, align 8, !dbg !1679
  store ptr @alloc_f8dbac861f87e25e445761cc4af66745, ptr %_9, align 8, !dbg !1681
  %i10 = getelementptr inbounds { ptr, i64 }, ptr %_9, i32 0, i32 1, !dbg !1681
  store i64 1, ptr %i10, align 8, !dbg !1681
  %i14 = getelementptr inbounds %"core::fmt::Arguments<'_>", ptr %_9, i32 0, i32 2, !dbg !1681
  store ptr null, ptr %i14, align 8, !dbg !1681
  %i15 = getelementptr inbounds { ptr, i64 }, ptr %i14, i32 0, i32 1, !dbg !1681
  store i64 undef, ptr %i15, align 8, !dbg !1681
  %i16 = getelementptr inbounds %"core::fmt::Arguments<'_>", ptr %_9, i32 0, i32 1, !dbg !1681
  store ptr @alloc_513570631223a12912d85da2bec3b15a, ptr %i16, align 8, !dbg !1681
  %i17 = getelementptr inbounds { ptr, i64 }, ptr %i16, i32 0, i32 1, !dbg !1681
  store i64 0, ptr %i17, align 8, !dbg !1681
; call core::panicking::panic_fmt
  call void @_ZN4core9panicking9panic_fmt17h784f20a50eaab275E(ptr align 8 %_9, ptr align 8 @alloc_2061bd2e099bb1065f735aed396f79a4) #28, !dbg !1682
  unreachable
}

; core::sync::atomic::atomic_compare_exchange
; Function Attrs: inlinehint nounwind nonlazybind
define internal fastcc { i64, i64 } @_ZN4core4sync6atomic23atomic_compare_exchange17h2e5e6042aabb1dbbE(ptr nocapture %dst, i64 %old, i64 %new, i8 %arg, i8 %arg2) unnamed_addr #1 !dbg !1683 {
start:
  %_38 = alloca { ptr, i64 }, align 8
  %_29 = alloca { ptr, i64 }, align 8
  %_20 = alloca %"core::fmt::Arguments<'_>", align 8
  %_17 = alloca %"core::fmt::Arguments<'_>", align 8
  %_8 = alloca { i64, i8 }, align 8
  %_0 = alloca { i64, i64 }, align 8
  %failure = alloca i8, align 1
  %success = alloca i8, align 1
  store i8 %arg, ptr %success, align 1
  store i8 %arg2, ptr %failure, align 1
  %_15 = zext i8 %arg to i64, !dbg !1684
  switch i64 %_15, label %bb7 [
    i64 0, label %bb1
    i64 1, label %bb3
    i64 2, label %bb4
    i64 3, label %bb5
    i64 4, label %bb6
  ], !dbg !1686

bb7:                                              ; preds = %start
  unreachable

bb1:                                              ; preds = %start
  %_9 = zext i8 %arg2 to i64, !dbg !1684
  switch i64 %_9, label %bb2 [
    i64 0, label %bb9
    i64 2, label %bb10
    i64 4, label %bb11
  ], !dbg !1686

bb3:                                              ; preds = %start
  %_10 = zext i8 %arg2 to i64, !dbg !1684
  switch i64 %_10, label %bb2 [
    i64 0, label %bb15
    i64 2, label %bb16
    i64 4, label %bb17
  ], !dbg !1686

bb4:                                              ; preds = %start
  %_11 = zext i8 %arg2 to i64, !dbg !1684
  switch i64 %_11, label %bb2 [
    i64 0, label %bb12
    i64 2, label %bb13
    i64 4, label %bb14
  ], !dbg !1686

bb5:                                              ; preds = %start
  %_12 = zext i8 %arg2 to i64, !dbg !1684
  switch i64 %_12, label %bb2 [
    i64 0, label %bb18
    i64 2, label %bb19
    i64 4, label %bb20
  ], !dbg !1686

bb6:                                              ; preds = %start
  %_13 = zext i8 %arg2 to i64, !dbg !1684
  switch i64 %_13, label %bb2 [
    i64 0, label %bb21
    i64 2, label %bb22
    i64 4, label %bb23
  ], !dbg !1686

bb2:                                              ; preds = %bb6, %bb5, %bb4, %bb3, %bb1
  %_14.pre-phi = phi i64 [ %_13, %bb6 ], [ %_12, %bb5 ], [ %_11, %bb4 ], [ %_10, %bb3 ], [ %_9, %bb1 ], !dbg !1684
  %i9 = icmp eq i64 %_14.pre-phi, 1, !dbg !1686
  br i1 %i9, label %bb31, label %bb34, !dbg !1686

bb9:                                              ; preds = %bb1
  %i10 = cmpxchg ptr %dst, i64 %old, i64 %new monotonic monotonic, align 8, !dbg !1687
  %i11 = extractvalue { i64, i1 } %i10, 0, !dbg !1687
  %i12 = extractvalue { i64, i1 } %i10, 1, !dbg !1687
  %i13 = zext i1 %i12 to i8, !dbg !1687
  store i64 %i11, ptr %_8, align 8, !dbg !1687
  %i14 = getelementptr inbounds { i64, i8 }, ptr %_8, i32 0, i32 1, !dbg !1687
  store i8 %i13, ptr %i14, align 8, !dbg !1687
  br label %bb25, !dbg !1687

bb10:                                             ; preds = %bb1
  %i15 = cmpxchg ptr %dst, i64 %old, i64 %new monotonic acquire, align 8, !dbg !1688
  %i16 = extractvalue { i64, i1 } %i15, 0, !dbg !1688
  %i17 = extractvalue { i64, i1 } %i15, 1, !dbg !1688
  %i18 = zext i1 %i17 to i8, !dbg !1688
  store i64 %i16, ptr %_8, align 8, !dbg !1688
  %i19 = getelementptr inbounds { i64, i8 }, ptr %_8, i32 0, i32 1, !dbg !1688
  store i8 %i18, ptr %i19, align 8, !dbg !1688
  br label %bb25, !dbg !1688

bb11:                                             ; preds = %bb1
  %i20 = cmpxchg ptr %dst, i64 %old, i64 %new monotonic seq_cst, align 8, !dbg !1689
  %i21 = extractvalue { i64, i1 } %i20, 0, !dbg !1689
  %i22 = extractvalue { i64, i1 } %i20, 1, !dbg !1689
  %i23 = zext i1 %i22 to i8, !dbg !1689
  store i64 %i21, ptr %_8, align 8, !dbg !1689
  %i24 = getelementptr inbounds { i64, i8 }, ptr %_8, i32 0, i32 1, !dbg !1689
  store i8 %i23, ptr %i24, align 8, !dbg !1689
  br label %bb25, !dbg !1689

bb25:                                             ; preds = %bb23, %bb22, %bb21, %bb20, %bb19, %bb18, %bb14, %bb13, %bb12, %bb17, %bb16, %bb15, %bb11, %bb10, %bb9
  %i26 = phi i1 [ %i84, %bb23 ], [ %i79, %bb22 ], [ %i74, %bb21 ], [ %i69, %bb20 ], [ %i64, %bb19 ], [ %i59, %bb18 ], [ %i54, %bb14 ], [ %i49, %bb13 ], [ %i44, %bb12 ], [ %i39, %bb17 ], [ %i34, %bb16 ], [ %i29, %bb15 ], [ %i22, %bb11 ], [ %i17, %bb10 ], [ %i12, %bb9 ], !dbg !1690
  %i91 = phi i64 [ %i83, %bb23 ], [ %i78, %bb22 ], [ %i73, %bb21 ], [ %i68, %bb20 ], [ %i63, %bb19 ], [ %i58, %bb18 ], [ %i53, %bb14 ], [ %i48, %bb13 ], [ %i43, %bb12 ], [ %i38, %bb17 ], [ %i33, %bb16 ], [ %i28, %bb15 ], [ %i21, %bb11 ], [ %i16, %bb10 ], [ %i11, %bb9 ], !dbg !1691
  %i26.inv = xor i1 %i26, true
  br i1 %i26.inv, label %bb27, label %Flow, !dbg !1692

bb15:                                             ; preds = %bb3
  %i27 = cmpxchg ptr %dst, i64 %old, i64 %new release monotonic, align 8, !dbg !1694
  %i28 = extractvalue { i64, i1 } %i27, 0, !dbg !1694
  %i29 = extractvalue { i64, i1 } %i27, 1, !dbg !1694
  %i30 = zext i1 %i29 to i8, !dbg !1694
  store i64 %i28, ptr %_8, align 8, !dbg !1694
  %i31 = getelementptr inbounds { i64, i8 }, ptr %_8, i32 0, i32 1, !dbg !1694
  store i8 %i30, ptr %i31, align 8, !dbg !1694
  br label %bb25, !dbg !1694

bb16:                                             ; preds = %bb3
  %i32 = cmpxchg ptr %dst, i64 %old, i64 %new release acquire, align 8, !dbg !1695
  %i33 = extractvalue { i64, i1 } %i32, 0, !dbg !1695
  %i34 = extractvalue { i64, i1 } %i32, 1, !dbg !1695
  %i35 = zext i1 %i34 to i8, !dbg !1695
  store i64 %i33, ptr %_8, align 8, !dbg !1695
  %i36 = getelementptr inbounds { i64, i8 }, ptr %_8, i32 0, i32 1, !dbg !1695
  store i8 %i35, ptr %i36, align 8, !dbg !1695
  br label %bb25, !dbg !1695

bb17:                                             ; preds = %bb3
  %i37 = cmpxchg ptr %dst, i64 %old, i64 %new release seq_cst, align 8, !dbg !1696
  %i38 = extractvalue { i64, i1 } %i37, 0, !dbg !1696
  %i39 = extractvalue { i64, i1 } %i37, 1, !dbg !1696
  %i40 = zext i1 %i39 to i8, !dbg !1696
  store i64 %i38, ptr %_8, align 8, !dbg !1696
  %i41 = getelementptr inbounds { i64, i8 }, ptr %_8, i32 0, i32 1, !dbg !1696
  store i8 %i40, ptr %i41, align 8, !dbg !1696
  br label %bb25, !dbg !1696

bb12:                                             ; preds = %bb4
  %i42 = cmpxchg ptr %dst, i64 %old, i64 %new acquire monotonic, align 8, !dbg !1697
  %i43 = extractvalue { i64, i1 } %i42, 0, !dbg !1697
  %i44 = extractvalue { i64, i1 } %i42, 1, !dbg !1697
  %i45 = zext i1 %i44 to i8, !dbg !1697
  store i64 %i43, ptr %_8, align 8, !dbg !1697
  %i46 = getelementptr inbounds { i64, i8 }, ptr %_8, i32 0, i32 1, !dbg !1697
  store i8 %i45, ptr %i46, align 8, !dbg !1697
  br label %bb25, !dbg !1697

bb13:                                             ; preds = %bb4
  %i47 = cmpxchg ptr %dst, i64 %old, i64 %new acquire acquire, align 8, !dbg !1698
  %i48 = extractvalue { i64, i1 } %i47, 0, !dbg !1698
  %i49 = extractvalue { i64, i1 } %i47, 1, !dbg !1698
  %i50 = zext i1 %i49 to i8, !dbg !1698
  store i64 %i48, ptr %_8, align 8, !dbg !1698
  %i51 = getelementptr inbounds { i64, i8 }, ptr %_8, i32 0, i32 1, !dbg !1698
  store i8 %i50, ptr %i51, align 8, !dbg !1698
  br label %bb25, !dbg !1698

bb14:                                             ; preds = %bb4
  %i52 = cmpxchg ptr %dst, i64 %old, i64 %new acquire seq_cst, align 8, !dbg !1699
  %i53 = extractvalue { i64, i1 } %i52, 0, !dbg !1699
  %i54 = extractvalue { i64, i1 } %i52, 1, !dbg !1699
  %i55 = zext i1 %i54 to i8, !dbg !1699
  store i64 %i53, ptr %_8, align 8, !dbg !1699
  %i56 = getelementptr inbounds { i64, i8 }, ptr %_8, i32 0, i32 1, !dbg !1699
  store i8 %i55, ptr %i56, align 8, !dbg !1699
  br label %bb25, !dbg !1699

bb18:                                             ; preds = %bb5
  %i57 = cmpxchg ptr %dst, i64 %old, i64 %new acq_rel monotonic, align 8, !dbg !1700
  %i58 = extractvalue { i64, i1 } %i57, 0, !dbg !1700
  %i59 = extractvalue { i64, i1 } %i57, 1, !dbg !1700
  %i60 = zext i1 %i59 to i8, !dbg !1700
  store i64 %i58, ptr %_8, align 8, !dbg !1700
  %i61 = getelementptr inbounds { i64, i8 }, ptr %_8, i32 0, i32 1, !dbg !1700
  store i8 %i60, ptr %i61, align 8, !dbg !1700
  br label %bb25, !dbg !1700

bb19:                                             ; preds = %bb5
  %i62 = cmpxchg ptr %dst, i64 %old, i64 %new acq_rel acquire, align 8, !dbg !1701
  %i63 = extractvalue { i64, i1 } %i62, 0, !dbg !1701
  %i64 = extractvalue { i64, i1 } %i62, 1, !dbg !1701
  %i65 = zext i1 %i64 to i8, !dbg !1701
  store i64 %i63, ptr %_8, align 8, !dbg !1701
  %i66 = getelementptr inbounds { i64, i8 }, ptr %_8, i32 0, i32 1, !dbg !1701
  store i8 %i65, ptr %i66, align 8, !dbg !1701
  br label %bb25, !dbg !1701

bb20:                                             ; preds = %bb5
  %i67 = cmpxchg ptr %dst, i64 %old, i64 %new acq_rel seq_cst, align 8, !dbg !1702
  %i68 = extractvalue { i64, i1 } %i67, 0, !dbg !1702
  %i69 = extractvalue { i64, i1 } %i67, 1, !dbg !1702
  %i70 = zext i1 %i69 to i8, !dbg !1702
  store i64 %i68, ptr %_8, align 8, !dbg !1702
  %i71 = getelementptr inbounds { i64, i8 }, ptr %_8, i32 0, i32 1, !dbg !1702
  store i8 %i70, ptr %i71, align 8, !dbg !1702
  br label %bb25, !dbg !1702

bb21:                                             ; preds = %bb6
  %i72 = cmpxchg ptr %dst, i64 %old, i64 %new seq_cst monotonic, align 8, !dbg !1703
  %i73 = extractvalue { i64, i1 } %i72, 0, !dbg !1703
  %i74 = extractvalue { i64, i1 } %i72, 1, !dbg !1703
  %i75 = zext i1 %i74 to i8, !dbg !1703
  store i64 %i73, ptr %_8, align 8, !dbg !1703
  %i76 = getelementptr inbounds { i64, i8 }, ptr %_8, i32 0, i32 1, !dbg !1703
  store i8 %i75, ptr %i76, align 8, !dbg !1703
  br label %bb25, !dbg !1703

bb22:                                             ; preds = %bb6
  %i77 = cmpxchg ptr %dst, i64 %old, i64 %new seq_cst acquire, align 8, !dbg !1704
  %i78 = extractvalue { i64, i1 } %i77, 0, !dbg !1704
  %i79 = extractvalue { i64, i1 } %i77, 1, !dbg !1704
  %i80 = zext i1 %i79 to i8, !dbg !1704
  store i64 %i78, ptr %_8, align 8, !dbg !1704
  %i81 = getelementptr inbounds { i64, i8 }, ptr %_8, i32 0, i32 1, !dbg !1704
  store i8 %i80, ptr %i81, align 8, !dbg !1704
  br label %bb25, !dbg !1704

bb23:                                             ; preds = %bb6
  %i82 = cmpxchg ptr %dst, i64 %old, i64 %new seq_cst seq_cst, align 8, !dbg !1705
  %i83 = extractvalue { i64, i1 } %i82, 0, !dbg !1705
  %i84 = extractvalue { i64, i1 } %i82, 1, !dbg !1705
  %i85 = zext i1 %i84 to i8, !dbg !1705
  store i64 %i83, ptr %_8, align 8, !dbg !1705
  %i86 = getelementptr inbounds { i64, i8 }, ptr %_8, i32 0, i32 1, !dbg !1705
  store i8 %i85, ptr %i86, align 8, !dbg !1705
  br label %bb25, !dbg !1705

bb27:                                             ; preds = %bb25
  %i87 = getelementptr inbounds { i64, i64 }, ptr %_0, i32 0, i32 1, !dbg !1706
  store i64 %i91, ptr %i87, align 8, !dbg !1706
  store i64 1, ptr %_0, align 8, !dbg !1706
  br label %Flow, !dbg !1707

Flow:                                             ; preds = %bb27, %bb25
  %0 = phi i1 [ false, %bb27 ], [ true, %bb25 ], !dbg !1692
  br i1 %0, label %bb26, label %bb28, !dbg !1692

bb26:                                             ; preds = %Flow
  %i88 = getelementptr inbounds { i64, i64 }, ptr %_0, i32 0, i32 1, !dbg !1708
  store i64 %i91, ptr %i88, align 8, !dbg !1708
  store i64 0, ptr %_0, align 8, !dbg !1708
  br label %bb28, !dbg !1707

bb28:                                             ; preds = %bb26, %Flow
  %i89 = phi i64 [ 1, %Flow ], [ 0, %bb26 ], !dbg !1709
  %i92 = insertvalue { i64, i64 } poison, i64 %i89, 0, !dbg !1709
  %i93 = insertvalue { i64, i64 } %i92, i64 %i91, 1, !dbg !1709
  ret { i64, i64 } %i93, !dbg !1709

bb31:                                             ; preds = %bb2
  store ptr null, ptr %_29, align 8, !dbg !1710
  store ptr @alloc_04ab601c54c6e0a22ff11d72dc7f4511, ptr %_20, align 8, !dbg !1715
  %i94 = getelementptr inbounds { ptr, i64 }, ptr %_20, i32 0, i32 1, !dbg !1715
  store i64 1, ptr %i94, align 8, !dbg !1715
  %i98 = getelementptr inbounds %"core::fmt::Arguments<'_>", ptr %_20, i32 0, i32 2, !dbg !1715
  store ptr null, ptr %i98, align 8, !dbg !1715
  %i99 = getelementptr inbounds { ptr, i64 }, ptr %i98, i32 0, i32 1, !dbg !1715
  store i64 undef, ptr %i99, align 8, !dbg !1715
  %i100 = getelementptr inbounds %"core::fmt::Arguments<'_>", ptr %_20, i32 0, i32 1, !dbg !1715
  store ptr @alloc_513570631223a12912d85da2bec3b15a, ptr %i100, align 8, !dbg !1715
  %i101 = getelementptr inbounds { ptr, i64 }, ptr %i100, i32 0, i32 1, !dbg !1715
  store i64 0, ptr %i101, align 8, !dbg !1715
; call core::panicking::panic_fmt
  call void @_ZN4core9panicking9panic_fmt17h784f20a50eaab275E(ptr align 8 %_20, ptr align 8 @alloc_826fa8dc4bf9d95988bea67cf29fdc26) #28, !dbg !1716
  unreachable

bb34:                                             ; preds = %bb2
  store ptr null, ptr %_38, align 8, !dbg !1717
  store ptr @alloc_dd7d8f77c173bf31726eae321f955bec, ptr %_17, align 8, !dbg !1719
  %i102 = getelementptr inbounds { ptr, i64 }, ptr %_17, i32 0, i32 1, !dbg !1719
  store i64 1, ptr %i102, align 8, !dbg !1719
  %i106 = getelementptr inbounds %"core::fmt::Arguments<'_>", ptr %_17, i32 0, i32 2, !dbg !1719
  store ptr null, ptr %i106, align 8, !dbg !1719
  %i107 = getelementptr inbounds { ptr, i64 }, ptr %i106, i32 0, i32 1, !dbg !1719
  store i64 undef, ptr %i107, align 8, !dbg !1719
  %i108 = getelementptr inbounds %"core::fmt::Arguments<'_>", ptr %_17, i32 0, i32 1, !dbg !1719
  store ptr @alloc_513570631223a12912d85da2bec3b15a, ptr %i108, align 8, !dbg !1719
  %i109 = getelementptr inbounds { ptr, i64 }, ptr %i108, i32 0, i32 1, !dbg !1719
  store i64 0, ptr %i109, align 8, !dbg !1719
; call core::panicking::panic_fmt
  call void @_ZN4core9panicking9panic_fmt17h784f20a50eaab275E(ptr align 8 %_17, ptr align 8 @alloc_69680bf1a9adc0c1931d0dbd2195eaef) #28, !dbg !1720
  unreachable
}

; core::slice::memchr::memchr_naive
; Function Attrs: inlinehint nounwind nonlazybind
define internal fastcc { i64, i64 } @_ZN4core5slice6memchr12memchr_naive17h952ce3b377381414E(i8 %x, ptr nocapture readonly align 1 %text.0, i64 %text.1) unnamed_addr #1 !dbg !1721 {
start:
  %i = alloca i64, align 8
  %_0 = alloca { i64, i64 }, align 8
  store i64 0, ptr %i, align 8, !dbg !1724
  br label %bb1, !dbg !1725

bb1:                                              ; preds = %bb5, %start
  %_12 = phi i64 [ %i9, %bb5 ], [ 0, %start ], !dbg !1727
  %_4 = icmp ult i64 %_12, %text.1, !dbg !1727
  br i1 %_4, label %bb2, label %bb6, !dbg !1727

bb6:                                              ; preds = %bb1
  store i64 0, ptr %_0, align 8, !dbg !1728
  br label %bb7, !dbg !1729

bb2:                                              ; preds = %bb1
  %i1 = call i1 @llvm.expect.i1(i1 true, i1 true), !dbg !1730
  br i1 %i1, label %bb3, label %panic, !dbg !1730

bb7:                                              ; preds = %bb4, %bb6
  %_1216 = phi i64 [ %_12, %bb4 ], [ %_12, %bb6 ]
  %i2 = phi i64 [ 1, %bb4 ], [ 0, %bb6 ], !dbg !1729
  %i5 = insertvalue { i64, i64 } poison, i64 %i2, 0, !dbg !1729
  %i6 = insertvalue { i64, i64 } %i5, i64 %_1216, 1, !dbg !1729
  ret { i64, i64 } %i6, !dbg !1729

bb3:                                              ; preds = %bb2
  %i7 = getelementptr inbounds [0 x i8], ptr %text.0, i64 0, i64 %_12, !dbg !1730
  %_8 = load i8, ptr %i7, align 1, !dbg !1730, !noundef !16
  %_7 = icmp eq i8 %_8, %x, !dbg !1730
  br i1 %_7, label %bb4, label %bb5, !dbg !1730

panic:                                            ; preds = %bb2
; call core::panicking::panic_bounds_check
  call void @_ZN4core9panicking18panic_bounds_check17h8331054858f0bf20E(i64 %_12, i64 %text.1, ptr align 8 @alloc_5bc1b291dae9b898876d4e4c4a53a140) #28, !dbg !1730
  unreachable, !dbg !1730

bb5:                                              ; preds = %bb3
  %i9 = add i64 %_12, 1, !dbg !1731
  store i64 %i9, ptr %i, align 8, !dbg !1731
  br label %bb1, !dbg !1725

bb4:                                              ; preds = %bb3
  %i10 = getelementptr inbounds { i64, i64 }, ptr %_0, i32 0, i32 1, !dbg !1732
  store i64 %_12, ptr %i10, align 8, !dbg !1732
  store i64 1, ptr %_0, align 8, !dbg !1732
  br label %bb7, !dbg !1729
}

; <T as core::convert::Into<U>>::into
; Function Attrs: inlinehint mustprogress nofree nosync nounwind nonlazybind willreturn memory(argmem: readwrite)
define internal fastcc void @"_ZN50_$LT$T$u20$as$u20$core..convert..Into$LT$U$GT$$GT$4into17h483fd8affa4afea3E"(ptr noalias nocapture writeonly align 8 %_0, ptr nocapture readonly align 8 %self) unnamed_addr #8 !dbg !1733 {
start:
; call alloc::string::<impl core::convert::From<alloc::string::String> for alloc::vec::Vec<u8>>::from
  call fastcc void @"_ZN5alloc6string104_$LT$impl$u20$core..convert..From$LT$alloc..string..String$GT$$u20$for$u20$alloc..vec..Vec$LT$u8$GT$$GT$4from17h9f430cc35835d0abE"(ptr noalias align 8 %_0, ptr align 8 %self) #29, !dbg !1737
  ret void, !dbg !1738
}

; <() as std::process::Termination>::report
; Function Attrs: inlinehint mustprogress nofree norecurse nosync nounwind nonlazybind willreturn memory(none)
define internal fastcc i8 @"_ZN54_$LT$$LP$$RP$$u20$as$u20$std..process..Termination$GT$6report17h0a335c406dd619d6E"() unnamed_addr #5 !dbg !1739 {
start:
  ret i8 0, !dbg !1741
}

; <alloc::alloc::Global as core::clone::Clone>::clone
; Function Attrs: inlinehint mustprogress nofree norecurse nosync nounwind nonlazybind willreturn memory(none)
define internal fastcc void @"_ZN59_$LT$alloc..alloc..Global$u20$as$u20$core..clone..Clone$GT$5clone17hbaa8b74793116fe4E"(ptr nocapture align 1 %self) unnamed_addr #5 !dbg !1742 {
start:
  ret void, !dbg !1744
}

; alloc::ffi::c_str::CString::new
; Function Attrs: nounwind nonlazybind
define internal fastcc void @_ZN5alloc3ffi5c_str7CString3new17h660e8b6c5044764cE(ptr noalias align 8 %_0, ptr align 1 %t.0, i64 %t.1) unnamed_addr #3 !dbg !1745 {
start:
; call <&str as alloc::ffi::c_str::CString::new::SpecNewImpl>::spec_new_impl
  call void @"_ZN72_$LT$$RF$str$u20$as$u20$alloc..ffi..c_str..CString..new..SpecNewImpl$GT$13spec_new_impl17h9146527f16b9f0b9E"(ptr sret(%"core::result::Result<alloc::ffi::c_str::CString, alloc::ffi::c_str::NulError>") align 8 %_0, ptr align 1 %t.0, i64 %t.1) #29, !dbg !1746
  ret void, !dbg !1747
}

; alloc::sync::Arc<T>::new
; Function Attrs: inlinehint nounwind nonlazybind
define internal fastcc ptr @"_ZN5alloc4sync12Arc$LT$T$GT$3new17h41008552d3569eecE"(ptr nocapture readonly align 8 %data) unnamed_addr #1 personality ptr @rust_eh_personality !dbg !1748 {
start:
  %self.i = alloca ptr, align 8
  %_4.i1 = alloca { ptr, i64 }, align 8
  %layout.i = alloca { i64, i64 }, align 8
  %_11 = alloca ptr, align 8
  %ptr = alloca ptr, align 8
  %_5 = alloca %"core::sync::atomic::AtomicUsize", align 8
  %_4 = alloca %"core::sync::atomic::AtomicUsize", align 8
  %_3 = alloca %"alloc::sync::ArcInner<std::thread::Packet<'_, ()>>", align 8
  %_0 = alloca ptr, align 8
  store i64 1, ptr %_4, align 8, !dbg !1749
  store i64 1, ptr %_5, align 8, !dbg !1754
  %i3 = getelementptr inbounds %"alloc::sync::ArcInner<std::thread::Packet<'_, ()>>", ptr %_3, i32 0, i32 2, !dbg !1757
  call void @llvm.memcpy.p0.p0.i64(ptr align 8 %i3, ptr align 8 %data, i64 32, i1 false), !dbg !1758
  call void @llvm.memcpy.p0.p0.i64(ptr align 8 %_3, ptr align 8 %_4, i64 8, i1 false), !dbg !1757
  %i = getelementptr inbounds %"alloc::sync::ArcInner<std::thread::Packet<'_, ()>>", ptr %_3, i32 0, i32 1, !dbg !1757
  call void @llvm.memcpy.p0.p0.i64(ptr align 8 %i, ptr align 8 %_5, i64 8, i1 false), !dbg !1757
  call void @llvm.lifetime.start.p0(i64 8, ptr %self.i), !dbg !1759
  call void @llvm.lifetime.start.p0(i64 16, ptr %_4.i1), !dbg !1759
  call void @llvm.lifetime.start.p0(i64 16, ptr %layout.i), !dbg !1759
  %i4 = getelementptr inbounds { i64, i64 }, ptr %layout.i, i32 0, i32 1, !dbg !1759
  store i64 48, ptr %i4, align 8, !dbg !1759
  store i64 8, ptr %layout.i, align 8, !dbg !1759
; call alloc::alloc::Global::alloc_impl
  %i8 = call fastcc { ptr, i64 } @_ZN5alloc5alloc6Global10alloc_impl17h829978be4ce278edE(i64 8, i64 48, i1 zeroext false) #29, !dbg !1765
  store { ptr, i64 } %i8, ptr %_4.i1, align 8, !dbg !1765
  %i9 = load ptr, ptr %_4.i1, align 8, !dbg !1767, !noundef !16
  %i10 = ptrtoint ptr %i9 to i64, !dbg !1767
  %i11 = icmp eq i64 %i10, 0, !dbg !1767
  %_5.i = select i1 %i11, i64 1, i64 0, !dbg !1767
  %i12 = icmp eq i64 %_5.i, 0, !dbg !1768
  br i1 %i12, label %bb3.i, label %codeRepl.i, !dbg !1768

bb3.i:                                            ; preds = %start
  store ptr %i9, ptr %self.i, align 8, !dbg !1769
  call void @llvm.lifetime.end.p0(i64 8, ptr %self.i), !dbg !1773
  call void @llvm.lifetime.end.p0(i64 16, ptr %_4.i1), !dbg !1773
  call void @llvm.lifetime.end.p0(i64 16, ptr %layout.i), !dbg !1773
  call void @llvm.memcpy.p0.p0.i64(ptr align 8 %i9, ptr align 8 %_3, i64 48, i1 false), !dbg !1774
  store ptr %i9, ptr %_11, align 8, !dbg !1775
  store ptr %i9, ptr %ptr, align 8, !dbg !1785
  store ptr %i9, ptr %_0, align 8, !dbg !1793
  ret ptr %i9, !dbg !1801

codeRepl.i:                                       ; preds = %start
  %layout.i.val = load i64, ptr %layout.i, align 8, !dbg !1802, !range !905, !noundef !16
  %0 = getelementptr i8, ptr %layout.i, i64 8, !dbg !1802
  %layout.i.val15 = load i64, ptr %0, align 8, !dbg !1802, !noundef !16
; call alloc::alloc::exchange_malloc.5.bb1
  call fastcc void @_ZN5alloc5alloc15exchange_malloc17h33d2dad482dc5d9aE.5.bb1(i64 %layout.i.val, i64 %layout.i.val15), !dbg !1802
  unreachable
}

; alloc::sync::Arc<T,A>::drop_slow
; Function Attrs: noinline nounwind nonlazybind
define internal fastcc void @"_ZN5alloc4sync16Arc$LT$T$C$A$GT$9drop_slow17h54895b01b555755aE"(ptr align 8 %self) unnamed_addr #2 !dbg !1803 {
start:
  %_x = alloca { ptr, ptr }, align 8
  %self1 = load ptr, ptr %self, align 8, !dbg !1804, !nonnull !16, !noundef !16
  %_3 = getelementptr inbounds %"alloc::sync::ArcInner<std::thread::Inner>", ptr %self1, i32 0, i32 2, !dbg !1808
  %i = getelementptr inbounds %"std::thread::Inner", ptr %_3, i32 0, i32 1, !dbg !1810
  %i2 = load ptr, ptr %i, align 8, !dbg !1813, !noundef !16
  %i3 = ptrtoint ptr %i2 to i64, !dbg !1813
  %i4 = icmp ne i64 %i3, 0, !dbg !1813
  br i1 %i4, label %codeRepl.i, label %"_ZN4core3ptr39drop_in_place$LT$std..thread..Inner$GT$17h753a333124ff99d2E.16.exit", !dbg !1813

codeRepl.i:                                       ; preds = %start
; call core::ptr::drop_in_place<std::thread::Inner>.16.codeRepl.i
  call fastcc void @"_ZN4core3ptr39drop_in_place$LT$std..thread..Inner$GT$17h753a333124ff99d2E.16.codeRepl.i"(ptr %i), !dbg !1813
  %_5.pre = load ptr, ptr %self, align 8, !dbg !1816
  br label %"_ZN4core3ptr39drop_in_place$LT$std..thread..Inner$GT$17h753a333124ff99d2E.16.exit"

"_ZN4core3ptr39drop_in_place$LT$std..thread..Inner$GT$17h753a333124ff99d2E.16.exit": ; preds = %codeRepl.i, %start
  %_5 = phi ptr [ %self1, %start ], [ %_5.pre, %codeRepl.i ], !dbg !1816
  %_6 = getelementptr i8, ptr %self, i64 8, !dbg !1817
  store ptr %_5, ptr %_x, align 8, !dbg !1818
  %i5 = getelementptr inbounds { ptr, ptr }, ptr %_x, i32 0, i32 1, !dbg !1818
  store ptr %_6, ptr %i5, align 8, !dbg !1818
; call core::ptr::drop_in_place<alloc::sync::Weak<std::thread::Packet<()>,&alloc::alloc::Global>>
  call fastcc void @"_ZN4core3ptr108drop_in_place$LT$alloc..sync..Weak$LT$std..thread..Packet$LT$$LP$$RP$$GT$$C$$RF$alloc..alloc..Global$GT$$GT$17hf37f8b060b403758E"(ptr align 8 %_x) #29, !dbg !1819
  ret void, !dbg !1823
}

; alloc::sync::Arc<T,A>::drop_slow
; Function Attrs: noinline nounwind nonlazybind
define internal fastcc void @"_ZN5alloc4sync16Arc$LT$T$C$A$GT$9drop_slow17hbdf555aeea0dd5b0E"(ptr align 8 %self) unnamed_addr #2 !dbg !1824 {
start:
  %_x = alloca { ptr, ptr }, align 8
  %self1 = load ptr, ptr %self, align 8, !dbg !1825, !nonnull !16, !noundef !16
  %_3 = getelementptr inbounds %"alloc::sync::ArcInner<std::thread::scoped::ScopeData>", ptr %self1, i32 0, i32 2, !dbg !1829
; call core::ptr::drop_in_place<std::thread::scoped::ScopeData>
  call fastcc void @"_ZN4core3ptr51drop_in_place$LT$std..thread..scoped..ScopeData$GT$17h5d11e48d2e4be4a6E"(ptr align 8 %_3) #29, !dbg !1831
  %_5 = load ptr, ptr %self, align 8, !dbg !1832, !nonnull !16, !noundef !16
  %_6 = getelementptr i8, ptr %self, i64 8, !dbg !1833
  store ptr %_5, ptr %_x, align 8, !dbg !1834
  %i = getelementptr inbounds { ptr, ptr }, ptr %_x, i32 0, i32 1, !dbg !1834
  store ptr %_6, ptr %i, align 8, !dbg !1834
; call core::ptr::drop_in_place<alloc::sync::Weak<std::thread::scoped::ScopeData,&alloc::alloc::Global>>
  call fastcc void @"_ZN4core3ptr103drop_in_place$LT$alloc..sync..Weak$LT$std..thread..scoped..ScopeData$C$$RF$alloc..alloc..Global$GT$$GT$17h5deb261c6f4bf76eE"(ptr align 8 %_x) #29, !dbg !1835
  ret void, !dbg !1839
}

; alloc::sync::Arc<T,A>::drop_slow
; Function Attrs: noinline nounwind nonlazybind
define internal fastcc void @"_ZN5alloc4sync16Arc$LT$T$C$A$GT$9drop_slow17he0abb6b57b999de6E"(ptr align 8 %self) unnamed_addr #2 !dbg !1840 {
start:
  %_x = alloca { ptr, ptr }, align 8
  %self1 = load ptr, ptr %self, align 8, !dbg !1841, !nonnull !16, !noundef !16
  %_3 = getelementptr inbounds %"alloc::sync::ArcInner<std::sync::mutex::Mutex<alloc::vec::Vec<u8>>>", ptr %self1, i32 0, i32 2, !dbg !1845
; call core::ptr::drop_in_place<std::sync::mutex::Mutex<alloc::vec::Vec<u8>>>
  call fastcc void @"_ZN4core3ptr77drop_in_place$LT$std..sync..mutex..Mutex$LT$alloc..vec..Vec$LT$u8$GT$$GT$$GT$17h5124281c89c3705fE"(ptr align 8 %_3) #29, !dbg !1847
  %_5 = load ptr, ptr %self, align 8, !dbg !1848, !nonnull !16, !noundef !16
  %_6 = getelementptr i8, ptr %self, i64 8, !dbg !1849
  store ptr %_5, ptr %_x, align 8, !dbg !1850
  %i = getelementptr inbounds { ptr, ptr }, ptr %_x, i32 0, i32 1, !dbg !1850
  store ptr %_6, ptr %i, align 8, !dbg !1850
; call core::ptr::drop_in_place<alloc::sync::Weak<std::thread::Packet<()>,&alloc::alloc::Global>>
  call fastcc void @"_ZN4core3ptr108drop_in_place$LT$alloc..sync..Weak$LT$std..thread..Packet$LT$$LP$$RP$$GT$$C$$RF$alloc..alloc..Global$GT$$GT$17hf37f8b060b403758E"(ptr align 8 %_x) #29, !dbg !1851
  ret void, !dbg !1855
}

; alloc::sync::Arc<T,A>::drop_slow
; Function Attrs: noinline nounwind nonlazybind
define internal fastcc void @"_ZN5alloc4sync16Arc$LT$T$C$A$GT$9drop_slow17he1e8fd08c7e53f08E"(ptr align 8 %self) unnamed_addr #2 !dbg !1856 {
start:
  %_x = alloca { ptr, ptr }, align 8
  %self1 = load ptr, ptr %self, align 8, !dbg !1857, !nonnull !16, !noundef !16
  %_3 = getelementptr inbounds %"alloc::sync::ArcInner<std::thread::Packet<'_, ()>>", ptr %self1, i32 0, i32 2, !dbg !1861
; call core::ptr::drop_in_place<std::thread::Packet<()>>
  call fastcc void @"_ZN4core3ptr56drop_in_place$LT$std..thread..Packet$LT$$LP$$RP$$GT$$GT$17hd87058fe370f9ee8E"(ptr align 8 %_3) #29, !dbg !1863
  %_5 = load ptr, ptr %self, align 8, !dbg !1864, !nonnull !16, !noundef !16
  %_6 = getelementptr i8, ptr %self, i64 8, !dbg !1865
  store ptr %_5, ptr %_x, align 8, !dbg !1866
  %i = getelementptr inbounds { ptr, ptr }, ptr %_x, i32 0, i32 1, !dbg !1866
  store ptr %_6, ptr %i, align 8, !dbg !1866
; call core::ptr::drop_in_place<alloc::sync::Weak<std::thread::Packet<()>,&alloc::alloc::Global>>
  call fastcc void @"_ZN4core3ptr108drop_in_place$LT$alloc..sync..Weak$LT$std..thread..Packet$LT$$LP$$RP$$GT$$C$$RF$alloc..alloc..Global$GT$$GT$17hf37f8b060b403758E"(ptr align 8 %_x) #29, !dbg !1867
  ret void, !dbg !1871
}

; alloc::sync::Arc<T,A>::is_unique
; Function Attrs: nounwind nonlazybind
define internal fastcc zeroext i1 @"_ZN5alloc4sync16Arc$LT$T$C$A$GT$9is_unique17h9ff35617fe11d8aaE"(ptr nocapture readonly align 8 %self) unnamed_addr #3 !dbg !1872 {
start:
  %_3 = alloca { i64, i64 }, align 8
  %_0 = alloca i8, align 1
  %self1 = load ptr, ptr %self, align 8, !dbg !1873, !nonnull !16, !noundef !16
  %_17 = getelementptr inbounds %"alloc::sync::ArcInner<std::thread::Packet<'_, ()>>", ptr %self1, i32 0, i32 1, !dbg !1882
; call core::sync::atomic::atomic_compare_exchange
  %i = call fastcc { i64, i64 } @_ZN4core4sync6atomic23atomic_compare_exchange17h2e5e6042aabb1dbbE(ptr %_17, i64 1, i64 -1, i8 2, i8 0) #29, !dbg !1890
  store { i64, i64 } %i, ptr %_3, align 8, !dbg !1890
  %_18 = load i64, ptr %_3, align 8, !dbg !1891, !range !109, !noundef !16
  %i8 = icmp ne i64 %_18, 0, !dbg !1895
  br i1 %i8, label %bb2, label %Flow, !dbg !1895

Flow:                                             ; preds = %bb2, %start
  %0 = phi i1 [ false, %bb2 ], [ true, %start ], !dbg !1895
  br i1 %0, label %bb1, label %bb3, !dbg !1895

bb1:                                              ; preds = %Flow
  %self4 = load ptr, ptr %self, align 8, !dbg !1896, !nonnull !16, !noundef !16
; call core::sync::atomic::atomic_load
  %_6 = call fastcc i64 @_ZN4core4sync6atomic11atomic_load17hdd2f74c8bc3b7284E(ptr %self4, i8 2) #29, !dbg !1903
  %unique = icmp eq i64 %_6, 1, !dbg !1908
  %self5 = load ptr, ptr %self, align 8, !dbg !1909, !nonnull !16, !noundef !16
  %_38 = getelementptr inbounds %"alloc::sync::ArcInner<std::thread::Packet<'_, ()>>", ptr %self5, i32 0, i32 1, !dbg !1917
; call core::sync::atomic::atomic_store
  call fastcc void @_ZN4core4sync6atomic12atomic_store17h14c506ef093836f9E(ptr %_38, i64 1, i8 1) #29, !dbg !1924
  %i9 = zext i1 %unique to i8, !dbg !1925
  store i8 %i9, ptr %_0, align 1, !dbg !1925
  br label %bb3, !dbg !1926

bb2:                                              ; preds = %start
  store i8 0, ptr %_0, align 1, !dbg !1927
  br label %Flow, !dbg !1926

bb3:                                              ; preds = %bb1, %Flow
  %i10 = phi i1 [ false, %Flow ], [ %unique, %bb1 ], !dbg !1928
  ret i1 %i10, !dbg !1928
}

; alloc::alloc::Global::alloc_impl
; Function Attrs: inlinehint nounwind nonlazybind
define internal fastcc { ptr, i64 } @_ZN5alloc5alloc6Global10alloc_impl17h829978be4ce278edE(i64 %arg, i64 %arg13, i1 zeroext %zeroed) unnamed_addr #1 !dbg !1929 {
start:
  %zeroed.inv = xor i1 %zeroed, true
  %i = alloca i8, align 1
  %_76 = alloca { ptr, i64 }, align 8
  %_75 = alloca %"core::ptr::metadata::PtrRepr<[u8]>", align 8
  %_62 = alloca ptr, align 8
  %_57 = alloca i64, align 8
  %_43 = alloca i64, align 8
  %_34 = alloca { ptr, i64 }, align 8
  %_33 = alloca %"core::ptr::metadata::PtrRepr<[u8]>", align 8
  %_22 = alloca i64, align 8
  %_18 = alloca { ptr, i64 }, align 8
  %self4 = alloca ptr, align 8
  %self3 = alloca ptr, align 8
  %_12 = alloca ptr, align 8
  %layout2 = alloca { i64, i64 }, align 8
  %layout1 = alloca { i64, i64 }, align 8
  %raw_ptr = alloca ptr, align 8
  %data = alloca ptr, align 8
  %_6 = alloca { ptr, i64 }, align 8
  %_0 = alloca { ptr, i64 }, align 8
  %layout = alloca { i64, i64 }, align 8
  store i64 %arg, ptr %layout, align 8
