; ModuleID = 'RUSTSEC_2020_0142.b30029bc0475a66e-cgu.0'
source_filename = "RUSTSEC_2020_0142.b30029bc0475a66e-cgu.0"
target datalayout = "e-m:e-p270:32:32-p271:32:32-p272:64:64-i64:64-f80:128-n8:16:32:64-S128"
target triple = "x86_64-unknown-linux-gnu"

%"core::ptr::metadata::PtrRepr<[u8]>" = type { [2 x i64] }
%"core::result::Result<usize, std::io::error::Error>" = type { i64, [1 x i64] }
%"core::result::Result<usize, std::io::error::Error>::Ok" = type { [1 x i64], i64 }
%"core::result::Result<usize, std::io::error::Error>::Err" = type { [1 x i64], ptr }
%"core::ptr::metadata::PtrComponents<()>" = type { ptr, {} }
%"core::ptr::metadata::PtrRepr<()>" = type { [1 x i64] }
%"std::io::error::ErrorData<alloc::boxed::Box<std::io::error::Custom>>::Os" = type { [1 x i32], i32 }
%"std::io::error::ErrorData<alloc::boxed::Box<std::io::error::Custom>>::Simple" = type { [1 x i8], i8 }
%"std::io::error::ErrorData<alloc::boxed::Box<std::io::error::Custom>>::SimpleMessage" = type { [1 x i64], ptr }
%"std::io::error::ErrorData<alloc::boxed::Box<std::io::error::Custom>>::Custom" = type { [1 x i64], ptr }
%"std::io::error::ErrorData<&std::io::error::Custom>::Os" = type { [1 x i32], i32 }
%"std::io::error::ErrorData<&std::io::error::Custom>::Simple" = type { [1 x i8], i8 }
%"std::io::error::ErrorData<&std::io::error::Custom>::SimpleMessage" = type { [1 x i64], ptr }
%"std::io::error::ErrorData<&std::io::error::Custom>::Custom" = type { [1 x i64], ptr }
%"std::io::error::ErrorData<&std::io::error::Custom>" = type { i8, [15 x i8] }
%"std::io::error::SimpleMessage" = type { { ptr, i64 }, i8, [7 x i8] }
%"std::io::error::Custom" = type { { ptr, ptr }, i8, [7 x i8] }
%"core::option::Option<core::result::Result<(), alloc::boxed::Box<dyn core::any::Any + core::marker::Send>>>" = type { i64, [2 x i64] }
%"std::thread::JoinInner<'_, ()>" = type { ptr, ptr, i64 }
%"alloc::sync::ArcInner<std::thread::Packet<'_, ()>>" = type { %"core::sync::atomic::AtomicUsize", %"core::sync::atomic::AtomicUsize", %"std::thread::Packet<'_, ()>" }
%"core::sync::atomic::AtomicUsize" = type { i64 }
%"std::thread::Packet<'_, ()>" = type { ptr, %"core::cell::UnsafeCell<core::option::Option<core::result::Result<(), alloc::boxed::Box<dyn core::any::Any + core::marker::Send>>>>", %"core::marker::PhantomData<core::option::Option<&std::thread::scoped::ScopeData>>" }
%"core::cell::UnsafeCell<core::option::Option<core::result::Result<(), alloc::boxed::Box<dyn core::any::Any + core::marker::Send>>>>" = type { %"core::option::Option<core::result::Result<(), alloc::boxed::Box<dyn core::any::Any + core::marker::Send>>>" }
%"core::marker::PhantomData<core::option::Option<&std::thread::scoped::ScopeData>>" = type {}
%"core::option::Option<core::result::Result<(), alloc::boxed::Box<dyn core::any::Any + core::marker::Send>>>::Some" = type { [1 x i64], { ptr, ptr } }
%"core::option::Option<alloc::string::String>" = type { i64, [2 x i64] }
%"std::thread::Builder" = type { { i64, i64 }, %"core::option::Option<alloc::string::String>" }
%"core::result::Result<std::thread::JoinHandle<()>, std::io::error::Error>" = type { ptr, [2 x i64] }
%"core::result::Result<std::thread::JoinInner<'_, ()>, std::io::error::Error>" = type { ptr, [2 x i64] }
%"core::ops::control_flow::ControlFlow<core::result::Result<core::convert::Infallible, std::io::error::Error>, std::thread::JoinInner<'_, ()>>" = type { ptr, [2 x i64] }
%"core::result::Result<std::thread::JoinInner<'_, ()>, std::io::error::Error>::Err" = type { [1 x i64], ptr }
%"core::ops::control_flow::ControlFlow<core::result::Result<core::convert::Infallible, std::io::error::Error>, std::thread::JoinInner<'_, ()>>::Break" = type { [1 x i64], ptr }
%"core::result::Result<std::thread::JoinHandle<()>, std::io::error::Error>::Err" = type { [1 x i64], ptr }
%"alloc::ffi::c_str::NulError" = type { %"alloc::vec::Vec<u8>", i64 }
%"alloc::vec::Vec<u8>" = type { { i64, ptr }, i64 }
%"core::result::Result<alloc::ffi::c_str::CString, alloc::ffi::c_str::NulError>" = type { i64, [3 x i64] }
%"alloc::string::String" = type { %"alloc::vec::Vec<u8>" }
%"core::result::Result<std::sys::unix::thread::Thread, std::io::error::Error>" = type { i64, [1 x i64] }
%"core::ops::control_flow::ControlFlow<core::result::Result<core::convert::Infallible, std::io::error::Error>, std::sys::unix::thread::Thread>" = type { i64, [1 x i64] }
%"{closure@std::thread::Builder::spawn_unchecked_<'_, '_, {closure@data/RUSTSEC_2020_0142.rs:72:28: 72:35}, ()>::{closure#1}}" = type { ptr, ptr, ptr, ptr }
%"core::result::Result<alloc::ffi::c_str::CString, alloc::ffi::c_str::NulError>::Ok" = type { [1 x i64], { ptr, i64 } }
%"alloc::sync::ArcInner<std::thread::scoped::ScopeData>" = type { %"core::sync::atomic::AtomicUsize", %"core::sync::atomic::AtomicUsize", %"std::thread::scoped::ScopeData" }
%"std::thread::scoped::ScopeData" = type { ptr, %"core::sync::atomic::AtomicUsize", %"core::sync::atomic::AtomicBool", [7 x i8] }
%"core::sync::atomic::AtomicBool" = type { i8 }
%"core::result::Result<std::sys::unix::thread::Thread, std::io::error::Error>::Ok" = type { [1 x i64], i64 }
%"core::ops::control_flow::ControlFlow<core::result::Result<core::convert::Infallible, std::io::error::Error>, std::sys::unix::thread::Thread>::Continue" = type { [1 x i64], i64 }
%"core::result::Result<std::sys::unix::thread::Thread, std::io::error::Error>::Err" = type { [1 x i64], ptr }
%"core::ops::control_flow::ControlFlow<core::result::Result<core::convert::Infallible, std::io::error::Error>, std::sys::unix::thread::Thread>::Break" = type { [1 x i64], ptr }
%"{closure@std::thread::Builder::spawn_unchecked_<'_, '_, {closure@data/RUSTSEC_2020_0142.rs:51:28: 51:35}, ()>::{closure#1}}" = type { ptr, ptr, ptr, ptr }
%"{closure@std::thread::Builder::spawn_unchecked_<'_, '_, {closure@data/RUSTSEC_2020_0142.rs:58:28: 58:35}, ()>::{closure#1}}" = type { ptr, ptr, ptr, ptr }
%"{closure@std::thread::Builder::spawn_unchecked_<'_, '_, {closure@data/RUSTSEC_2020_0142.rs:65:28: 65:35}, ()>::{closure#1}}" = type { ptr, ptr, ptr, ptr }
%"core::option::Option<core::ops::range::Range<usize>>" = type { i64, [2 x i64] }
%"std::panicking::try::Data<core::panic::unwind_safe::AssertUnwindSafe<{closure@std::thread::Builder::spawn_unchecked_<'_, '_, {closure@data/RUSTSEC_2020_0142.rs:65:28: 65:35}, ()>::{closure#1}::{closure#0}}>, ()>" = type { [2 x i64] }
%"std::panicking::try::Data<core::panic::unwind_safe::AssertUnwindSafe<{closure@std::thread::Builder::spawn_unchecked_<'_, '_, {closure@data/RUSTSEC_2020_0142.rs:58:28: 58:35}, ()>::{closure#1}::{closure#0}}>, ()>" = type { [2 x i64] }
%"std::panicking::try::Data<core::panic::unwind_safe::AssertUnwindSafe<{closure@<std::thread::Packet<'_, ()> as core::ops::drop::Drop>::drop::{closure#0}}>, ()>" = type { [2 x i64] }
%"core::fmt::builders::DebugList<'_, '_>" = type { %"core::fmt::builders::DebugInner<'_, '_>" }
%"core::fmt::builders::DebugInner<'_, '_>" = type { ptr, i8, i8, [6 x i8] }
%"core::fmt::Formatter<'_>" = type { { i64, i64 }, { i64, i64 }, { ptr, ptr }, i32, i32, i8, [7 x i8] }
%"core::fmt::Arguments<'_>" = type { { ptr, i64 }, { ptr, i64 }, { ptr, i64 } }
%"core::option::Option<(core::ptr::non_null::NonNull<u8>, core::alloc::layout::Layout)>" = type { [1 x i64], i64, [1 x i64] }
%"std::sync::mutex::Mutex<alloc::vec::Vec<u8>>" = type { %"std::sys::unix::locks::futex_mutex::Mutex", %"std::sync::poison::Flag", [3 x i8], %"core::cell::UnsafeCell<alloc::vec::Vec<u8>>" }
%"std::sys::unix::locks::futex_mutex::Mutex" = type { %"core::sync::atomic::AtomicU32" }
%"core::sync::atomic::AtomicU32" = type { i32 }
%"std::sync::poison::Flag" = type { %"core::sync::atomic::AtomicBool" }
%"core::cell::UnsafeCell<alloc::vec::Vec<u8>>" = type { %"alloc::vec::Vec<u8>" }
%"alloc::sync::ArcInner<std::thread::Inner>" = type { %"core::sync::atomic::AtomicUsize", %"core::sync::atomic::AtomicUsize", %"std::thread::Inner" }
%"std::thread::Inner" = type { i64, { ptr, i64 }, %"std::sys_common::thread_parking::futex::Parker", [1 x i32] }
%"std::sys_common::thread_parking::futex::Parker" = type { %"core::sync::atomic::AtomicU32" }
%"alloc::sync::ArcInner<std::sync::mutex::Mutex<alloc::vec::Vec<u8>>>" = type { %"core::sync::atomic::AtomicUsize", %"core::sync::atomic::AtomicUsize", %"std::sync::mutex::Mutex<alloc::vec::Vec<u8>>" }
%"std::sys::unix::stdio::Stderr" = type { {} }
%"std::io::error::ErrorData<alloc::boxed::Box<std::io::error::Custom>>" = type { i8, [15 x i8] }
%"std::thread::JoinHandle<()>" = type { %"std::thread::JoinInner<'_, ()>" }

@alloc_8d68fcbc011419193bd208f22e2789d1 = private unnamed_addr constant <{ [28 x i8] }> <{ [28 x i8] c"failed to write whole buffer" }>, align 1
@alloc_626cc8bfd6c94d404aa777557e31db63 = private unnamed_addr constant <{ ptr, [9 x i8], [7 x i8] }> <{ ptr @alloc_8d68fcbc011419193bd208f22e2789d1, [9 x i8] c"\1C\00\00\00\00\00\00\00\17", [7 x i8] undef }>, align 8
@alloc_2f83dfc9a60946d6dd4382ae2c85abff = private unnamed_addr constant <{ [73 x i8] }> <{ [73 x i8] c"/rustc/07dca489ac2d933c78d3c5158e3f43beefeb02ce/library/std/src/io/mod.rs" }>, align 1
@alloc_4281a0c14125330c5d3c45e00517e107 = private unnamed_addr constant <{ ptr, [16 x i8] }> <{ ptr @alloc_2f83dfc9a60946d6dd4382ae2c85abff, [16 x i8] c"I\00\00\00\00\00\00\00\8D\06\00\00$\00\00\00" }>, align 8
@vtable.0 = private unnamed_addr constant <{ ptr, [16 x i8], ptr, ptr, ptr }> <{ ptr @"_ZN4core3ptr92drop_in_place$LT$std..io..Write..write_fmt..Adapter$LT$std..sys..unix..stdio..Stderr$GT$$GT$17hb114f64efd23630eE", [16 x i8] c"\10\00\00\00\00\00\00\00\08\00\00\00\00\00\00\00", ptr @"_ZN80_$LT$std..io..Write..write_fmt..Adapter$LT$T$GT$$u20$as$u20$core..fmt..Write$GT$9write_str17h1a72e95e22fd3815E", ptr @_ZN4core3fmt5Write10write_char17h37d7c311a9de9ea2E, ptr @_ZN4core3fmt5Write9write_fmt17he574f70889fc5a25E }>, align 8
@alloc_118e5dd62e18907a47aec3e2be501119 = private unnamed_addr constant <{ [15 x i8] }> <{ [15 x i8] c"formatter error" }>, align 1
@alloc_5d9af7a776dc0d9eecd628aaf786bef9 = private unnamed_addr constant <{ ptr, [9 x i8], [7 x i8] }> <{ ptr @alloc_118e5dd62e18907a47aec3e2be501119, [9 x i8] c"\0F\00\00\00\00\00\00\00(", [7 x i8] undef }>, align 8
@vtable.1 = private unnamed_addr constant <{ ptr, [16 x i8], ptr, ptr, ptr }> <{ ptr @"_ZN4core3ptr26drop_in_place$LT$usize$GT$17h065097eab7b6fafcE", [16 x i8] c"\08\00\00\00\00\00\00\00\08\00\00\00\00\00\00\00", ptr @"_ZN4core3ops8function6FnOnce40call_once$u7b$$u7b$vtable.shim$u7d$$u7d$17h05f8d9b036998a5eE", ptr @"_ZN3std2rt10lang_start28_$u7b$$u7b$closure$u7d$$u7d$17h867244e57ae5d8aeE", ptr @"_ZN3std2rt10lang_start28_$u7b$$u7b$closure$u7d$$u7d$17h867244e57ae5d8aeE" }>, align 8
@alloc_5f55955de67e57c79064b537689facea = private unnamed_addr constant <{ [43 x i8] }> <{ [43 x i8] c"called `Option::unwrap()` on a `None` value" }>, align 1
@alloc_33b1e69a422a81942b7149db811cc384 = private unnamed_addr constant <{ [77 x i8] }> <{ [77 x i8] c"/rustc/07dca489ac2d933c78d3c5158e3f43beefeb02ce/library/std/src/thread/mod.rs" }>, align 1
@alloc_210632c49b2fd4ef0dc8e7c88d1b4c5b = private unnamed_addr constant <{ ptr, [16 x i8] }> <{ ptr @alloc_33b1e69a422a81942b7149db811cc384, [16 x i8] c"M\00\00\00\00\00\00\00\ED\05\00\00(\00\00\00" }>, align 8
@alloc_75b83b2c75f3b36b94a7518a66ad8875 = private unnamed_addr constant <{ ptr, [16 x i8] }> <{ ptr @alloc_33b1e69a422a81942b7149db811cc384, [16 x i8] c"M\00\00\00\00\00\00\00\ED\05\00\00I\00\00\00" }>, align 8
@alloc_e3605bf48dd8479a638909176cc37fce = private unnamed_addr constant <{ [22 x i8] }> <{ [22 x i8] c"failed to spawn thread" }>, align 1
@alloc_1f8c62d57f163807c7029893ad26ce72 = private unnamed_addr constant <{ ptr, [16 x i8] }> <{ ptr @alloc_33b1e69a422a81942b7149db811cc384, [16 x i8] c"M\00\00\00\00\00\00\00\AC\02\00\00\1D\00\00\00" }>, align 8
@alloc_498705839b3ae85466bce6e7ebfe4996 = private unnamed_addr constant <{ [47 x i8] }> <{ [47 x i8] c"thread name may not contain interior null bytes" }>, align 1
@alloc_10ce3643ab05b89124ccab86e25db141 = private unnamed_addr constant <{ ptr, [16 x i8] }> <{ ptr @alloc_33b1e69a422a81942b7149db811cc384, [16 x i8] c"M\00\00\00\00\00\00\00\DC\01\00\00 \00\00\00" }>, align 8
@vtable.4 = private unnamed_addr constant <{ ptr, [16 x i8], ptr }> <{ ptr @"_ZN4core3ptr159drop_in_place$LT$std..thread..Builder..spawn_unchecked_$LT$RUSTSEC_2020_0142..main..$u7b$$u7b$closure$u7d$$u7d$$C$$LP$$RP$$GT$..$u7b$$u7b$closure$u7d$$u7d$$GT$17h719a7a36a8a9de9bE", [16 x i8] c" \00\00\00\00\00\00\00\08\00\00\00\00\00\00\00", ptr @"_ZN4core3ops8function6FnOnce40call_once$u7b$$u7b$vtable.shim$u7d$$u7d$17h118e2d1e56114f4bE" }>, align 8
@vtable.5 = private unnamed_addr constant <{ ptr, [16 x i8], ptr }> <{ ptr @"_ZN4core3ptr159drop_in_place$LT$std..thread..Builder..spawn_unchecked_$LT$RUSTSEC_2020_0142..main..$u7b$$u7b$closure$u7d$$u7d$$C$$LP$$RP$$GT$..$u7b$$u7b$closure$u7d$$u7d$$GT$17h719a7a36a8a9de9bE", [16 x i8] c" \00\00\00\00\00\00\00\08\00\00\00\00\00\00\00", ptr @"_ZN4core3ops8function6FnOnce40call_once$u7b$$u7b$vtable.shim$u7d$$u7d$17h3554951d62d61094E" }>, align 8
@vtable.6 = private unnamed_addr constant <{ ptr, [16 x i8], ptr }> <{ ptr @"_ZN4core3ptr26drop_in_place$LT$usize$GT$17h065097eab7b6fafcE", [16 x i8] c"\08\00\00\00\00\00\00\00\08\00\00\00\00\00\00\00", ptr @"_ZN42_$LT$$RF$T$u20$as$u20$core..fmt..Debug$GT$3fmt17h0ce7eef9186b453cE" }>, align 8
@alloc_91c7fa63c3cfeaa3c795652d5cf060e4 = private unnamed_addr constant <{ [12 x i8] }> <{ [12 x i8] c"invalid args" }>, align 1
@alloc_af99043bc04c419363a7f04d23183506 = private unnamed_addr constant <{ ptr, [8 x i8] }> <{ ptr @alloc_91c7fa63c3cfeaa3c795652d5cf060e4, [8 x i8] c"\0C\00\00\00\00\00\00\00" }>, align 8
@alloc_513570631223a12912d85da2bec3b15a = private unnamed_addr constant <{}> zeroinitializer, align 8
@alloc_4243f84a3a879718e5490fe547b0ab9c = private unnamed_addr constant <{ [75 x i8] }> <{ [75 x i8] c"/rustc/07dca489ac2d933c78d3c5158e3f43beefeb02ce/library/core/src/fmt/mod.rs" }>, align 1
@alloc_5f330cd7dff757941d785f386d839300 = private unnamed_addr constant <{ ptr, [16 x i8] }> <{ ptr @alloc_4243f84a3a879718e5490fe547b0ab9c, [16 x i8] c"K\00\00\00\00\00\00\00M\01\00\00\0D\00\00\00" }>, align 8
@alloc_87aade1e32141a008cc1d76d37ad88ac = private unnamed_addr constant <{ [80 x i8] }> <{ [80 x i8] c"/rustc/07dca489ac2d933c78d3c5158e3f43beefeb02ce/library/core/src/char/methods.rs" }>, align 1
@alloc_6a0114d2661e84bef3991f7200e47da8 = private unnamed_addr constant <{ ptr, [16 x i8] }> <{ ptr @alloc_87aade1e32141a008cc1d76d37ad88ac, [16 x i8] c"P\00\00\00\00\00\00\00\05\07\00\00\0D\00\00\00" }>, align 8
@alloc_6b031f9bca8204235732c7c365d04a1d = private unnamed_addr constant <{ [18 x i8] }> <{ [18 x i8] c"encode_utf8: need " }>, align 1
@alloc_28d13efb0f9a95ccb5d02ec33dd195cf = private unnamed_addr constant <{ [19 x i8] }> <{ [19 x i8] c" bytes to encode U+" }>, align 1
@alloc_0d928972d2befd736e581c7fcc5a2f9a = private unnamed_addr constant <{ [21 x i8] }> <{ [21 x i8] c", but the buffer has " }>, align 1
@alloc_d51214f097f67314513b76e97e13aa6b = private unnamed_addr constant <{ ptr, [8 x i8], ptr, [8 x i8], ptr, [8 x i8] }> <{ ptr @alloc_6b031f9bca8204235732c7c365d04a1d, [8 x i8] c"\12\00\00\00\00\00\00\00", ptr @alloc_28d13efb0f9a95ccb5d02ec33dd195cf, [8 x i8] c"\13\00\00\00\00\00\00\00", ptr @alloc_0d928972d2befd736e581c7fcc5a2f9a, [8 x i8] c"\15\00\00\00\00\00\00\00" }>, align 8
@alloc_15e56ccbce15945ea86b75a3c6d59ec8 = private unnamed_addr constant <{ ptr, [16 x i8] }> <{ ptr @alloc_87aade1e32141a008cc1d76d37ad88ac, [16 x i8] c"P\00\00\00\00\00\00\00\FE\06\00\00\0E\00\00\00" }>, align 8
@alloc_9cd20c3e415f4d39f0ceb012cb758628 = private unnamed_addr constant <{ [40 x i8] }> <{ [40 x i8] c"there is no such thing as a release load" }>, align 1
@alloc_cf8f91dd8bc9347b20052f6ccc905cd7 = private unnamed_addr constant <{ ptr, [8 x i8] }> <{ ptr @alloc_9cd20c3e415f4d39f0ceb012cb758628, [8 x i8] c"(\00\00\00\00\00\00\00" }>, align 8
@alloc_6c138c94c234ed7dfd455fcb63eead43 = private unnamed_addr constant <{ [79 x i8] }> <{ [79 x i8] c"/rustc/07dca489ac2d933c78d3c5158e3f43beefeb02ce/library/core/src/sync/atomic.rs" }>, align 1
@alloc_4c32346d01eeb3c0619dc95e0468893e = private unnamed_addr constant <{ ptr, [16 x i8] }> <{ ptr @alloc_6c138c94c234ed7dfd455fcb63eead43, [16 x i8] c"O\00\00\00\00\00\00\00\DB\0C\00\00\18\00\00\00" }>, align 8
@alloc_96ab912d0054b46da785b206a96c9a45 = private unnamed_addr constant <{ [49 x i8] }> <{ [49 x i8] c"there is no such thing as an acquire-release load" }>, align 1
@alloc_7e8e9a1d4bc7d0bbec692f0a50681e22 = private unnamed_addr constant <{ ptr, [8 x i8] }> <{ ptr @alloc_96ab912d0054b46da785b206a96c9a45, [8 x i8] c"1\00\00\00\00\00\00\00" }>, align 8
@alloc_93c532d79ae5a1fe4b07989efd8a35e4 = private unnamed_addr constant <{ ptr, [16 x i8] }> <{ ptr @alloc_6c138c94c234ed7dfd455fcb63eead43, [16 x i8] c"O\00\00\00\00\00\00\00\DC\0C\00\00\17\00\00\00" }>, align 8
@alloc_bf39103a6db665396aab4632362d9353 = private unnamed_addr constant <{ [42 x i8] }> <{ [42 x i8] c"there is no such thing as an acquire store" }>, align 1
@alloc_47c752ba42fbab56d43a37cfd56e4899 = private unnamed_addr constant <{ ptr, [8 x i8] }> <{ ptr @alloc_bf39103a6db665396aab4632362d9353, [8 x i8] c"*\00\00\00\00\00\00\00" }>, align 8
@alloc_cb63d255000c7e9fed7db8f9c4b60326 = private unnamed_addr constant <{ ptr, [16 x i8] }> <{ ptr @alloc_6c138c94c234ed7dfd455fcb63eead43, [16 x i8] c"O\00\00\00\00\00\00\00\CC\0C\00\00\18\00\00\00" }>, align 8
@alloc_00c0bce0fa6327f8ec8e69d6d765d508 = private unnamed_addr constant <{ [50 x i8] }> <{ [50 x i8] c"there is no such thing as an acquire-release store" }>, align 1
@alloc_f8dbac861f87e25e445761cc4af66745 = private unnamed_addr constant <{ ptr, [8 x i8] }> <{ ptr @alloc_00c0bce0fa6327f8ec8e69d6d765d508, [8 x i8] c"2\00\00\00\00\00\00\00" }>, align 8
@alloc_2061bd2e099bb1065f735aed396f79a4 = private unnamed_addr constant <{ ptr, [16 x i8] }> <{ ptr @alloc_6c138c94c234ed7dfd455fcb63eead43, [16 x i8] c"O\00\00\00\00\00\00\00\CD\0C\00\00\17\00\00\00" }>, align 8
@alloc_5a43f8d94dd4505c1dba43832ce73af8 = private unnamed_addr constant <{ [52 x i8] }> <{ [52 x i8] c"there is no such thing as a release failure ordering" }>, align 1
@alloc_04ab601c54c6e0a22ff11d72dc7f4511 = private unnamed_addr constant <{ ptr, [8 x i8] }> <{ ptr @alloc_5a43f8d94dd4505c1dba43832ce73af8, [8 x i8] c"4\00\00\00\00\00\00\00" }>, align 8
@alloc_826fa8dc4bf9d95988bea67cf29fdc26 = private unnamed_addr constant <{ ptr, [16 x i8] }> <{ ptr @alloc_6c138c94c234ed7dfd455fcb63eead43, [16 x i8] c"O\00\00\00\00\00\00\000\0D\00\00\1D\00\00\00" }>, align 8
@alloc_7adef5546d83b439c7829602020737c6 = private unnamed_addr constant <{ [61 x i8] }> <{ [61 x i8] c"there is no such thing as an acquire-release failure ordering" }>, align 1
@alloc_dd7d8f77c173bf31726eae321f955bec = private unnamed_addr constant <{ ptr, [8 x i8] }> <{ ptr @alloc_7adef5546d83b439c7829602020737c6, [8 x i8] c"=\00\00\00\00\00\00\00" }>, align 8
@alloc_69680bf1a9adc0c1931d0dbd2195eaef = private unnamed_addr constant <{ ptr, [16 x i8] }> <{ ptr @alloc_6c138c94c234ed7dfd455fcb63eead43, [16 x i8] c"O\00\00\00\00\00\00\00/\0D\00\00\1C\00\00\00" }>, align 8
@alloc_a65db75132b92a882fd01eb367d64c4a = private unnamed_addr constant <{ [80 x i8] }> <{ [80 x i8] c"/rustc/07dca489ac2d933c78d3c5158e3f43beefeb02ce/library/core/src/slice/memchr.rs" }>, align 1
@alloc_5bc1b291dae9b898876d4e4c4a53a140 = private unnamed_addr constant <{ ptr, [16 x i8] }> <{ ptr @alloc_a65db75132b92a882fd01eb367d64c4a, [16 x i8] c"P\00\00\00\00\00\00\00+\00\00\00\0C\00\00\00" }>, align 8
@vtable.7 = private unnamed_addr constant <{ ptr, [16 x i8], ptr }> <{ ptr @"_ZN4core3ptr42drop_in_place$LT$std..io..error..Error$GT$17he4aabe759e287c74E", [16 x i8] c"\08\00\00\00\00\00\00\00\08\00\00\00\00\00\00\00", ptr @"_ZN58_$LT$std..io..error..Error$u20$as$u20$core..fmt..Debug$GT$3fmt17h6d10bf911b864f11E" }>, align 8
@vtable.8 = private unnamed_addr constant <{ ptr, [16 x i8], ptr }> <{ ptr @"_ZN4core3ptr48drop_in_place$LT$alloc..ffi..c_str..NulError$GT$17hd55b6ecaa4d1877eE", [16 x i8] c" \00\00\00\00\00\00\00\08\00\00\00\00\00\00\00", ptr @"_ZN64_$LT$alloc..ffi..c_str..NulError$u20$as$u20$core..fmt..Debug$GT$3fmt17h7e6099a6e9e0e9b0E" }>, align 8
@alloc_00ae4b301f7fab8ac9617c03fcbd7274 = private unnamed_addr constant <{ [43 x i8] }> <{ [43 x i8] c"called `Result::unwrap()` on an `Err` value" }>, align 1
@vtable.9 = private unnamed_addr constant <{ ptr, [16 x i8], ptr }> <{ ptr @"_ZN4core3ptr91drop_in_place$LT$alloc..boxed..Box$LT$dyn$u20$core..any..Any$u2b$core..marker..Send$GT$$GT$17h14c5595d5a8d9fa1E", [16 x i8] c"\10\00\00\00\00\00\00\00\08\00\00\00\00\00\00\00", ptr @"_ZN67_$LT$alloc..boxed..Box$LT$T$C$A$GT$$u20$as$u20$core..fmt..Debug$GT$3fmt17h06123c549c5f2ec8E" }>, align 8
@__rust_no_alloc_shim_is_unstable = external global i8
@alloc_49c0eff15ce41ce22a2d8c8b146a94ef = private unnamed_addr constant <{ [8 x i8] }> <{ [8 x i8] c"NulError" }>, align 1
@vtable.a = private unnamed_addr constant <{ ptr, [16 x i8], ptr }> <{ ptr @"_ZN4core3ptr26drop_in_place$LT$usize$GT$17h065097eab7b6fafcE", [16 x i8] c"\08\00\00\00\00\00\00\00\08\00\00\00\00\00\00\00", ptr @"_ZN4core3fmt3num52_$LT$impl$u20$core..fmt..Debug$u20$for$u20$usize$GT$3fmt17h3fb2b556379ff71dE" }>, align 8
@vtable.b = private unnamed_addr constant <{ ptr, [16 x i8], ptr }> <{ ptr @"_ZN4core3ptr26drop_in_place$LT$usize$GT$17h065097eab7b6fafcE", [16 x i8] c"\08\00\00\00\00\00\00\00\08\00\00\00\00\00\00\00", ptr @"_ZN42_$LT$$RF$T$u20$as$u20$core..fmt..Debug$GT$3fmt17hc49e6c0eb86f0163E" }>, align 8
@alloc_3b99cf3889855522042186bfbc89cd01 = private unnamed_addr constant <{ [52 x i8] }> <{ [52 x i8] c"fatal runtime error: thread result panicked on drop\0A" }>, align 1
@alloc_2ca7775364e940040d1ca01e1c1e4d62 = private unnamed_addr constant <{ ptr, [8 x i8] }> <{ ptr @alloc_3b99cf3889855522042186bfbc89cd01, [8 x i8] c"4\00\00\00\00\00\00\00" }>, align 8
@alloc_52a54a83c53623af7c228668fb8fa1fc = private unnamed_addr constant <{ [25 x i8] }> <{ [25 x i8] c"data/RUSTSEC_2020_0142.rs" }>, align 1
@alloc_350e1926cfff49151e2b6f3337acc49b = private unnamed_addr constant <{ ptr, [16 x i8] }> <{ ptr @alloc_52a54a83c53623af7c228668fb8fa1fc, [16 x i8] c"\19\00\00\00\00\00\00\00O\00\00\00\0F\00\00\00" }>, align 8
@alloc_d03f96f34e648108cc415ce4579cab57 = private unnamed_addr constant <{ ptr, [16 x i8] }> <{ ptr @alloc_52a54a83c53623af7c228668fb8fa1fc, [16 x i8] c"\19\00\00\00\00\00\00\00P\00\00\00\0F\00\00\00" }>, align 8
@alloc_84c4fce24edb3ed31acc0486354afb48 = private unnamed_addr constant <{ ptr, [16 x i8] }> <{ ptr @alloc_52a54a83c53623af7c228668fb8fa1fc, [16 x i8] c"\19\00\00\00\00\00\00\00Q\00\00\00\0F\00\00\00" }>, align 8
@alloc_ef4e85a42870f69f53aa75a5a3857223 = private unnamed_addr constant <{ ptr, [16 x i8] }> <{ ptr @alloc_52a54a83c53623af7c228668fb8fa1fc, [16 x i8] c"\19\00\00\00\00\00\00\00R\00\00\00\0F\00\00\00" }>, align 8
@__rustc_debug_gdb_scripts_section__ = linkonce_odr unnamed_addr constant [34 x i8] c"\01gdb_load_rust_pretty_printers.py\00", section ".debug_gdb_scripts", align 1

; <std::thread::Builder::spawn_unchecked_::MaybeDangling<T> as core::ops::drop::Drop>::drop
; Function Attrs: mustprogress nofree norecurse nosync nounwind nonlazybind willreturn memory(none)
define internal fastcc void @"_ZN104_$LT$std..thread..Builder..spawn_unchecked_..MaybeDangling$LT$T$GT$$u20$as$u20$core..ops..drop..Drop$GT$4drop17h0ca92c58a99e73b8E"(ptr nocapture align 8 %self) unnamed_addr #0 !dbg !8 {
start:
  ret void, !dbg !17
}

; <core::ops::range::Range<usize> as core::slice::index::SliceIndex<[T]>>::index_mut
; Function Attrs: inlinehint nounwind nonlazybind
define internal fastcc { ptr, i64 } @"_ZN106_$LT$core..ops..range..Range$LT$usize$GT$$u20$as$u20$core..slice..index..SliceIndex$LT$$u5b$T$u5d$$GT$$GT$9index_mut17h84a2fdd0234eeed5E"(i64 %self.0, i64 %self.1, ptr align 1 %slice.0, i64 %slice.1, ptr align 8 %arg) unnamed_addr #1 !dbg !18 {
start:
  %_24 = alloca { ptr, i64 }, align 8
  %_23 = alloca %"core::ptr::metadata::PtrRepr<[u8]>", align 8
  %_3 = icmp ugt i64 %self.0, %self.1, !dbg !24
  br i1 %_3, label %bb1, label %bb2, !dbg !24

bb2:                                              ; preds = %start
  %_9 = icmp ugt i64 %self.1, %slice.1, !dbg !25
  br i1 %_9, label %bb3, label %bb4, !dbg !25

bb1:                                              ; preds = %start
; call core::slice::index::slice_index_order_fail
  call void @_ZN4core5slice5index22slice_index_order_fail17hcfcb08cd5efc8d4cE(i64 %self.0, i64 %self.1, ptr align 8 %arg) #26, !dbg !26
  unreachable

bb4:                                              ; preds = %bb2
  %new_len = sub nuw i64 %self.1, %self.0, !dbg !27
  %data = getelementptr inbounds i8, ptr %slice.0, i64 %self.0, !dbg !33
  store ptr %data, ptr %_24, align 8, !dbg !43
  %i = getelementptr inbounds { ptr, i64 }, ptr %_24, i32 0, i32 1, !dbg !43
  store i64 %new_len, ptr %i, align 8, !dbg !43
  store ptr %data, ptr %_23, align 8, !dbg !54
  %i4 = getelementptr inbounds { ptr, i64 }, ptr %_23, i32 0, i32 1, !dbg !54
  store i64 %new_len, ptr %i4, align 8, !dbg !54
  %i6 = insertvalue { ptr, i64 } poison, ptr %data, 0, !dbg !55
  %i7 = insertvalue { ptr, i64 } %i6, i64 %new_len, 1, !dbg !55
  ret { ptr, i64 } %i7, !dbg !55

bb3:                                              ; preds = %bb2
; call core::slice::index::slice_end_index_len_fail
  call void @_ZN4core5slice5index24slice_end_index_len_fail17h9163fa4abd3ca1acE(i64 %self.1, i64 %slice.1, ptr align 8 %arg) #26, !dbg !56
  unreachable
}

; <core::panic::unwind_safe::AssertUnwindSafe<F> as core::ops::function::FnOnce<()>>::call_once
; Function Attrs: inlinehint nounwind nonlazybind
define internal fastcc void @"_ZN115_$LT$core..panic..unwind_safe..AssertUnwindSafe$LT$F$GT$$u20$as$u20$core..ops..function..FnOnce$LT$$LP$$RP$$GT$$GT$9call_once17h1459867db48500dcE"(ptr align 8 %self) unnamed_addr #1 !dbg !57 {
start:
; call core::ops::function::FnOnce::call_once
  call fastcc void @_ZN4core3ops8function6FnOnce9call_once17h1f3cc7d7d1d4e539E(ptr align 8 %self) #27, !dbg !62
  ret void, !dbg !63
}

; <core::panic::unwind_safe::AssertUnwindSafe<F> as core::ops::function::FnOnce<()>>::call_once
; Function Attrs: inlinehint nounwind nonlazybind
define internal fastcc void @"_ZN115_$LT$core..panic..unwind_safe..AssertUnwindSafe$LT$F$GT$$u20$as$u20$core..ops..function..FnOnce$LT$$LP$$RP$$GT$$GT$9call_once17h38e631044e1498e6E"(ptr align 8 %self) unnamed_addr #1 !dbg !64 {
start:
; call std::thread::Builder::spawn_unchecked_::{{closure}}::{{closure}}
  call fastcc void @"_ZN3std6thread7Builder16spawn_unchecked_28_$u7b$$u7b$closure$u7d$$u7d$28_$u7b$$u7b$closure$u7d$$u7d$17h4d5ed81b1313ca2eE"(ptr align 8 %self) #27, !dbg !65
  ret void, !dbg !66
}

; <core::panic::unwind_safe::AssertUnwindSafe<F> as core::ops::function::FnOnce<()>>::call_once
; Function Attrs: inlinehint nounwind nonlazybind
define internal fastcc void @"_ZN115_$LT$core..panic..unwind_safe..AssertUnwindSafe$LT$F$GT$$u20$as$u20$core..ops..function..FnOnce$LT$$LP$$RP$$GT$$GT$9call_once17h653bb860dbdbfbd5E"(ptr align 8 %self) unnamed_addr #1 !dbg !67 {
start:
; call std::thread::Builder::spawn_unchecked_::{{closure}}::{{closure}}
  call fastcc void @"_ZN3std6thread7Builder16spawn_unchecked_28_$u7b$$u7b$closure$u7d$$u7d$28_$u7b$$u7b$closure$u7d$$u7d$17h796765079db25233E"(ptr align 8 %self) #27, !dbg !68
  ret void, !dbg !69
}

; std::sys_common::backtrace::__rust_begin_short_backtrace
; Function Attrs: noinline nounwind nonlazybind
define internal fastcc void @_ZN3std10sys_common9backtrace28__rust_begin_short_backtrace17h430ef4338cb0e2aeE(ptr align 8 %f) unnamed_addr #2 !dbg !70 {
start:
; call RUSTSEC_2020_0142::main::{{closure}}
  call fastcc void @"_ZN17RUSTSEC_2020_01424main28_$u7b$$u7b$closure$u7d$$u7d$17hb16d37b1678a69d5E"(ptr align 8 %f) #27, !dbg !74
  call void asm sideeffect "", "~{memory}"(), !dbg !75, !srcloc !82
  ret void, !dbg !83
}

; std::sys_common::backtrace::__rust_begin_short_backtrace
; Function Attrs: noinline nounwind nonlazybind
define internal fastcc void @_ZN3std10sys_common9backtrace28__rust_begin_short_backtrace17h699347fea2ac183eE(ptr align 8 %f) unnamed_addr #2 !dbg !84 {
start:
; call RUSTSEC_2020_0142::main::{{closure}}
  call fastcc void @"_ZN17RUSTSEC_2020_01424main28_$u7b$$u7b$closure$u7d$$u7d$17h3817f10e4587561cE"(ptr align 8 %f) #27, !dbg !85
  call void asm sideeffect "", "~{memory}"(), !dbg !86, !srcloc !82
  ret void, !dbg !91
}

; std::sys_common::backtrace::__rust_begin_short_backtrace
; Function Attrs: noinline nounwind nonlazybind
define internal fastcc void @_ZN3std10sys_common9backtrace28__rust_begin_short_backtrace17h8bf61b3dca378d45E(ptr nocapture readonly %f) unnamed_addr #2 !dbg !92 {
start:
; call core::ops::function::FnOnce::call_once
  call fastcc void @_ZN4core3ops8function6FnOnce9call_once17hd028e86fb25eea3cE(ptr %f) #27, !dbg !93
  call void asm sideeffect "", "~{memory}"(), !dbg !94, !srcloc !82
  ret void, !dbg !99
}

; std::io::Write::write_all
; Function Attrs: nounwind nonlazybind
define internal fastcc ptr @_ZN3std2io5Write9write_all17h02900849c06cba1dE(ptr align 1 %self, ptr align 1 %arg, i64 %arg5) unnamed_addr #3 personality ptr @rust_eh_personality !dbg !100 {
start:
  %_41 = alloca { ptr, i64 }, align 8
  %_40 = alloca %"core::ptr::metadata::PtrRepr<[u8]>", align 8
  %_34 = alloca %"core::ptr::metadata::PtrRepr<[u8]>", align 8
  %_22 = alloca ptr, align 8
  %_21 = alloca ptr, align 8
  %e = alloca ptr, align 8
  %_7 = alloca ptr, align 8
  %_4 = alloca %"core::result::Result<usize, std::io::error::Error>", align 8
  %_0 = alloca ptr, align 8
  %buf = alloca { ptr, i64 }, align 8
  store ptr %arg, ptr %buf, align 8
  %i = getelementptr inbounds { ptr, i64 }, ptr %buf, i32 0, i32 1
  store i64 %arg5, ptr %i, align 8
  br label %bb1, !dbg !104

bb1:                                              ; preds = %bb16, %start
  %self.12 = phi i64 [ %_5.136, %bb16 ], [ %arg5, %start ]
  %self.01 = phi ptr [ %_5.034, %bb16 ], [ %arg, %start ]
  %i7 = icmp eq i64 %self.12, 0, !dbg !105
  br i1 %i7, label %bb2, label %bb3, !dbg !105

bb2:                                              ; preds = %bb1
  store ptr null, ptr %_0, align 8, !dbg !106
  br label %bb14, !dbg !107

bb3:                                              ; preds = %bb1
; call <std::sys::unix::stdio::Stderr as std::io::Write>::write
  call void @"_ZN64_$LT$std..sys..unix..stdio..Stderr$u20$as$u20$std..io..Write$GT$5write17hc551fcdb92d4f4b1E"(ptr sret(%"core::result::Result<usize, std::io::error::Error>") align 8 %_4, ptr align 1 %self, ptr align 1 %self.01, i64 %self.12) #27, !dbg !108
  %_6 = load i64, ptr %_4, align 8, !dbg !108, !range !109, !noundef !16
  %i9 = icmp eq i64 %_6, 0, !dbg !110
  br i1 %i9, label %bb5, label %bb9, !dbg !110

bb14:                                             ; preds = %bb7, %bb12, %bb2
  %i10 = phi ptr [ @alloc_626cc8bfd6c94d404aa777557e31db63, %bb7 ], [ %e4, %bb12 ], [ null, %bb2 ], !dbg !107
  ret ptr %i10, !dbg !107

bb5:                                              ; preds = %bb3
  %i11 = getelementptr inbounds %"core::result::Result<usize, std::io::error::Error>::Ok", ptr %_4, i32 0, i32 1, !dbg !110
  %i12 = load i64, ptr %i11, align 8, !dbg !110, !noundef !16
  %i13 = icmp eq i64 %i12, 0, !dbg !110
  br i1 %i13, label %bb7, label %bb8, !dbg !110

bb9:                                              ; preds = %bb3
  %i14 = getelementptr inbounds %"core::result::Result<usize, std::io::error::Error>::Err", ptr %_4, i32 0, i32 1, !dbg !111
  store ptr %i14, ptr %e, align 8, !dbg !111
  %i14.val = load ptr, ptr %i14, align 8, !dbg !112, !nonnull !16, !noundef !16
; call std::io::error::Error::is_interrupted
  %_13 = call fastcc zeroext i1 @_ZN3std2io5error5Error14is_interrupted17h09c53eba25a57c5aE(ptr %i14.val) #27, !dbg !112
  br i1 %_13, label %bb9.bb19_crit_edge, label %bb12, !dbg !112

bb9.bb19_crit_edge:                               ; preds = %bb9
  %_18.pre = load i64, ptr %_4, align 8, !dbg !113, !range !109
  br label %bb19, !dbg !112

bb7:                                              ; preds = %bb5
  store ptr @alloc_626cc8bfd6c94d404aa777557e31db63, ptr %_22, align 8, !dbg !114
  store ptr @alloc_626cc8bfd6c94d404aa777557e31db63, ptr %_21, align 8, !dbg !136
  store ptr @alloc_626cc8bfd6c94d404aa777557e31db63, ptr %_7, align 8, !dbg !137
  store ptr @alloc_626cc8bfd6c94d404aa777557e31db63, ptr %_0, align 8, !dbg !138
  br label %bb14, !dbg !139

bb8:                                              ; preds = %bb5
  %_27 = icmp ugt i64 %i12, %self.12, !dbg !142
  br i1 %_27, label %bb23, label %bb24, !dbg !142

bb24:                                             ; preds = %bb8
  store ptr %self.01, ptr %_34, align 8, !dbg !152
  %i20 = getelementptr inbounds { ptr, i64 }, ptr %_34, i32 0, i32 1, !dbg !152
  store i64 %self.12, ptr %i20, align 8, !dbg !152
  %new_len = sub nuw i64 %self.12, %i12, !dbg !168
  %data = getelementptr inbounds i8, ptr %self.01, i64 %i12, !dbg !173
  store ptr %data, ptr %_41, align 8, !dbg !180
  %i22 = getelementptr inbounds { ptr, i64 }, ptr %_41, i32 0, i32 1, !dbg !180
  store i64 %new_len, ptr %i22, align 8, !dbg !180
  store ptr %data, ptr %_40, align 8, !dbg !188
  %i26 = getelementptr inbounds { ptr, i64 }, ptr %_40, i32 0, i32 1, !dbg !188
  store i64 %new_len, ptr %i26, align 8, !dbg !188
  store ptr %data, ptr %buf, align 8, !dbg !189
  store i64 %new_len, ptr %i, align 8, !dbg !189
  br label %bb19, !dbg !190

bb23:                                             ; preds = %bb8
; call core::slice::index::slice_start_index_len_fail
  call void @_ZN4core5slice5index26slice_start_index_len_fail17h0187bf4d120fc375E(i64 %i12, i64 %self.12, ptr align 8 @alloc_4281a0c14125330c5d3c45e00517e107) #26, !dbg !191
  unreachable, !dbg !191

bb19:                                             ; preds = %bb9.bb19_crit_edge, %bb24
  %_18 = phi i64 [ %_18.pre, %bb9.bb19_crit_edge ], [ 0, %bb24 ], !dbg !113
  %_5.136 = phi i64 [ %self.12, %bb9.bb19_crit_edge ], [ %new_len, %bb24 ]
  %_5.034 = phi ptr [ %self.01, %bb9.bb19_crit_edge ], [ %data, %bb24 ]
  %i29 = icmp eq i64 %_18, 1, !dbg !113
  br i1 %i29, label %bb18, label %bb16, !dbg !113

bb12:                                             ; preds = %bb9
  %e4 = load ptr, ptr %i14, align 8, !dbg !192, !nonnull !16, !noundef !16
  store ptr %e4, ptr %_0, align 8, !dbg !193
  br label %bb14, !dbg !139

bb16:                                             ; preds = %bb18, %bb19
  br label %bb1, !dbg !104

bb18:                                             ; preds = %bb19
  %i31 = getelementptr inbounds %"core::result::Result<usize, std::io::error::Error>::Err", ptr %_4, i32 0, i32 1, !dbg !113
; call core::ptr::drop_in_place<std::io::error::Error>
  call void @"_ZN4core3ptr42drop_in_place$LT$std..io..error..Error$GT$17he4aabe759e287c74E"(ptr align 8 %i31) #27, !dbg !113
  br label %bb16, !dbg !113
}

; std::io::Write::write_fmt
; Function Attrs: nounwind nonlazybind
define internal fastcc ptr @_ZN3std2io5Write9write_fmt17hd67668c2b1c16f6dE(ptr align 1 %self, ptr align 8 %fmt) unnamed_addr #3 personality ptr @rust_eh_personality !dbg !195 {
start:
  %_16 = alloca ptr, align 8
  %_15 = alloca ptr, align 8
  %_12 = alloca i8, align 1
  %_10 = alloca ptr, align 8
  %_4 = alloca i8, align 1
  %output = alloca { ptr, ptr }, align 8
  %_0 = alloca ptr, align 8
  store i8 1, ptr %_12, align 1, !dbg !196
  store ptr %self, ptr %output, align 8, !dbg !196
  %i = getelementptr inbounds { ptr, ptr }, ptr %output, i32 0, i32 1, !dbg !196
  store ptr null, ptr %i, align 8, !dbg !196
; call core::fmt::write
  %i2 = call zeroext i1 @_ZN4core3fmt5write17h3ed6aeaa977c8e45E(ptr align 1 %output, ptr align 8 @vtable.0, ptr align 8 %fmt) #27, !dbg !197
  %i3 = zext i1 %i2 to i8, !dbg !197
  store i8 %i3, ptr %_4, align 1, !dbg !197
  br i1 %i2, label %bb2, label %Flow27, !dbg !199

Flow27:                                           ; preds = %Flow26, %start
  %0 = phi i1 [ %3, %Flow26 ], [ undef, %start ]
  %1 = phi ptr [ %4, %Flow26 ], [ undef, %start ]
  %2 = phi i1 [ false, %Flow26 ], [ true, %start ], !dbg !199
  br i1 %2, label %bb4, label %bb12, !dbg !199

bb4:                                              ; preds = %Flow27
  store ptr null, ptr %_0, align 8, !dbg !200
  br label %bb12, !dbg !201

bb2:                                              ; preds = %start
  %i8 = load ptr, ptr %i, align 8, !dbg !202, !noundef !16
  %i9 = ptrtoint ptr %i8 to i64, !dbg !202
  %i10 = icmp eq i64 %i9, 0, !dbg !202
  br i1 %i10, label %bb6, label %Flow25, !dbg !212

Flow26:                                           ; preds = %bb5, %Flow25
  %3 = phi i1 [ false, %bb5 ], [ true, %Flow25 ]
  %4 = phi ptr [ %i8, %bb5 ], [ @alloc_5d9af7a776dc0d9eecd628aaf786bef9, %Flow25 ]
  br label %Flow27, !dbg !212

bb12:                                             ; preds = %bb4, %Flow27
  %i18 = phi ptr [ %1, %Flow27 ], [ null, %bb4 ]
  %i11 = phi i1 [ %0, %Flow27 ], [ true, %bb4 ], !dbg !213
  br i1 %i11, label %bb11, label %bb10, !dbg !213

bb6:                                              ; preds = %bb2
  store ptr @alloc_5d9af7a776dc0d9eecd628aaf786bef9, ptr %_16, align 8, !dbg !214
  store ptr @alloc_5d9af7a776dc0d9eecd628aaf786bef9, ptr %_15, align 8, !dbg !227
  store ptr @alloc_5d9af7a776dc0d9eecd628aaf786bef9, ptr %_10, align 8, !dbg !228
  store ptr @alloc_5d9af7a776dc0d9eecd628aaf786bef9, ptr %_0, align 8, !dbg !229
  br label %Flow25, !dbg !230

Flow25:                                           ; preds = %bb6, %bb2
  %5 = phi i1 [ false, %bb6 ], [ true, %bb2 ], !dbg !212
  br i1 %5, label %bb5, label %Flow26, !dbg !212

bb5:                                              ; preds = %Flow25
  store i8 0, ptr %_12, align 1, !dbg !231
  store ptr %i8, ptr %_0, align 8, !dbg !231
  br label %Flow26, !dbg !230

Flow:                                             ; preds = %codeRepl.i, %bb11
  br label %bb10, !dbg !232

bb10:                                             ; preds = %bb12, %Flow
  ret ptr %i18, !dbg !235

bb11:                                             ; preds = %bb12
  %i20 = load ptr, ptr %i, align 8, !dbg !232, !noundef !16
  %i21 = ptrtoint ptr %i20 to i64, !dbg !232
  %i22 = icmp ne i64 %i21, 0, !dbg !232
  br i1 %i22, label %codeRepl.i, label %Flow, !dbg !232

codeRepl.i:                                       ; preds = %bb11
; call core::ptr::drop_in_place<core::result::Result<(),std::io::error::Error>>.9.bb2
  call fastcc void @"_ZN4core3ptr81drop_in_place$LT$core..result..Result$LT$$LP$$RP$$C$std..io..error..Error$GT$$GT$17h4a1195a4661385bbE.9.bb2"(ptr %i), !dbg !232
  br label %Flow
}

; std::io::error::repr_bitpacked::decode_repr
; Function Attrs: inlinehint mustprogress nofree nosync nounwind nonlazybind willreturn memory(argmem: write, inaccessiblemem: readwrite)
define internal fastcc void @_ZN3std2io5error14repr_bitpacked11decode_repr17h81c51d7640b19344E(ptr noalias nocapture writeonly align 8 %_0, ptr %ptr) unnamed_addr #4 personality ptr @rust_eh_personality !dbg !236 {
start:
  %i = alloca ptr, align 8
  %_51 = alloca %"core::ptr::metadata::PtrComponents<()>", align 8
  %_50 = alloca %"core::ptr::metadata::PtrRepr<()>", align 8
  %_26 = alloca i8, align 1
  %_24 = alloca ptr, align 8
  %self1 = alloca ptr, align 8
  %self = alloca i8, align 1
  %bits = alloca i64, align 8
  store i8 1, ptr %_26, align 1, !dbg !237
  %i3 = ptrtoint ptr %ptr to i64, !dbg !238
  store i64 %i3, ptr %bits, align 8, !dbg !238
  %_5 = and i64 %i3, 3, !dbg !243
  switch i64 %_5, label %start.unreachabledefault [
    i64 2, label %bb2
    i64 3, label %bb3
    i64 0, label %bb5
    i64 1, label %bb6
  ], !dbg !245

start.unreachabledefault:                         ; preds = %start
  unreachable

bb2:                                              ; preds = %start
  %_8 = ashr i64 %i3, 32, !dbg !246
  %code = trunc i64 %_8 to i32, !dbg !246
  %i4 = getelementptr inbounds %"std::io::error::ErrorData<alloc::boxed::Box<std::io::error::Custom>>::Os", ptr %_0, i32 0, i32 1, !dbg !247
  store i32 %code, ptr %i4, align 4, !dbg !247
  store i8 0, ptr %_0, align 8, !dbg !247
  br label %bb9, !dbg !249

bb3:                                              ; preds = %start
  %_12 = lshr i64 %i3, 32, !dbg !250
  %kind_bits = trunc i64 %_12 to i32, !dbg !250
; call std::io::error::repr_bitpacked::kind_from_prim
  %i5 = call fastcc i8 @_ZN3std2io5error14repr_bitpacked14kind_from_prim17h8901344262c7fb2bE(i32 %kind_bits) #27, !dbg !251, !range !253
  store i8 %i5, ptr %self, align 1, !dbg !251
  %i7 = icmp eq i8 %i5, 41, !dbg !254
  %_28 = select i1 %i7, i64 0, i64 1, !dbg !254
  %_53 = icmp eq i64 %_28, 1, !dbg !261
  call void @llvm.assume(i1 %_53), !dbg !261
  %i8 = getelementptr inbounds %"std::io::error::ErrorData<alloc::boxed::Box<std::io::error::Custom>>::Simple", ptr %_0, i32 0, i32 1, !dbg !262
  store i8 %i5, ptr %i8, align 1, !dbg !262
  store i8 1, ptr %_0, align 8, !dbg !262
  br label %bb9, !dbg !264

bb5:                                              ; preds = %start
  store ptr %ptr, ptr %self1, align 8, !dbg !265
  %i9 = getelementptr inbounds %"std::io::error::ErrorData<alloc::boxed::Box<std::io::error::Custom>>::SimpleMessage", ptr %_0, i32 0, i32 1, !dbg !274
  store ptr %ptr, ptr %i9, align 8, !dbg !274
  store i8 2, ptr %_0, align 8, !dbg !274
  br label %bb9, !dbg !275

bb6:                                              ; preds = %start
  %i10 = getelementptr i8, ptr %ptr, i64 -1, !dbg !276
  store ptr %i10, ptr %i, align 8, !dbg !276
  store ptr %i10, ptr %_51, align 8, !dbg !287
  call void @llvm.memcpy.p0.p0.i64(ptr align 8 %_50, ptr align 8 %_51, i64 8, i1 false), !dbg !295
  %self2 = load ptr, ptr %_50, align 8, !dbg !295, !noundef !16
  store i8 0, ptr %_26, align 1, !dbg !296
  store ptr %self2, ptr %_24, align 8, !dbg !296
; call alloc::boxed::Box<T>::from_raw
  %_22 = call fastcc align 8 ptr @"_ZN5alloc5boxed12Box$LT$T$GT$8from_raw17ha877d9602e845558E"(ptr %self2) #27, !dbg !296
  %i12 = getelementptr inbounds %"std::io::error::ErrorData<alloc::boxed::Box<std::io::error::Custom>>::Custom", ptr %_0, i32 0, i32 1, !dbg !298
  store ptr %_22, ptr %i12, align 8, !dbg !298
  store i8 3, ptr %_0, align 8, !dbg !298
  br label %bb9, !dbg !299

bb9:                                              ; preds = %bb2, %bb3, %bb5, %bb6
  ret void, !dbg !300
}

; std::io::error::repr_bitpacked::decode_repr
; Function Attrs: inlinehint mustprogress nofree nosync nounwind nonlazybind willreturn memory(argmem: write, inaccessiblemem: readwrite)
define internal fastcc void @_ZN3std2io5error14repr_bitpacked11decode_repr17hbd520eb54b6ffffdE(ptr noalias nocapture writeonly align 8 %_0, ptr %ptr) unnamed_addr #4 personality ptr @rust_eh_personality !dbg !301 {
start:
  %i = alloca ptr, align 8
  %_51 = alloca %"core::ptr::metadata::PtrComponents<()>", align 8
  %_50 = alloca %"core::ptr::metadata::PtrRepr<()>", align 8
  %_26 = alloca i8, align 1
  %_24 = alloca ptr, align 8
  %self1 = alloca ptr, align 8
  %self = alloca i8, align 1
  %bits = alloca i64, align 8
  store i8 1, ptr %_26, align 1, !dbg !302
  %i3 = ptrtoint ptr %ptr to i64, !dbg !303
  store i64 %i3, ptr %bits, align 8, !dbg !303
  %_5 = and i64 %i3, 3, !dbg !308
  switch i64 %_5, label %start.unreachabledefault [
    i64 2, label %bb2
    i64 3, label %bb3
    i64 0, label %bb5
    i64 1, label %bb6
  ], !dbg !310

start.unreachabledefault:                         ; preds = %start
  unreachable

bb2:                                              ; preds = %start
  %_8 = ashr i64 %i3, 32, !dbg !311
  %code = trunc i64 %_8 to i32, !dbg !311
  %i4 = getelementptr inbounds %"std::io::error::ErrorData<&std::io::error::Custom>::Os", ptr %_0, i32 0, i32 1, !dbg !312
  store i32 %code, ptr %i4, align 4, !dbg !312
  store i8 0, ptr %_0, align 8, !dbg !312
  br label %bb9, !dbg !314

bb3:                                              ; preds = %start
  %_12 = lshr i64 %i3, 32, !dbg !315
  %kind_bits = trunc i64 %_12 to i32, !dbg !315
; call std::io::error::repr_bitpacked::kind_from_prim
  %i5 = call fastcc i8 @_ZN3std2io5error14repr_bitpacked14kind_from_prim17h8901344262c7fb2bE(i32 %kind_bits) #27, !dbg !316, !range !253
  store i8 %i5, ptr %self, align 1, !dbg !316
  %i7 = icmp eq i8 %i5, 41, !dbg !318
  %_28 = select i1 %i7, i64 0, i64 1, !dbg !318
  %_53 = icmp eq i64 %_28, 1, !dbg !322
  call void @llvm.assume(i1 %_53), !dbg !322
  %i8 = getelementptr inbounds %"std::io::error::ErrorData<&std::io::error::Custom>::Simple", ptr %_0, i32 0, i32 1, !dbg !323
  store i8 %i5, ptr %i8, align 1, !dbg !323
  store i8 1, ptr %_0, align 8, !dbg !323
  br label %bb9, !dbg !325

bb5:                                              ; preds = %start
  store ptr %ptr, ptr %self1, align 8, !dbg !326
  %i9 = getelementptr inbounds %"std::io::error::ErrorData<&std::io::error::Custom>::SimpleMessage", ptr %_0, i32 0, i32 1, !dbg !335
  store ptr %ptr, ptr %i9, align 8, !dbg !335
  store i8 2, ptr %_0, align 8, !dbg !335
  br label %bb9, !dbg !336

bb6:                                              ; preds = %start
  %i10 = getelementptr i8, ptr %ptr, i64 -1, !dbg !337
  store ptr %i10, ptr %i, align 8, !dbg !337
  store ptr %i10, ptr %_51, align 8, !dbg !348
  call void @llvm.memcpy.p0.p0.i64(ptr align 8 %_50, ptr align 8 %_51, i64 8, i1 false), !dbg !356
  %self2 = load ptr, ptr %_50, align 8, !dbg !356, !noundef !16
  store i8 0, ptr %_26, align 1, !dbg !357
  store ptr %self2, ptr %_24, align 8, !dbg !357
; call std::io::error::repr_bitpacked::Repr::data::{{closure}}
  %_22 = call fastcc align 8 ptr @"_ZN3std2io5error14repr_bitpacked4Repr4data28_$u7b$$u7b$closure$u7d$$u7d$17h10bdd5e7fd970211E"(ptr %self2) #27, !dbg !357
  %i12 = getelementptr inbounds %"std::io::error::ErrorData<&std::io::error::Custom>::Custom", ptr %_0, i32 0, i32 1, !dbg !359
  store ptr %_22, ptr %i12, align 8, !dbg !359
  store i8 3, ptr %_0, align 8, !dbg !359
  br label %bb9, !dbg !360

bb9:                                              ; preds = %bb2, %bb3, %bb5, %bb6
  ret void, !dbg !361
}

; std::io::error::repr_bitpacked::kind_from_prim
; Function Attrs: inlinehint mustprogress nofree norecurse nosync nounwind nonlazybind willreturn memory(none)
define internal fastcc i8 @_ZN3std2io5error14repr_bitpacked14kind_from_prim17h8901344262c7fb2bE(i32 %arg) unnamed_addr #5 !dbg !362 {
start:
  %_0 = alloca i8, align 1
  %ek = alloca i32, align 4
  store i32 %arg, ptr %ek, align 4
  %i = icmp ne i32 %arg, 0, !dbg !363
  br i1 %i, label %bb2, label %Flow162, !dbg !363

Flow162:                                          ; preds = %Flow161, %start
  %0 = phi i8 [ %41, %Flow161 ], [ undef, %start ]
  %1 = phi i1 [ false, %Flow161 ], [ true, %start ], !dbg !363
  br i1 %1, label %bb1, label %bb83, !dbg !363

bb1:                                              ; preds = %Flow162
  store i8 0, ptr %_0, align 1, !dbg !364
  br label %bb83, !dbg !363

bb2:                                              ; preds = %start
  %i41 = icmp ne i32 %arg, 1, !dbg !363
  br i1 %i41, label %bb4, label %Flow160, !dbg !363

Flow83:                                           ; preds = %bb81, %Flow
  %2 = phi i8 [ 40, %bb81 ], [ 41, %Flow ]
  br label %Flow84, !dbg !363

Flow85:                                           ; preds = %bb79, %Flow84
  %3 = phi i8 [ 38, %bb79 ], [ %118, %Flow84 ]
  br label %Flow86, !dbg !363

Flow87:                                           ; preds = %bb77, %Flow86
  %4 = phi i8 [ 36, %bb77 ], [ %116, %Flow86 ]
  br label %Flow88, !dbg !363

Flow89:                                           ; preds = %bb75, %Flow88
  %5 = phi i8 [ 37, %bb75 ], [ %114, %Flow88 ]
  br label %Flow90, !dbg !363

Flow91:                                           ; preds = %bb73, %Flow90
  %6 = phi i8 [ 39, %bb73 ], [ %112, %Flow90 ]
  br label %Flow92, !dbg !363

Flow93:                                           ; preds = %bb71, %Flow92
  %7 = phi i8 [ 35, %bb71 ], [ %110, %Flow92 ]
  br label %Flow94, !dbg !363

Flow95:                                           ; preds = %bb69, %Flow94
  %8 = phi i8 [ 34, %bb69 ], [ %108, %Flow94 ]
  br label %Flow96, !dbg !363

Flow97:                                           ; preds = %bb67, %Flow96
  %9 = phi i8 [ 33, %bb67 ], [ %106, %Flow96 ]
  br label %Flow98, !dbg !363

Flow99:                                           ; preds = %bb65, %Flow98
  %10 = phi i8 [ 32, %bb65 ], [ %104, %Flow98 ]
  br label %Flow100, !dbg !363

Flow101:                                          ; preds = %bb63, %Flow100
  %11 = phi i8 [ 31, %bb63 ], [ %102, %Flow100 ]
  br label %Flow102, !dbg !363

Flow103:                                          ; preds = %bb61, %Flow102
  %12 = phi i8 [ 30, %bb61 ], [ %100, %Flow102 ]
  br label %Flow104, !dbg !363

Flow105:                                          ; preds = %bb59, %Flow104
  %13 = phi i8 [ 29, %bb59 ], [ %98, %Flow104 ]
  br label %Flow106, !dbg !363

Flow107:                                          ; preds = %bb57, %Flow106
  %14 = phi i8 [ 28, %bb57 ], [ %96, %Flow106 ]
  br label %Flow108, !dbg !363

Flow109:                                          ; preds = %bb55, %Flow108
  %15 = phi i8 [ 27, %bb55 ], [ %94, %Flow108 ]
  br label %Flow110, !dbg !363

Flow111:                                          ; preds = %bb53, %Flow110
  %16 = phi i8 [ 26, %bb53 ], [ %92, %Flow110 ]
  br label %Flow112, !dbg !363

Flow113:                                          ; preds = %bb51, %Flow112
  %17 = phi i8 [ 25, %bb51 ], [ %90, %Flow112 ]
  br label %Flow114, !dbg !363

Flow115:                                          ; preds = %bb49, %Flow114
  %18 = phi i8 [ 24, %bb49 ], [ %88, %Flow114 ]
  br label %Flow116, !dbg !363

Flow117:                                          ; preds = %bb47, %Flow116
  %19 = phi i8 [ 23, %bb47 ], [ %86, %Flow116 ]
  br label %Flow118, !dbg !363

Flow119:                                          ; preds = %bb45, %Flow118
  %20 = phi i8 [ 22, %bb45 ], [ %84, %Flow118 ]
  br label %Flow120, !dbg !363

Flow121:                                          ; preds = %bb43, %Flow120
  %21 = phi i8 [ 21, %bb43 ], [ %82, %Flow120 ]
  br label %Flow122, !dbg !363

Flow123:                                          ; preds = %bb41, %Flow122
  %22 = phi i8 [ 20, %bb41 ], [ %80, %Flow122 ]
  br label %Flow124, !dbg !363

Flow125:                                          ; preds = %bb39, %Flow124
  %23 = phi i8 [ 19, %bb39 ], [ %78, %Flow124 ]
  br label %Flow126, !dbg !363

Flow127:                                          ; preds = %bb37, %Flow126
  %24 = phi i8 [ 18, %bb37 ], [ %76, %Flow126 ]
  br label %Flow128, !dbg !363

Flow129:                                          ; preds = %bb35, %Flow128
  %25 = phi i8 [ 17, %bb35 ], [ %74, %Flow128 ]
  br label %Flow130, !dbg !363

Flow131:                                          ; preds = %bb33, %Flow130
  %26 = phi i8 [ 16, %bb33 ], [ %72, %Flow130 ]
  br label %Flow132, !dbg !363

Flow133:                                          ; preds = %bb31, %Flow132
  %27 = phi i8 [ 15, %bb31 ], [ %70, %Flow132 ]
  br label %Flow134, !dbg !363

Flow135:                                          ; preds = %bb29, %Flow134
  %28 = phi i8 [ 14, %bb29 ], [ %68, %Flow134 ]
  br label %Flow136, !dbg !363

Flow137:                                          ; preds = %bb27, %Flow136
  %29 = phi i8 [ 13, %bb27 ], [ %66, %Flow136 ]
  br label %Flow138, !dbg !363

Flow139:                                          ; preds = %bb25, %Flow138
  %30 = phi i8 [ 12, %bb25 ], [ %64, %Flow138 ]
  br label %Flow140, !dbg !363

Flow141:                                          ; preds = %bb23, %Flow140
  %31 = phi i8 [ 11, %bb23 ], [ %62, %Flow140 ]
  br label %Flow142, !dbg !363

Flow143:                                          ; preds = %bb21, %Flow142
  %32 = phi i8 [ 10, %bb21 ], [ %60, %Flow142 ]
  br label %Flow144, !dbg !363

Flow145:                                          ; preds = %bb19, %Flow144
  %33 = phi i8 [ 9, %bb19 ], [ %58, %Flow144 ]
  br label %Flow146, !dbg !363

Flow147:                                          ; preds = %bb17, %Flow146
  %34 = phi i8 [ 8, %bb17 ], [ %56, %Flow146 ]
  br label %Flow148, !dbg !363

Flow149:                                          ; preds = %bb15, %Flow148
  %35 = phi i8 [ 7, %bb15 ], [ %54, %Flow148 ]
  br label %Flow150, !dbg !363

Flow151:                                          ; preds = %bb13, %Flow150
  %36 = phi i8 [ 6, %bb13 ], [ %52, %Flow150 ]
  br label %Flow152, !dbg !363

Flow153:                                          ; preds = %bb11, %Flow152
  %37 = phi i8 [ 5, %bb11 ], [ %50, %Flow152 ]
  br label %Flow154, !dbg !363

Flow155:                                          ; preds = %bb9, %Flow154
  %38 = phi i8 [ 4, %bb9 ], [ %48, %Flow154 ]
  br label %Flow156, !dbg !363

Flow157:                                          ; preds = %bb7, %Flow156
  %39 = phi i8 [ 3, %bb7 ], [ %46, %Flow156 ]
  br label %Flow158, !dbg !363

Flow159:                                          ; preds = %bb5, %Flow158
  %40 = phi i8 [ 2, %bb5 ], [ %44, %Flow158 ]
  br label %Flow160, !dbg !363

Flow161:                                          ; preds = %bb3, %Flow160
  %41 = phi i8 [ 1, %bb3 ], [ %42, %Flow160 ]
  br label %Flow162, !dbg !363

bb83:                                             ; preds = %bb1, %Flow162
  %i42 = phi i8 [ %0, %Flow162 ], [ 0, %bb1 ], !dbg !366
  ret i8 %i42, !dbg !366

Flow160:                                          ; preds = %Flow159, %bb2
  %42 = phi i8 [ %40, %Flow159 ], [ undef, %bb2 ]
  %43 = phi i1 [ false, %Flow159 ], [ true, %bb2 ], !dbg !363
  br i1 %43, label %bb3, label %Flow161, !dbg !363

bb3:                                              ; preds = %Flow160
  store i8 1, ptr %_0, align 1, !dbg !367
  br label %Flow161, !dbg !363

bb4:                                              ; preds = %bb2
  %i43 = icmp ne i32 %arg, 2, !dbg !363
  br i1 %i43, label %bb6, label %Flow158, !dbg !363

Flow158:                                          ; preds = %Flow157, %bb4
  %44 = phi i8 [ %39, %Flow157 ], [ undef, %bb4 ]
  %45 = phi i1 [ false, %Flow157 ], [ true, %bb4 ], !dbg !363
  br i1 %45, label %bb5, label %Flow159, !dbg !363

bb5:                                              ; preds = %Flow158
  store i8 2, ptr %_0, align 1, !dbg !369
  br label %Flow159, !dbg !363

bb6:                                              ; preds = %bb4
  %i44 = icmp ne i32 %arg, 3, !dbg !363
  br i1 %i44, label %bb8, label %Flow156, !dbg !363

Flow156:                                          ; preds = %Flow155, %bb6
  %46 = phi i8 [ %38, %Flow155 ], [ undef, %bb6 ]
  %47 = phi i1 [ false, %Flow155 ], [ true, %bb6 ], !dbg !363
  br i1 %47, label %bb7, label %Flow157, !dbg !363

bb7:                                              ; preds = %Flow156
  store i8 3, ptr %_0, align 1, !dbg !371
  br label %Flow157, !dbg !363

bb8:                                              ; preds = %bb6
  %i45 = icmp ne i32 %arg, 4, !dbg !363
  br i1 %i45, label %bb10, label %Flow154, !dbg !363

Flow154:                                          ; preds = %Flow153, %bb8
  %48 = phi i8 [ %37, %Flow153 ], [ undef, %bb8 ]
  %49 = phi i1 [ false, %Flow153 ], [ true, %bb8 ], !dbg !363
  br i1 %49, label %bb9, label %Flow155, !dbg !363

bb9:                                              ; preds = %Flow154
  store i8 4, ptr %_0, align 1, !dbg !373
  br label %Flow155, !dbg !363

bb10:                                             ; preds = %bb8
  %i46 = icmp ne i32 %arg, 5, !dbg !363
  br i1 %i46, label %bb12, label %Flow152, !dbg !363

Flow152:                                          ; preds = %Flow151, %bb10
  %50 = phi i8 [ %36, %Flow151 ], [ undef, %bb10 ]
  %51 = phi i1 [ false, %Flow151 ], [ true, %bb10 ], !dbg !363
  br i1 %51, label %bb11, label %Flow153, !dbg !363

bb11:                                             ; preds = %Flow152
  store i8 5, ptr %_0, align 1, !dbg !375
  br label %Flow153, !dbg !363

bb12:                                             ; preds = %bb10
  %i47 = icmp ne i32 %arg, 6, !dbg !363
  br i1 %i47, label %bb14, label %Flow150, !dbg !363

Flow150:                                          ; preds = %Flow149, %bb12
  %52 = phi i8 [ %35, %Flow149 ], [ undef, %bb12 ]
  %53 = phi i1 [ false, %Flow149 ], [ true, %bb12 ], !dbg !363
  br i1 %53, label %bb13, label %Flow151, !dbg !363

bb13:                                             ; preds = %Flow150
  store i8 6, ptr %_0, align 1, !dbg !377
  br label %Flow151, !dbg !363

bb14:                                             ; preds = %bb12
  %i48 = icmp ne i32 %arg, 7, !dbg !363
  br i1 %i48, label %bb16, label %Flow148, !dbg !363

Flow148:                                          ; preds = %Flow147, %bb14
  %54 = phi i8 [ %34, %Flow147 ], [ undef, %bb14 ]
  %55 = phi i1 [ false, %Flow147 ], [ true, %bb14 ], !dbg !363
  br i1 %55, label %bb15, label %Flow149, !dbg !363

bb15:                                             ; preds = %Flow148
  store i8 7, ptr %_0, align 1, !dbg !379
  br label %Flow149, !dbg !363

bb16:                                             ; preds = %bb14
  %i49 = icmp ne i32 %arg, 8, !dbg !363
  br i1 %i49, label %bb18, label %Flow146, !dbg !363

Flow146:                                          ; preds = %Flow145, %bb16
  %56 = phi i8 [ %33, %Flow145 ], [ undef, %bb16 ]
  %57 = phi i1 [ false, %Flow145 ], [ true, %bb16 ], !dbg !363
  br i1 %57, label %bb17, label %Flow147, !dbg !363

bb17:                                             ; preds = %Flow146
  store i8 8, ptr %_0, align 1, !dbg !381
  br label %Flow147, !dbg !363

bb18:                                             ; preds = %bb16
  %i50 = icmp ne i32 %arg, 9, !dbg !363
  br i1 %i50, label %bb20, label %Flow144, !dbg !363

Flow144:                                          ; preds = %Flow143, %bb18
  %58 = phi i8 [ %32, %Flow143 ], [ undef, %bb18 ]
  %59 = phi i1 [ false, %Flow143 ], [ true, %bb18 ], !dbg !363
  br i1 %59, label %bb19, label %Flow145, !dbg !363

bb19:                                             ; preds = %Flow144
  store i8 9, ptr %_0, align 1, !dbg !383
  br label %Flow145, !dbg !363

bb20:                                             ; preds = %bb18
  %i51 = icmp ne i32 %arg, 10, !dbg !363
  br i1 %i51, label %bb22, label %Flow142, !dbg !363

Flow142:                                          ; preds = %Flow141, %bb20
  %60 = phi i8 [ %31, %Flow141 ], [ undef, %bb20 ]
  %61 = phi i1 [ false, %Flow141 ], [ true, %bb20 ], !dbg !363
  br i1 %61, label %bb21, label %Flow143, !dbg !363

bb21:                                             ; preds = %Flow142
  store i8 10, ptr %_0, align 1, !dbg !385
  br label %Flow143, !dbg !363

bb22:                                             ; preds = %bb20
  %i52 = icmp ne i32 %arg, 11, !dbg !363
  br i1 %i52, label %bb24, label %Flow140, !dbg !363

Flow140:                                          ; preds = %Flow139, %bb22
  %62 = phi i8 [ %30, %Flow139 ], [ undef, %bb22 ]
  %63 = phi i1 [ false, %Flow139 ], [ true, %bb22 ], !dbg !363
  br i1 %63, label %bb23, label %Flow141, !dbg !363

bb23:                                             ; preds = %Flow140
  store i8 11, ptr %_0, align 1, !dbg !387
  br label %Flow141, !dbg !363

bb24:                                             ; preds = %bb22
  %i53 = icmp ne i32 %arg, 12, !dbg !363
  br i1 %i53, label %bb26, label %Flow138, !dbg !363

Flow138:                                          ; preds = %Flow137, %bb24
  %64 = phi i8 [ %29, %Flow137 ], [ undef, %bb24 ]
  %65 = phi i1 [ false, %Flow137 ], [ true, %bb24 ], !dbg !363
  br i1 %65, label %bb25, label %Flow139, !dbg !363

bb25:                                             ; preds = %Flow138
  store i8 12, ptr %_0, align 1, !dbg !389
  br label %Flow139, !dbg !363

bb26:                                             ; preds = %bb24
  %i54 = icmp ne i32 %arg, 13, !dbg !363
  br i1 %i54, label %bb28, label %Flow136, !dbg !363

Flow136:                                          ; preds = %Flow135, %bb26
  %66 = phi i8 [ %28, %Flow135 ], [ undef, %bb26 ]
  %67 = phi i1 [ false, %Flow135 ], [ true, %bb26 ], !dbg !363
  br i1 %67, label %bb27, label %Flow137, !dbg !363

bb27:                                             ; preds = %Flow136
  store i8 13, ptr %_0, align 1, !dbg !391
  br label %Flow137, !dbg !363

bb28:                                             ; preds = %bb26
  %i55 = icmp ne i32 %arg, 14, !dbg !363
  br i1 %i55, label %bb30, label %Flow134, !dbg !363

Flow134:                                          ; preds = %Flow133, %bb28
  %68 = phi i8 [ %27, %Flow133 ], [ undef, %bb28 ]
  %69 = phi i1 [ false, %Flow133 ], [ true, %bb28 ], !dbg !363
  br i1 %69, label %bb29, label %Flow135, !dbg !363

bb29:                                             ; preds = %Flow134
  store i8 14, ptr %_0, align 1, !dbg !393
  br label %Flow135, !dbg !363

bb30:                                             ; preds = %bb28
  %i56 = icmp ne i32 %arg, 15, !dbg !363
  br i1 %i56, label %bb32, label %Flow132, !dbg !363

Flow132:                                          ; preds = %Flow131, %bb30
  %70 = phi i8 [ %26, %Flow131 ], [ undef, %bb30 ]
  %71 = phi i1 [ false, %Flow131 ], [ true, %bb30 ], !dbg !363
  br i1 %71, label %bb31, label %Flow133, !dbg !363

bb31:                                             ; preds = %Flow132
  store i8 15, ptr %_0, align 1, !dbg !395
  br label %Flow133, !dbg !363

bb32:                                             ; preds = %bb30
  %i57 = icmp ne i32 %arg, 16, !dbg !363
  br i1 %i57, label %bb34, label %Flow130, !dbg !363

Flow130:                                          ; preds = %Flow129, %bb32
  %72 = phi i8 [ %25, %Flow129 ], [ undef, %bb32 ]
  %73 = phi i1 [ false, %Flow129 ], [ true, %bb32 ], !dbg !363
  br i1 %73, label %bb33, label %Flow131, !dbg !363

bb33:                                             ; preds = %Flow130
  store i8 16, ptr %_0, align 1, !dbg !397
  br label %Flow131, !dbg !363

bb34:                                             ; preds = %bb32
  %i58 = icmp ne i32 %arg, 17, !dbg !363
  br i1 %i58, label %bb36, label %Flow128, !dbg !363

Flow128:                                          ; preds = %Flow127, %bb34
  %74 = phi i8 [ %24, %Flow127 ], [ undef, %bb34 ]
  %75 = phi i1 [ false, %Flow127 ], [ true, %bb34 ], !dbg !363
  br i1 %75, label %bb35, label %Flow129, !dbg !363

bb35:                                             ; preds = %Flow128
  store i8 17, ptr %_0, align 1, !dbg !399
  br label %Flow129, !dbg !363

bb36:                                             ; preds = %bb34
  %i59 = icmp ne i32 %arg, 18, !dbg !363
  br i1 %i59, label %bb38, label %Flow126, !dbg !363

Flow126:                                          ; preds = %Flow125, %bb36
  %76 = phi i8 [ %23, %Flow125 ], [ undef, %bb36 ]
  %77 = phi i1 [ false, %Flow125 ], [ true, %bb36 ], !dbg !363
  br i1 %77, label %bb37, label %Flow127, !dbg !363

bb37:                                             ; preds = %Flow126
  store i8 18, ptr %_0, align 1, !dbg !401
  br label %Flow127, !dbg !363

bb38:                                             ; preds = %bb36
  %i60 = icmp ne i32 %arg, 19, !dbg !363
  br i1 %i60, label %bb40, label %Flow124, !dbg !363

Flow124:                                          ; preds = %Flow123, %bb38
  %78 = phi i8 [ %22, %Flow123 ], [ undef, %bb38 ]
  %79 = phi i1 [ false, %Flow123 ], [ true, %bb38 ], !dbg !363
  br i1 %79, label %bb39, label %Flow125, !dbg !363

bb39:                                             ; preds = %Flow124
  store i8 19, ptr %_0, align 1, !dbg !403
  br label %Flow125, !dbg !363

bb40:                                             ; preds = %bb38
  %i61 = icmp ne i32 %arg, 20, !dbg !363
  br i1 %i61, label %bb42, label %Flow122, !dbg !363

Flow122:                                          ; preds = %Flow121, %bb40
  %80 = phi i8 [ %21, %Flow121 ], [ undef, %bb40 ]
  %81 = phi i1 [ false, %Flow121 ], [ true, %bb40 ], !dbg !363
  br i1 %81, label %bb41, label %Flow123, !dbg !363

bb41:                                             ; preds = %Flow122
  store i8 20, ptr %_0, align 1, !dbg !405
  br label %Flow123, !dbg !363

bb42:                                             ; preds = %bb40
  %i62 = icmp ne i32 %arg, 21, !dbg !363
  br i1 %i62, label %bb44, label %Flow120, !dbg !363

Flow120:                                          ; preds = %Flow119, %bb42
  %82 = phi i8 [ %20, %Flow119 ], [ undef, %bb42 ]
  %83 = phi i1 [ false, %Flow119 ], [ true, %bb42 ], !dbg !363
  br i1 %83, label %bb43, label %Flow121, !dbg !363

bb43:                                             ; preds = %Flow120
  store i8 21, ptr %_0, align 1, !dbg !407
  br label %Flow121, !dbg !363

bb44:                                             ; preds = %bb42
  %i63 = icmp ne i32 %arg, 22, !dbg !363
  br i1 %i63, label %bb46, label %Flow118, !dbg !363

Flow118:                                          ; preds = %Flow117, %bb44
  %84 = phi i8 [ %19, %Flow117 ], [ undef, %bb44 ]
  %85 = phi i1 [ false, %Flow117 ], [ true, %bb44 ], !dbg !363
  br i1 %85, label %bb45, label %Flow119, !dbg !363

bb45:                                             ; preds = %Flow118
  store i8 22, ptr %_0, align 1, !dbg !409
  br label %Flow119, !dbg !363

bb46:                                             ; preds = %bb44
  %i64 = icmp ne i32 %arg, 23, !dbg !363
  br i1 %i64, label %bb48, label %Flow116, !dbg !363

Flow116:                                          ; preds = %Flow115, %bb46
  %86 = phi i8 [ %18, %Flow115 ], [ undef, %bb46 ]
  %87 = phi i1 [ false, %Flow115 ], [ true, %bb46 ], !dbg !363
  br i1 %87, label %bb47, label %Flow117, !dbg !363

bb47:                                             ; preds = %Flow116
  store i8 23, ptr %_0, align 1, !dbg !411
  br label %Flow117, !dbg !363

bb48:                                             ; preds = %bb46
  %i65 = icmp ne i32 %arg, 24, !dbg !363
  br i1 %i65, label %bb50, label %Flow114, !dbg !363

Flow114:                                          ; preds = %Flow113, %bb48
  %88 = phi i8 [ %17, %Flow113 ], [ undef, %bb48 ]
  %89 = phi i1 [ false, %Flow113 ], [ true, %bb48 ], !dbg !363
  br i1 %89, label %bb49, label %Flow115, !dbg !363

bb49:                                             ; preds = %Flow114
  store i8 24, ptr %_0, align 1, !dbg !413
  br label %Flow115, !dbg !363

bb50:                                             ; preds = %bb48
  %i66 = icmp ne i32 %arg, 25, !dbg !363
  br i1 %i66, label %bb52, label %Flow112, !dbg !363

Flow112:                                          ; preds = %Flow111, %bb50
  %90 = phi i8 [ %16, %Flow111 ], [ undef, %bb50 ]
  %91 = phi i1 [ false, %Flow111 ], [ true, %bb50 ], !dbg !363
  br i1 %91, label %bb51, label %Flow113, !dbg !363

bb51:                                             ; preds = %Flow112
  store i8 25, ptr %_0, align 1, !dbg !415
  br label %Flow113, !dbg !363

bb52:                                             ; preds = %bb50
  %i67 = icmp ne i32 %arg, 26, !dbg !363
  br i1 %i67, label %bb54, label %Flow110, !dbg !363

Flow110:                                          ; preds = %Flow109, %bb52
  %92 = phi i8 [ %15, %Flow109 ], [ undef, %bb52 ]
  %93 = phi i1 [ false, %Flow109 ], [ true, %bb52 ], !dbg !363
  br i1 %93, label %bb53, label %Flow111, !dbg !363

bb53:                                             ; preds = %Flow110
  store i8 26, ptr %_0, align 1, !dbg !417
  br label %Flow111, !dbg !363

bb54:                                             ; preds = %bb52
  %i68 = icmp ne i32 %arg, 27, !dbg !363
  br i1 %i68, label %bb56, label %Flow108, !dbg !363

Flow108:                                          ; preds = %Flow107, %bb54
  %94 = phi i8 [ %14, %Flow107 ], [ undef, %bb54 ]
  %95 = phi i1 [ false, %Flow107 ], [ true, %bb54 ], !dbg !363
  br i1 %95, label %bb55, label %Flow109, !dbg !363

bb55:                                             ; preds = %Flow108
  store i8 27, ptr %_0, align 1, !dbg !419
  br label %Flow109, !dbg !363

bb56:                                             ; preds = %bb54
  %i69 = icmp ne i32 %arg, 28, !dbg !363
  br i1 %i69, label %bb58, label %Flow106, !dbg !363

Flow106:                                          ; preds = %Flow105, %bb56
  %96 = phi i8 [ %13, %Flow105 ], [ undef, %bb56 ]
  %97 = phi i1 [ false, %Flow105 ], [ true, %bb56 ], !dbg !363
  br i1 %97, label %bb57, label %Flow107, !dbg !363

bb57:                                             ; preds = %Flow106
  store i8 28, ptr %_0, align 1, !dbg !421
  br label %Flow107, !dbg !363

bb58:                                             ; preds = %bb56
  %i70 = icmp ne i32 %arg, 29, !dbg !363
  br i1 %i70, label %bb60, label %Flow104, !dbg !363

Flow104:                                          ; preds = %Flow103, %bb58
  %98 = phi i8 [ %12, %Flow103 ], [ undef, %bb58 ]
  %99 = phi i1 [ false, %Flow103 ], [ true, %bb58 ], !dbg !363
  br i1 %99, label %bb59, label %Flow105, !dbg !363

bb59:                                             ; preds = %Flow104
  store i8 29, ptr %_0, align 1, !dbg !423
  br label %Flow105, !dbg !363

bb60:                                             ; preds = %bb58
  %i71 = icmp ne i32 %arg, 30, !dbg !363
  br i1 %i71, label %bb62, label %Flow102, !dbg !363

Flow102:                                          ; preds = %Flow101, %bb60
  %100 = phi i8 [ %11, %Flow101 ], [ undef, %bb60 ]
  %101 = phi i1 [ false, %Flow101 ], [ true, %bb60 ], !dbg !363
  br i1 %101, label %bb61, label %Flow103, !dbg !363

bb61:                                             ; preds = %Flow102
  store i8 30, ptr %_0, align 1, !dbg !425
  br label %Flow103, !dbg !363

bb62:                                             ; preds = %bb60
  %i72 = icmp ne i32 %arg, 31, !dbg !363
  br i1 %i72, label %bb64, label %Flow100, !dbg !363

Flow100:                                          ; preds = %Flow99, %bb62
  %102 = phi i8 [ %10, %Flow99 ], [ undef, %bb62 ]
  %103 = phi i1 [ false, %Flow99 ], [ true, %bb62 ], !dbg !363
  br i1 %103, label %bb63, label %Flow101, !dbg !363

bb63:                                             ; preds = %Flow100
  store i8 31, ptr %_0, align 1, !dbg !427
  br label %Flow101, !dbg !363

bb64:                                             ; preds = %bb62
  %i73 = icmp ne i32 %arg, 32, !dbg !363
  br i1 %i73, label %bb66, label %Flow98, !dbg !363

Flow98:                                           ; preds = %Flow97, %bb64
  %104 = phi i8 [ %9, %Flow97 ], [ undef, %bb64 ]
  %105 = phi i1 [ false, %Flow97 ], [ true, %bb64 ], !dbg !363
  br i1 %105, label %bb65, label %Flow99, !dbg !363

bb65:                                             ; preds = %Flow98
  store i8 32, ptr %_0, align 1, !dbg !429
  br label %Flow99, !dbg !363

bb66:                                             ; preds = %bb64
  %i74 = icmp ne i32 %arg, 33, !dbg !363
  br i1 %i74, label %bb68, label %Flow96, !dbg !363

Flow96:                                           ; preds = %Flow95, %bb66
  %106 = phi i8 [ %8, %Flow95 ], [ undef, %bb66 ]
  %107 = phi i1 [ false, %Flow95 ], [ true, %bb66 ], !dbg !363
  br i1 %107, label %bb67, label %Flow97, !dbg !363

bb67:                                             ; preds = %Flow96
  store i8 33, ptr %_0, align 1, !dbg !431
  br label %Flow97, !dbg !363

bb68:                                             ; preds = %bb66
  %i75 = icmp ne i32 %arg, 34, !dbg !363
  br i1 %i75, label %bb70, label %Flow94, !dbg !363

Flow94:                                           ; preds = %Flow93, %bb68
  %108 = phi i8 [ %7, %Flow93 ], [ undef, %bb68 ]
  %109 = phi i1 [ false, %Flow93 ], [ true, %bb68 ], !dbg !363
  br i1 %109, label %bb69, label %Flow95, !dbg !363

bb69:                                             ; preds = %Flow94
  store i8 34, ptr %_0, align 1, !dbg !433
  br label %Flow95, !dbg !363

bb70:                                             ; preds = %bb68
  %i76 = icmp ne i32 %arg, 35, !dbg !363
  br i1 %i76, label %bb72, label %Flow92, !dbg !363

Flow92:                                           ; preds = %Flow91, %bb70
  %110 = phi i8 [ %6, %Flow91 ], [ undef, %bb70 ]
  %111 = phi i1 [ false, %Flow91 ], [ true, %bb70 ], !dbg !363
  br i1 %111, label %bb71, label %Flow93, !dbg !363

bb71:                                             ; preds = %Flow92
  store i8 35, ptr %_0, align 1, !dbg !435
  br label %Flow93, !dbg !363

bb72:                                             ; preds = %bb70
  %i77 = icmp ne i32 %arg, 39, !dbg !363
  br i1 %i77, label %bb74, label %Flow90, !dbg !363

Flow90:                                           ; preds = %Flow89, %bb72
  %112 = phi i8 [ %5, %Flow89 ], [ undef, %bb72 ]
  %113 = phi i1 [ false, %Flow89 ], [ true, %bb72 ], !dbg !363
  br i1 %113, label %bb73, label %Flow91, !dbg !363

bb73:                                             ; preds = %Flow90
  store i8 39, ptr %_0, align 1, !dbg !437
  br label %Flow91, !dbg !363

bb74:                                             ; preds = %bb72
  %i78 = icmp ne i32 %arg, 37, !dbg !363
  br i1 %i78, label %bb76, label %Flow88, !dbg !363

Flow88:                                           ; preds = %Flow87, %bb74
  %114 = phi i8 [ %4, %Flow87 ], [ undef, %bb74 ]
  %115 = phi i1 [ false, %Flow87 ], [ true, %bb74 ], !dbg !363
  br i1 %115, label %bb75, label %Flow89, !dbg !363

bb75:                                             ; preds = %Flow88
  store i8 37, ptr %_0, align 1, !dbg !439
  br label %Flow89, !dbg !363

bb76:                                             ; preds = %bb74
  %i79 = icmp ne i32 %arg, 36, !dbg !363
  br i1 %i79, label %bb78, label %Flow86, !dbg !363

Flow86:                                           ; preds = %Flow85, %bb76
  %116 = phi i8 [ %3, %Flow85 ], [ undef, %bb76 ]
  %117 = phi i1 [ false, %Flow85 ], [ true, %bb76 ], !dbg !363
  br i1 %117, label %bb77, label %Flow87, !dbg !363

bb77:                                             ; preds = %Flow86
  store i8 36, ptr %_0, align 1, !dbg !441
  br label %Flow87, !dbg !363

bb78:                                             ; preds = %bb76
  %i80 = icmp ne i32 %arg, 38, !dbg !363
  br i1 %i80, label %bb80, label %Flow84, !dbg !363

Flow84:                                           ; preds = %Flow83, %bb78
  %118 = phi i8 [ %2, %Flow83 ], [ undef, %bb78 ]
  %119 = phi i1 [ false, %Flow83 ], [ true, %bb78 ], !dbg !363
  br i1 %119, label %bb79, label %Flow85, !dbg !363

bb79:                                             ; preds = %Flow84
  store i8 38, ptr %_0, align 1, !dbg !443
  br label %Flow85, !dbg !363

bb80:                                             ; preds = %bb78
  %i81 = icmp ne i32 %arg, 40, !dbg !363
  br i1 %i81, label %bb82, label %Flow, !dbg !363

Flow:                                             ; preds = %bb82, %bb80
  %120 = phi i1 [ false, %bb82 ], [ true, %bb80 ], !dbg !363
  br i1 %120, label %bb81, label %Flow83, !dbg !363

bb81:                                             ; preds = %Flow
  store i8 40, ptr %_0, align 1, !dbg !445
  br label %Flow83, !dbg !363

bb82:                                             ; preds = %bb80
  store i8 41, ptr %_0, align 1, !dbg !363
  br label %Flow, !dbg !363
}

; std::io::error::repr_bitpacked::Repr::data::{{closure}}
; Function Attrs: inlinehint mustprogress nofree norecurse nosync nounwind nonlazybind willreturn memory(none)
define internal fastcc align 8 ptr @"_ZN3std2io5error14repr_bitpacked4Repr4data28_$u7b$$u7b$closure$u7d$$u7d$17h10bdd5e7fd970211E"(ptr readnone returned %c) unnamed_addr #5 !dbg !447 {
start:
  ret ptr %c, !dbg !450
}

; std::io::error::Error::is_interrupted
; Function Attrs: inlinehint mustprogress nofree nosync nounwind nonlazybind willreturn
define internal fastcc zeroext i1 @_ZN3std2io5error5Error14is_interrupted17h09c53eba25a57c5aE(ptr %self.0.val) unnamed_addr #6 !dbg !451 {
start:
  %kind = alloca i8, align 1
  %_2 = alloca %"std::io::error::ErrorData<&std::io::error::Custom>", align 8
  %_0 = alloca i8, align 1
  %0 = icmp ne ptr %self.0.val, null
  call void @llvm.assume(i1 %0)
; call std::io::error::repr_bitpacked::decode_repr
  call fastcc void @_ZN3std2io5error14repr_bitpacked11decode_repr17hbd520eb54b6ffffdE(ptr noalias align 8 %_2, ptr %self.0.val) #27, !dbg !452
  %i = load i8, ptr %_2, align 8, !dbg !457, !range !458, !noundef !16
  %_4 = zext i8 %i to i64, !dbg !457
  switch i64 %_4, label %bb2 [
    i64 0, label %bb3
    i64 1, label %bb5
    i64 2, label %bb1
    i64 3, label %bb4
  ], !dbg !459

bb2:                                              ; preds = %start
  unreachable, !dbg !457

bb3:                                              ; preds = %start
  %i5 = getelementptr inbounds %"std::io::error::ErrorData<&std::io::error::Custom>::Os", ptr %_2, i32 0, i32 1, !dbg !460
  %code = load i32, ptr %i5, align 4, !dbg !460, !noundef !16
  %i6 = icmp eq i32 %code, 4, !dbg !461
  %i7 = zext i1 %i6 to i8, !dbg !461
  store i8 %i7, ptr %_0, align 1, !dbg !461
  br label %bb6, !dbg !469

bb5:                                              ; preds = %start
  %i8 = getelementptr inbounds %"std::io::error::ErrorData<&std::io::error::Custom>::Simple", ptr %_2, i32 0, i32 1, !dbg !470
  %i9 = load i8, ptr %i8, align 1, !dbg !470, !range !471, !noundef !16
  store i8 %i9, ptr %kind, align 1, !dbg !470
  %__self_tag = zext i8 %i9 to i64, !dbg !472
  %i11 = icmp eq i64 %__self_tag, 35, !dbg !478
  %i12 = zext i1 %i11 to i8, !dbg !478
  store i8 %i12, ptr %_0, align 1, !dbg !478
  br label %bb6, !dbg !481

bb1:                                              ; preds = %start
  %i13 = getelementptr inbounds %"std::io::error::ErrorData<&std::io::error::Custom>::SimpleMessage", ptr %_2, i32 0, i32 1, !dbg !482
  %m = load ptr, ptr %i13, align 8, !dbg !482, !nonnull !16, !align !483, !noundef !16
  %i14 = getelementptr inbounds %"std::io::error::SimpleMessage", ptr %m, i32 0, i32 1, !dbg !484
  %i15 = load i8, ptr %i14, align 8, !dbg !484, !range !471, !noundef !16
  %__self_tag2 = zext i8 %i15 to i64, !dbg !484
  %i16 = icmp eq i64 %__self_tag2, 35, !dbg !488
  %i17 = zext i1 %i16 to i8, !dbg !488
  store i8 %i17, ptr %_0, align 1, !dbg !488
  br label %bb6, !dbg !491

bb4:                                              ; preds = %start
  %i18 = getelementptr inbounds %"std::io::error::ErrorData<&std::io::error::Custom>::Custom", ptr %_2, i32 0, i32 1, !dbg !492
  %c = load ptr, ptr %i18, align 8, !dbg !492, !nonnull !16, !align !483, !noundef !16
  %i19 = getelementptr inbounds %"std::io::error::Custom", ptr %c, i32 0, i32 1, !dbg !493
  %i20 = load i8, ptr %i19, align 8, !dbg !493, !range !471, !noundef !16
  %__self_tag4 = zext i8 %i20 to i64, !dbg !493
  %i21 = icmp eq i64 %__self_tag4, 35, !dbg !497
  %i22 = zext i1 %i21 to i8, !dbg !497
  store i8 %i22, ptr %_0, align 1, !dbg !497
  br label %bb6, !dbg !500

bb6:                                              ; preds = %bb4, %bb1, %bb5, %bb3
  %i23 = phi i1 [ %i21, %bb4 ], [ %i16, %bb1 ], [ %i11, %bb5 ], [ %i6, %bb3 ], !dbg !501
  ret i1 %i23, !dbg !501
}

; std::rt::lang_start
; Function Attrs: nounwind nonlazybind
define hidden i64 @_ZN3std2rt10lang_start17h62d0a68ddcf4e55cE(ptr %main, i64 %argc, ptr %argv, i8 %sigpipe) unnamed_addr #3 !dbg !502 {
start:
  %_8 = alloca ptr, align 8
  %_5 = alloca i64, align 8
  store ptr %main, ptr %_8, align 8, !dbg !505
; call std::rt::lang_start_internal
  %i = call i64 @_ZN3std2rt19lang_start_internal17h6939038e2873596bE(ptr align 1 %_8, ptr align 8 @vtable.1, i64 %argc, ptr %argv, i8 %sigpipe) #27, !dbg !506
  store i64 %i, ptr %_5, align 8, !dbg !506
  ret i64 %i, !dbg !507
}

; std::rt::lang_start::{{closure}}
; Function Attrs: inlinehint nounwind nonlazybind
define internal i32 @"_ZN3std2rt10lang_start28_$u7b$$u7b$closure$u7d$$u7d$17h867244e57ae5d8aeE"(ptr nocapture readonly align 8 %_1) unnamed_addr #1 !dbg !508 {
start:
  %self = alloca i8, align 1
  %_4 = load ptr, ptr %_1, align 8, !dbg !510, !nonnull !16, !noundef !16
; call std::sys_common::backtrace::__rust_begin_short_backtrace
  call fastcc void @_ZN3std10sys_common9backtrace28__rust_begin_short_backtrace17h8bf61b3dca378d45E(ptr %_4) #27, !dbg !511
; call <() as std::process::Termination>::report
  %i = call fastcc i8 @"_ZN54_$LT$$LP$$RP$$u20$as$u20$std..process..Termination$GT$6report17h59963d8051719470E"() #27, !dbg !511
  store i8 %i, ptr %self, align 1, !dbg !511
  %_0 = zext i8 %i to i32, !dbg !512
  ret i32 %_0, !dbg !526
}

; std::thread::JoinInner<T>::join
; Function Attrs: nounwind nonlazybind
define internal fastcc { ptr, ptr } @"_ZN3std6thread18JoinInner$LT$T$GT$4join17h6209394d57fa5fedE"(ptr align 8 %self) unnamed_addr #3 personality ptr @rust_eh_personality !dbg !527 {
start:
  %src = alloca %"core::option::Option<core::result::Result<(), alloc::boxed::Box<dyn core::any::Any + core::marker::Send>>>", align 8
  %self1 = alloca ptr, align 8
  %result = alloca %"core::option::Option<core::result::Result<(), alloc::boxed::Box<dyn core::any::Any + core::marker::Send>>>", align 8
  %i = getelementptr inbounds %"std::thread::JoinInner<'_, ()>", ptr %self, i32 0, i32 2, !dbg !529
  %_3 = load i64, ptr %i, align 8, !dbg !529, !noundef !16
; call std::sys::unix::thread::Thread::join
  call void @_ZN3std3sys4unix6thread6Thread4join17h39b09a9c8f68b464E(i64 %_3) #27, !dbg !529
  %this = getelementptr inbounds %"std::thread::JoinInner<'_, ()>", ptr %self, i32 0, i32 1, !dbg !530
; call alloc::sync::Arc<T,A>::is_unique
  %_10 = call fastcc zeroext i1 @"_ZN5alloc4sync16Arc$LT$T$C$A$GT$9is_unique17h089def53f690f6d0E"(ptr align 8 %this) #27, !dbg !531
  %_10.inv = xor i1 %_10, true
  br i1 %_10.inv, label %bb10, label %Flow, !dbg !531

bb10:                                             ; preds = %start
  store ptr null, ptr %self1, align 8, !dbg !539
  br label %Flow, !dbg !540

Flow:                                             ; preds = %bb10, %start
  %0 = phi i1 [ false, %bb10 ], [ true, %start ], !dbg !531
  br i1 %0, label %bb9, label %bb11, !dbg !531

bb9:                                              ; preds = %Flow
  %self2 = load ptr, ptr %this, align 8, !dbg !541, !nonnull !16, !noundef !16
  %_11 = getelementptr inbounds %"alloc::sync::ArcInner<std::thread::Packet<'_, ()>>", ptr %self2, i32 0, i32 2, !dbg !545
  store ptr %_11, ptr %self1, align 8, !dbg !547
  br label %bb11, !dbg !540

bb11:                                             ; preds = %bb9, %Flow
  %val = phi ptr [ null, %Flow ], [ %_11, %bb9 ], !dbg !548
  %i6 = ptrtoint ptr %val to i64, !dbg !548
  %i7 = icmp eq i64 %i6, 0, !dbg !548
  br i1 %i7, label %bb12, label %bb14, !dbg !552

bb12:                                             ; preds = %bb11
; call core::panicking::panic
  call void @_ZN4core9panicking5panic17hb837a5ebbbe5b188E(ptr align 1 @alloc_5f55955de67e57c79064b537689facea, i64 43, ptr align 8 @alloc_210632c49b2fd4ef0dc8e7c88d1b4c5b) #26, !dbg !553
  unreachable

bb14:                                             ; preds = %bb11
  store i64 0, ptr %src, align 8, !dbg !554
  %i8 = getelementptr inbounds %"std::thread::Packet<'_, ()>", ptr %val, i32 0, i32 1, !dbg !558
  call void @llvm.memcpy.p0.p0.i64(ptr align 8 %result, ptr align 8 %i8, i64 24, i1 false), !dbg !558
  call void @llvm.memcpy.p0.p0.i64(ptr align 8 %i8, ptr align 8 %src, i64 24, i1 false), !dbg !569
  %_19 = load i64, ptr %result, align 8, !dbg !575, !range !109, !noundef !16
  %i10 = icmp eq i64 %_19, 0, !dbg !579
  br i1 %i10, label %bb15, label %bb16, !dbg !579

bb15:                                             ; preds = %bb14
; call core::panicking::panic
  call void @_ZN4core9panicking5panic17hb837a5ebbbe5b188E(ptr align 1 @alloc_5f55955de67e57c79064b537689facea, i64 43, ptr align 8 @alloc_75b83b2c75f3b36b94a7518a66ad8875) #26, !dbg !580
  unreachable

bb16:                                             ; preds = %bb14
  %i11 = getelementptr inbounds %"core::option::Option<core::result::Result<(), alloc::boxed::Box<dyn core::any::Any + core::marker::Send>>>::Some", ptr %result, i32 0, i32 1, !dbg !581
  %val.0 = load ptr, ptr %i11, align 8, !dbg !581, !align !582, !noundef !16
  %i12 = getelementptr inbounds { ptr, ptr }, ptr %i11, i32 0, i32 1, !dbg !581
  %val.1 = load ptr, ptr %i12, align 8, !dbg !581
; call core::ptr::drop_in_place<std::thread::Thread>
  call fastcc void @"_ZN4core3ptr40drop_in_place$LT$std..thread..Thread$GT$17he6dbe1407530fadaE"(ptr align 8 %self) #27, !dbg !583
; call core::ptr::drop_in_place<alloc::sync::Arc<std::thread::Packet<()>>>
  call fastcc void @"_ZN4core3ptr80drop_in_place$LT$alloc..sync..Arc$LT$std..thread..Packet$LT$$LP$$RP$$GT$$GT$$GT$17h7786af121b5ab59aE"(ptr align 8 %this) #27, !dbg !583
  %i14 = insertvalue { ptr, ptr } poison, ptr %val.0, 0, !dbg !584
  %i15 = insertvalue { ptr, ptr } %i14, ptr %val.1, 1, !dbg !584
  ret { ptr, ptr } %i15, !dbg !584
}

; std::thread::JoinHandle<T>::join
; Function Attrs: nounwind nonlazybind
define internal fastcc { ptr, ptr } @"_ZN3std6thread19JoinHandle$LT$T$GT$4join17h5dec6f8b3e2fdb51E"(ptr nocapture readonly align 8 %self) unnamed_addr #3 !dbg !585 {
start:
  %_2 = alloca %"std::thread::JoinInner<'_, ()>", align 8
  call void @llvm.memcpy.p0.p0.i64(ptr align 8 %_2, ptr align 8 %self, i64 24, i1 false), !dbg !587
; call std::thread::JoinInner<T>::join
  %i = call fastcc { ptr, ptr } @"_ZN3std6thread18JoinInner$LT$T$GT$4join17h6209394d57fa5fedE"(ptr align 8 %_2) #27, !dbg !587
  ret { ptr, ptr } %i, !dbg !588
}

; std::thread::spawn
; Function Attrs: nounwind nonlazybind
define internal fastcc void @_ZN3std6thread5spawn17h1f7b7a2f1ad3a130E(ptr noalias nocapture writeonly align 8 %_0, ptr align 8 %f) unnamed_addr #3 personality ptr @rust_eh_personality !dbg !589 {
start:
  %e.i = alloca ptr, align 8
  %_8 = alloca { i64, i64 }, align 8
  %_7 = alloca %"core::option::Option<alloc::string::String>", align 8
  %self = alloca %"std::thread::Builder", align 8
  %_2 = alloca %"core::result::Result<std::thread::JoinHandle<()>, std::io::error::Error>", align 8
  store i64 -9223372036854775808, ptr %_7, align 8, !dbg !590
  store i64 0, ptr %_8, align 8, !dbg !595
  %i = getelementptr inbounds %"std::thread::Builder", ptr %self, i32 0, i32 1, !dbg !596
  call void @llvm.memcpy.p0.p0.i64(ptr align 8 %i, ptr align 8 %_7, i64 24, i1 false), !dbg !596
  store i64 0, ptr %self, align 8, !dbg !596
  %i4 = getelementptr inbounds { i64, i64 }, ptr %self, i32 0, i32 1, !dbg !596
  store i64 undef, ptr %i4, align 8, !dbg !596
; call std::thread::Builder::spawn_unchecked
  call fastcc void @_ZN3std6thread7Builder15spawn_unchecked17hdcda35fa105ab905E(ptr noalias align 8 %_2, ptr align 8 %self, ptr align 8 %f) #27, !dbg !597
  call void @llvm.lifetime.start.p0(i64 8, ptr %e.i), !dbg !602
  %i5 = load ptr, ptr %_2, align 8, !dbg !602, !noundef !16
  %i6 = ptrtoint ptr %i5 to i64, !dbg !602
  %i7 = icmp eq i64 %i6, 0, !dbg !602
  %_3.i = select i1 %i7, i64 1, i64 0, !dbg !602
  %i8 = icmp eq i64 %_3.i, 0, !dbg !605
  br i1 %i8, label %bb3.i, label %codeRepl.i, !dbg !605

bb3.i:                                            ; preds = %start
  call void @llvm.memcpy.p0.p0.i64(ptr align 8 %_0, ptr align 8 %_2, i64 24, i1 false), !dbg !606
  call void @llvm.lifetime.end.p0(i64 8, ptr %e.i), !dbg !607
  ret void, !dbg !608

codeRepl.i:                                       ; preds = %start
  %0 = getelementptr i8, ptr %_2, i64 8, !dbg !609
  %_2.val = load ptr, ptr %0, align 8, !dbg !609, !nonnull !16, !noundef !16
; call core::result::Result<T,E>::expect.8.bb1
  call fastcc void @"_ZN4core6result19Result$LT$T$C$E$GT$6expect17h05f9dcee3b71bf93E.8.bb1"(ptr %_2.val, ptr %e.i, ptr @alloc_e3605bf48dd8479a638909176cc37fce, i64 22, ptr @alloc_1f8c62d57f163807c7029893ad26ce72), !dbg !609
  unreachable
}

; std::thread::spawn
; Function Attrs: nounwind nonlazybind
define internal fastcc void @_ZN3std6thread5spawn17h3adf47d437b8014cE(ptr noalias nocapture writeonly align 8 %_0, ptr align 8 %f) unnamed_addr #3 personality ptr @rust_eh_personality !dbg !610 {
start:
  %e.i = alloca ptr, align 8
  %_8 = alloca { i64, i64 }, align 8
  %_7 = alloca %"core::option::Option<alloc::string::String>", align 8
  %self = alloca %"std::thread::Builder", align 8
  %_2 = alloca %"core::result::Result<std::thread::JoinHandle<()>, std::io::error::Error>", align 8
  store i64 -9223372036854775808, ptr %_7, align 8, !dbg !611
  store i64 0, ptr %_8, align 8, !dbg !615
  %i = getelementptr inbounds %"std::thread::Builder", ptr %self, i32 0, i32 1, !dbg !616
  call void @llvm.memcpy.p0.p0.i64(ptr align 8 %i, ptr align 8 %_7, i64 24, i1 false), !dbg !616
  store i64 0, ptr %self, align 8, !dbg !616
  %i4 = getelementptr inbounds { i64, i64 }, ptr %self, i32 0, i32 1, !dbg !616
  store i64 undef, ptr %i4, align 8, !dbg !616
; call std::thread::Builder::spawn_unchecked
  call fastcc void @_ZN3std6thread7Builder15spawn_unchecked17h5da82d66859a11b2E(ptr noalias align 8 %_2, ptr align 8 %self, ptr align 8 %f) #27, !dbg !617
  call void @llvm.lifetime.start.p0(i64 8, ptr %e.i), !dbg !622
  %i5 = load ptr, ptr %_2, align 8, !dbg !622, !noundef !16
  %i6 = ptrtoint ptr %i5 to i64, !dbg !622
  %i7 = icmp eq i64 %i6, 0, !dbg !622
  %_3.i = select i1 %i7, i64 1, i64 0, !dbg !622
  %i8 = icmp eq i64 %_3.i, 0, !dbg !624
  br i1 %i8, label %bb3.i, label %codeRepl.i, !dbg !624

bb3.i:                                            ; preds = %start
  call void @llvm.memcpy.p0.p0.i64(ptr align 8 %_0, ptr align 8 %_2, i64 24, i1 false), !dbg !625
  call void @llvm.lifetime.end.p0(i64 8, ptr %e.i), !dbg !626
  ret void, !dbg !627

codeRepl.i:                                       ; preds = %start
  %0 = getelementptr i8, ptr %_2, i64 8, !dbg !628
  %_2.val = load ptr, ptr %0, align 8, !dbg !628, !nonnull !16, !noundef !16
; call core::result::Result<T,E>::expect.8.bb1
  call fastcc void @"_ZN4core6result19Result$LT$T$C$E$GT$6expect17h05f9dcee3b71bf93E.8.bb1"(ptr %_2.val, ptr %e.i, ptr @alloc_e3605bf48dd8479a638909176cc37fce, i64 22, ptr @alloc_1f8c62d57f163807c7029893ad26ce72), !dbg !628
  unreachable
}

; std::thread::spawn
; Function Attrs: nounwind nonlazybind
define internal fastcc void @_ZN3std6thread5spawn17h9bb9a292c92dd55cE(ptr noalias nocapture writeonly align 8 %_0, ptr align 8 %f) unnamed_addr #3 personality ptr @rust_eh_personality !dbg !629 {
start:
  %e.i = alloca ptr, align 8
  %_8 = alloca { i64, i64 }, align 8
  %_7 = alloca %"core::option::Option<alloc::string::String>", align 8
  %self = alloca %"std::thread::Builder", align 8
  %_2 = alloca %"core::result::Result<std::thread::JoinHandle<()>, std::io::error::Error>", align 8
  store i64 -9223372036854775808, ptr %_7, align 8, !dbg !630
  store i64 0, ptr %_8, align 8, !dbg !634
  %i = getelementptr inbounds %"std::thread::Builder", ptr %self, i32 0, i32 1, !dbg !635
  call void @llvm.memcpy.p0.p0.i64(ptr align 8 %i, ptr align 8 %_7, i64 24, i1 false), !dbg !635
  store i64 0, ptr %self, align 8, !dbg !635
  %i4 = getelementptr inbounds { i64, i64 }, ptr %self, i32 0, i32 1, !dbg !635
  store i64 undef, ptr %i4, align 8, !dbg !635
; call std::thread::Builder::spawn_unchecked
  call fastcc void @_ZN3std6thread7Builder15spawn_unchecked17h842285240a1520f7E(ptr noalias align 8 %_2, ptr align 8 %self, ptr align 8 %f) #27, !dbg !636
  call void @llvm.lifetime.start.p0(i64 8, ptr %e.i), !dbg !641
  %i5 = load ptr, ptr %_2, align 8, !dbg !641, !noundef !16
  %i6 = ptrtoint ptr %i5 to i64, !dbg !641
  %i7 = icmp eq i64 %i6, 0, !dbg !641
  %_3.i = select i1 %i7, i64 1, i64 0, !dbg !641
  %i8 = icmp eq i64 %_3.i, 0, !dbg !643
  br i1 %i8, label %bb3.i, label %codeRepl.i, !dbg !643

bb3.i:                                            ; preds = %start
  call void @llvm.memcpy.p0.p0.i64(ptr align 8 %_0, ptr align 8 %_2, i64 24, i1 false), !dbg !644
  call void @llvm.lifetime.end.p0(i64 8, ptr %e.i), !dbg !645
  ret void, !dbg !646

codeRepl.i:                                       ; preds = %start
  %0 = getelementptr i8, ptr %_2, i64 8, !dbg !647
  %_2.val = load ptr, ptr %0, align 8, !dbg !647, !nonnull !16, !noundef !16
; call core::result::Result<T,E>::expect.8.bb1
  call fastcc void @"_ZN4core6result19Result$LT$T$C$E$GT$6expect17h05f9dcee3b71bf93E.8.bb1"(ptr %_2.val, ptr %e.i, ptr @alloc_e3605bf48dd8479a638909176cc37fce, i64 22, ptr @alloc_1f8c62d57f163807c7029893ad26ce72), !dbg !647
  unreachable
}

; std::thread::spawn
; Function Attrs: nounwind nonlazybind
define internal fastcc void @_ZN3std6thread5spawn17hcb6558f8a6d76201E(ptr noalias nocapture writeonly align 8 %_0, ptr align 8 %f) unnamed_addr #3 personality ptr @rust_eh_personality !dbg !648 {
start:
  %e.i = alloca ptr, align 8
  %_8 = alloca { i64, i64 }, align 8
  %_7 = alloca %"core::option::Option<alloc::string::String>", align 8
  %self = alloca %"std::thread::Builder", align 8
  %_2 = alloca %"core::result::Result<std::thread::JoinHandle<()>, std::io::error::Error>", align 8
  store i64 -9223372036854775808, ptr %_7, align 8, !dbg !649
  store i64 0, ptr %_8, align 8, !dbg !653
  %i = getelementptr inbounds %"std::thread::Builder", ptr %self, i32 0, i32 1, !dbg !654
  call void @llvm.memcpy.p0.p0.i64(ptr align 8 %i, ptr align 8 %_7, i64 24, i1 false), !dbg !654
  store i64 0, ptr %self, align 8, !dbg !654
  %i4 = getelementptr inbounds { i64, i64 }, ptr %self, i32 0, i32 1, !dbg !654
  store i64 undef, ptr %i4, align 8, !dbg !654
; call std::thread::Builder::spawn_unchecked
  call fastcc void @_ZN3std6thread7Builder15spawn_unchecked17h42995d48b4d780d5E(ptr noalias align 8 %_2, ptr align 8 %self, ptr align 8 %f) #27, !dbg !655
  call void @llvm.lifetime.start.p0(i64 8, ptr %e.i), !dbg !660
  %i5 = load ptr, ptr %_2, align 8, !dbg !660, !noundef !16
  %i6 = ptrtoint ptr %i5 to i64, !dbg !660
  %i7 = icmp eq i64 %i6, 0, !dbg !660
  %_3.i = select i1 %i7, i64 1, i64 0, !dbg !660
  %i8 = icmp eq i64 %_3.i, 0, !dbg !662
  br i1 %i8, label %bb3.i, label %codeRepl.i, !dbg !662

bb3.i:                                            ; preds = %start
  call void @llvm.memcpy.p0.p0.i64(ptr align 8 %_0, ptr align 8 %_2, i64 24, i1 false), !dbg !663
  call void @llvm.lifetime.end.p0(i64 8, ptr %e.i), !dbg !664
  ret void, !dbg !665

codeRepl.i:                                       ; preds = %start
  %0 = getelementptr i8, ptr %_2, i64 8, !dbg !666
  %_2.val = load ptr, ptr %0, align 8, !dbg !666, !nonnull !16, !noundef !16
; call core::result::Result<T,E>::expect.8.bb1
  call fastcc void @"_ZN4core6result19Result$LT$T$C$E$GT$6expect17h05f9dcee3b71bf93E.8.bb1"(ptr %_2.val, ptr %e.i, ptr @alloc_e3605bf48dd8479a638909176cc37fce, i64 22, ptr @alloc_1f8c62d57f163807c7029893ad26ce72), !dbg !666
  unreachable
}

; std::thread::Builder::spawn_unchecked
; Function Attrs: nounwind nonlazybind
define internal fastcc void @_ZN3std6thread7Builder15spawn_unchecked17h42995d48b4d780d5E(ptr noalias nocapture writeonly align 8 %_0, ptr nocapture readonly align 8 %self, ptr align 8 %f) unnamed_addr #3 !dbg !667 {
start:
  %_12 = alloca ptr, align 8
  %residual = alloca ptr, align 8
  %self1 = alloca %"core::result::Result<std::thread::JoinInner<'_, ()>, std::io::error::Error>", align 8
  %_4 = alloca %"core::ops::control_flow::ControlFlow<core::result::Result<core::convert::Infallible, std::io::error::Error>, std::thread::JoinInner<'_, ()>>", align 8
; call std::thread::Builder::spawn_unchecked_
  call fastcc void @_ZN3std6thread7Builder16spawn_unchecked_17h833f702751456469E(ptr noalias align 8 %self1, ptr align 8 %self, ptr align 8 %f, ptr null) #27, !dbg !668
  %i = load ptr, ptr %self1, align 8, !dbg !670, !noundef !16
  %i3 = ptrtoint ptr %i to i64, !dbg !670
  %i4 = icmp eq i64 %i3, 0, !dbg !670
  br i1 %i4, label %bb7, label %Flow17, !dbg !675

Flow17:                                           ; preds = %bb7, %start
  %0 = phi i1 [ false, %bb7 ], [ true, %start ], !dbg !675
  br i1 %0, label %bb8, label %bb6, !dbg !675

bb8:                                              ; preds = %Flow17
  call void @llvm.memcpy.p0.p0.i64(ptr align 8 %_4, ptr align 8 %self1, i64 24, i1 false), !dbg !676
  %i9.pre = load ptr, ptr %_4, align 8, !dbg !674
  br label %bb6, !dbg !677

bb7:                                              ; preds = %start
  %i6 = getelementptr inbounds %"core::result::Result<std::thread::JoinInner<'_, ()>, std::io::error::Error>::Err", ptr %self1, i32 0, i32 1, !dbg !678
  %e = load ptr, ptr %i6, align 8, !dbg !678, !nonnull !16, !noundef !16
  store ptr %e, ptr %_12, align 8, !dbg !679
  %i8 = getelementptr inbounds %"core::ops::control_flow::ControlFlow<core::result::Result<core::convert::Infallible, std::io::error::Error>, std::thread::JoinInner<'_, ()>>::Break", ptr %_4, i32 0, i32 1, !dbg !681
  store ptr %e, ptr %i8, align 8, !dbg !681
  store ptr null, ptr %_4, align 8, !dbg !681
  br label %Flow17, !dbg !682

bb6:                                              ; preds = %bb8, %Flow17
  %i9 = phi ptr [ null, %Flow17 ], [ %i9.pre, %bb8 ], !dbg !674
  %i10 = ptrtoint ptr %i9 to i64, !dbg !674
  %i11 = icmp eq i64 %i10, 0, !dbg !674
  br i1 %i11, label %bb4, label %Flow, !dbg !674

Flow:                                             ; preds = %bb4, %bb6
  %1 = phi i1 [ false, %bb4 ], [ true, %bb6 ], !dbg !674
  br i1 %1, label %bb2, label %bb5, !dbg !674

bb2:                                              ; preds = %Flow
  call void @llvm.memcpy.p0.p0.i64(ptr align 8 %_0, ptr align 8 %_4, i64 24, i1 false), !dbg !674
  br label %bb5, !dbg !683

bb4:                                              ; preds = %bb6
  %i13 = getelementptr inbounds %"core::ops::control_flow::ControlFlow<core::result::Result<core::convert::Infallible, std::io::error::Error>, std::thread::JoinInner<'_, ()>>::Break", ptr %_4, i32 0, i32 1, !dbg !684
  %i14 = load ptr, ptr %i13, align 8, !dbg !684, !nonnull !16, !noundef !16
  store ptr %i14, ptr %residual, align 8, !dbg !684
  %i15 = getelementptr inbounds %"core::result::Result<std::thread::JoinHandle<()>, std::io::error::Error>::Err", ptr %_0, i32 0, i32 1, !dbg !685
  store ptr %i14, ptr %i15, align 8, !dbg !685
  store ptr null, ptr %_0, align 8, !dbg !685
  br label %Flow, !dbg !683

bb5:                                              ; preds = %bb2, %Flow
  ret void, !dbg !693
}

; std::thread::Builder::spawn_unchecked
; Function Attrs: nounwind nonlazybind
define internal fastcc void @_ZN3std6thread7Builder15spawn_unchecked17h5da82d66859a11b2E(ptr noalias nocapture writeonly align 8 %_0, ptr nocapture readonly align 8 %self, ptr align 8 %f) unnamed_addr #3 !dbg !694 {
start:
  %_12 = alloca ptr, align 8
  %residual = alloca ptr, align 8
  %self1 = alloca %"core::result::Result<std::thread::JoinInner<'_, ()>, std::io::error::Error>", align 8
  %_4 = alloca %"core::ops::control_flow::ControlFlow<core::result::Result<core::convert::Infallible, std::io::error::Error>, std::thread::JoinInner<'_, ()>>", align 8
; call std::thread::Builder::spawn_unchecked_
  call fastcc void @_ZN3std6thread7Builder16spawn_unchecked_17h07c2eb962048b3adE(ptr noalias align 8 %self1, ptr align 8 %self, ptr align 8 %f, ptr null) #27, !dbg !695
  %i = load ptr, ptr %self1, align 8, !dbg !697, !noundef !16
  %i3 = ptrtoint ptr %i to i64, !dbg !697
  %i4 = icmp eq i64 %i3, 0, !dbg !697
  br i1 %i4, label %bb7, label %Flow17, !dbg !701

Flow17:                                           ; preds = %bb7, %start
  %0 = phi i1 [ false, %bb7 ], [ true, %start ], !dbg !701
  br i1 %0, label %bb8, label %bb6, !dbg !701

bb8:                                              ; preds = %Flow17
  call void @llvm.memcpy.p0.p0.i64(ptr align 8 %_4, ptr align 8 %self1, i64 24, i1 false), !dbg !702
  %i9.pre = load ptr, ptr %_4, align 8, !dbg !700
  br label %bb6, !dbg !703

bb7:                                              ; preds = %start
  %i6 = getelementptr inbounds %"core::result::Result<std::thread::JoinInner<'_, ()>, std::io::error::Error>::Err", ptr %self1, i32 0, i32 1, !dbg !704
  %e = load ptr, ptr %i6, align 8, !dbg !704, !nonnull !16, !noundef !16
  store ptr %e, ptr %_12, align 8, !dbg !705
  %i8 = getelementptr inbounds %"core::ops::control_flow::ControlFlow<core::result::Result<core::convert::Infallible, std::io::error::Error>, std::thread::JoinInner<'_, ()>>::Break", ptr %_4, i32 0, i32 1, !dbg !707
  store ptr %e, ptr %i8, align 8, !dbg !707
  store ptr null, ptr %_4, align 8, !dbg !707
  br label %Flow17, !dbg !708

bb6:                                              ; preds = %bb8, %Flow17
  %i9 = phi ptr [ null, %Flow17 ], [ %i9.pre, %bb8 ], !dbg !700
  %i10 = ptrtoint ptr %i9 to i64, !dbg !700
  %i11 = icmp eq i64 %i10, 0, !dbg !700
  br i1 %i11, label %bb4, label %Flow, !dbg !700

Flow:                                             ; preds = %bb4, %bb6
  %1 = phi i1 [ false, %bb4 ], [ true, %bb6 ], !dbg !700
  br i1 %1, label %bb2, label %bb5, !dbg !700

bb2:                                              ; preds = %Flow
  call void @llvm.memcpy.p0.p0.i64(ptr align 8 %_0, ptr align 8 %_4, i64 24, i1 false), !dbg !700
  br label %bb5, !dbg !709

bb4:                                              ; preds = %bb6
  %i13 = getelementptr inbounds %"core::ops::control_flow::ControlFlow<core::result::Result<core::convert::Infallible, std::io::error::Error>, std::thread::JoinInner<'_, ()>>::Break", ptr %_4, i32 0, i32 1, !dbg !710
  %i14 = load ptr, ptr %i13, align 8, !dbg !710, !nonnull !16, !noundef !16
  store ptr %i14, ptr %residual, align 8, !dbg !710
  %i15 = getelementptr inbounds %"core::result::Result<std::thread::JoinHandle<()>, std::io::error::Error>::Err", ptr %_0, i32 0, i32 1, !dbg !711
  store ptr %i14, ptr %i15, align 8, !dbg !711
  store ptr null, ptr %_0, align 8, !dbg !711
  br label %Flow, !dbg !709

bb5:                                              ; preds = %bb2, %Flow
  ret void, !dbg !718
}

; std::thread::Builder::spawn_unchecked
; Function Attrs: nounwind nonlazybind
define internal fastcc void @_ZN3std6thread7Builder15spawn_unchecked17h842285240a1520f7E(ptr noalias nocapture writeonly align 8 %_0, ptr nocapture readonly align 8 %self, ptr align 8 %f) unnamed_addr #3 !dbg !719 {
start:
  %_12 = alloca ptr, align 8
  %residual = alloca ptr, align 8
  %self1 = alloca %"core::result::Result<std::thread::JoinInner<'_, ()>, std::io::error::Error>", align 8
  %_4 = alloca %"core::ops::control_flow::ControlFlow<core::result::Result<core::convert::Infallible, std::io::error::Error>, std::thread::JoinInner<'_, ()>>", align 8
; call std::thread::Builder::spawn_unchecked_
  call fastcc void @_ZN3std6thread7Builder16spawn_unchecked_17h8a896b3c2c298327E(ptr noalias align 8 %self1, ptr align 8 %self, ptr align 8 %f, ptr null) #27, !dbg !720
  %i = load ptr, ptr %self1, align 8, !dbg !722, !noundef !16
  %i3 = ptrtoint ptr %i to i64, !dbg !722
  %i4 = icmp eq i64 %i3, 0, !dbg !722
  br i1 %i4, label %bb7, label %Flow17, !dbg !726

Flow17:                                           ; preds = %bb7, %start
  %0 = phi i1 [ false, %bb7 ], [ true, %start ], !dbg !726
  br i1 %0, label %bb8, label %bb6, !dbg !726

bb8:                                              ; preds = %Flow17
  call void @llvm.memcpy.p0.p0.i64(ptr align 8 %_4, ptr align 8 %self1, i64 24, i1 false), !dbg !727
  %i9.pre = load ptr, ptr %_4, align 8, !dbg !725
  br label %bb6, !dbg !728

bb7:                                              ; preds = %start
  %i6 = getelementptr inbounds %"core::result::Result<std::thread::JoinInner<'_, ()>, std::io::error::Error>::Err", ptr %self1, i32 0, i32 1, !dbg !729
  %e = load ptr, ptr %i6, align 8, !dbg !729, !nonnull !16, !noundef !16
  store ptr %e, ptr %_12, align 8, !dbg !730
  %i8 = getelementptr inbounds %"core::ops::control_flow::ControlFlow<core::result::Result<core::convert::Infallible, std::io::error::Error>, std::thread::JoinInner<'_, ()>>::Break", ptr %_4, i32 0, i32 1, !dbg !732
  store ptr %e, ptr %i8, align 8, !dbg !732
  store ptr null, ptr %_4, align 8, !dbg !732
  br label %Flow17, !dbg !733

bb6:                                              ; preds = %bb8, %Flow17
  %i9 = phi ptr [ null, %Flow17 ], [ %i9.pre, %bb8 ], !dbg !725
  %i10 = ptrtoint ptr %i9 to i64, !dbg !725
  %i11 = icmp eq i64 %i10, 0, !dbg !725
  br i1 %i11, label %bb4, label %Flow, !dbg !725

Flow:                                             ; preds = %bb4, %bb6
  %1 = phi i1 [ false, %bb4 ], [ true, %bb6 ], !dbg !725
  br i1 %1, label %bb2, label %bb5, !dbg !725

bb2:                                              ; preds = %Flow
  call void @llvm.memcpy.p0.p0.i64(ptr align 8 %_0, ptr align 8 %_4, i64 24, i1 false), !dbg !725
  br label %bb5, !dbg !734

bb4:                                              ; preds = %bb6
  %i13 = getelementptr inbounds %"core::ops::control_flow::ControlFlow<core::result::Result<core::convert::Infallible, std::io::error::Error>, std::thread::JoinInner<'_, ()>>::Break", ptr %_4, i32 0, i32 1, !dbg !735
  %i14 = load ptr, ptr %i13, align 8, !dbg !735, !nonnull !16, !noundef !16
  store ptr %i14, ptr %residual, align 8, !dbg !735
  %i15 = getelementptr inbounds %"core::result::Result<std::thread::JoinHandle<()>, std::io::error::Error>::Err", ptr %_0, i32 0, i32 1, !dbg !736
  store ptr %i14, ptr %i15, align 8, !dbg !736
  store ptr null, ptr %_0, align 8, !dbg !736
  br label %Flow, !dbg !734

bb5:                                              ; preds = %bb2, %Flow
  ret void, !dbg !743
}

; std::thread::Builder::spawn_unchecked
; Function Attrs: nounwind nonlazybind
define internal fastcc void @_ZN3std6thread7Builder15spawn_unchecked17hdcda35fa105ab905E(ptr noalias nocapture writeonly align 8 %_0, ptr nocapture readonly align 8 %self, ptr align 8 %f) unnamed_addr #3 !dbg !744 {
start:
  %_12 = alloca ptr, align 8
  %residual = alloca ptr, align 8
  %self1 = alloca %"core::result::Result<std::thread::JoinInner<'_, ()>, std::io::error::Error>", align 8
  %_4 = alloca %"core::ops::control_flow::ControlFlow<core::result::Result<core::convert::Infallible, std::io::error::Error>, std::thread::JoinInner<'_, ()>>", align 8
; call std::thread::Builder::spawn_unchecked_
  call fastcc void @_ZN3std6thread7Builder16spawn_unchecked_17hb8eb552b86a3fe54E(ptr noalias align 8 %self1, ptr align 8 %self, ptr align 8 %f, ptr null) #27, !dbg !745
  %i = load ptr, ptr %self1, align 8, !dbg !747, !noundef !16
  %i3 = ptrtoint ptr %i to i64, !dbg !747
  %i4 = icmp eq i64 %i3, 0, !dbg !747
  br i1 %i4, label %bb7, label %Flow17, !dbg !751

Flow17:                                           ; preds = %bb7, %start
  %0 = phi i1 [ false, %bb7 ], [ true, %start ], !dbg !751
  br i1 %0, label %bb8, label %bb6, !dbg !751

bb8:                                              ; preds = %Flow17
  call void @llvm.memcpy.p0.p0.i64(ptr align 8 %_4, ptr align 8 %self1, i64 24, i1 false), !dbg !752
  %i9.pre = load ptr, ptr %_4, align 8, !dbg !750
  br label %bb6, !dbg !753

bb7:                                              ; preds = %start
  %i6 = getelementptr inbounds %"core::result::Result<std::thread::JoinInner<'_, ()>, std::io::error::Error>::Err", ptr %self1, i32 0, i32 1, !dbg !754
  %e = load ptr, ptr %i6, align 8, !dbg !754, !nonnull !16, !noundef !16
  store ptr %e, ptr %_12, align 8, !dbg !755
  %i8 = getelementptr inbounds %"core::ops::control_flow::ControlFlow<core::result::Result<core::convert::Infallible, std::io::error::Error>, std::thread::JoinInner<'_, ()>>::Break", ptr %_4, i32 0, i32 1, !dbg !757
  store ptr %e, ptr %i8, align 8, !dbg !757
  store ptr null, ptr %_4, align 8, !dbg !757
  br label %Flow17, !dbg !758

bb6:                                              ; preds = %bb8, %Flow17
  %i9 = phi ptr [ null, %Flow17 ], [ %i9.pre, %bb8 ], !dbg !750
  %i10 = ptrtoint ptr %i9 to i64, !dbg !750
  %i11 = icmp eq i64 %i10, 0, !dbg !750
  br i1 %i11, label %bb4, label %Flow, !dbg !750

Flow:                                             ; preds = %bb4, %bb6
  %1 = phi i1 [ false, %bb4 ], [ true, %bb6 ], !dbg !750
  br i1 %1, label %bb2, label %bb5, !dbg !750

bb2:                                              ; preds = %Flow
  call void @llvm.memcpy.p0.p0.i64(ptr align 8 %_0, ptr align 8 %_4, i64 24, i1 false), !dbg !750
  br label %bb5, !dbg !759

bb4:                                              ; preds = %bb6
  %i13 = getelementptr inbounds %"core::ops::control_flow::ControlFlow<core::result::Result<core::convert::Infallible, std::io::error::Error>, std::thread::JoinInner<'_, ()>>::Break", ptr %_4, i32 0, i32 1, !dbg !760
  %i14 = load ptr, ptr %i13, align 8, !dbg !760, !nonnull !16, !noundef !16
  store ptr %i14, ptr %residual, align 8, !dbg !760
  %i15 = getelementptr inbounds %"core::result::Result<std::thread::JoinHandle<()>, std::io::error::Error>::Err", ptr %_0, i32 0, i32 1, !dbg !761
  store ptr %i14, ptr %i15, align 8, !dbg !761
  store ptr null, ptr %_0, align 8, !dbg !761
  br label %Flow, !dbg !759

bb5:                                              ; preds = %bb2, %Flow
  ret void, !dbg !768
}

; std::thread::Builder::spawn_unchecked_
; Function Attrs: nounwind nonlazybind
define internal fastcc void @_ZN3std6thread7Builder16spawn_unchecked_17h07c2eb962048b3adE(ptr noalias nocapture writeonly align 8 %_0, ptr nocapture readonly align 8 %self, ptr align 8 %f, ptr %arg) unnamed_addr #3 personality ptr @rust_eh_personality !dbg !769 {
start:
  %e.i = alloca %"alloc::ffi::c_str::NulError", align 8
  %self.i = alloca ptr, align 8
  %_4.i16 = alloca { ptr, i64 }, align 8
  %layout.i = alloca { i64, i64 }, align 8
  %_100 = alloca ptr, align 8
  %_94 = alloca { ptr, ptr }, align 8
  %_93 = alloca { ptr, ptr }, align 8
  %leaked = alloca ptr, align 8
  %_86 = alloca ptr, align 8
  %b = alloca ptr, align 8
  %_68 = alloca ptr, align 8
  %_67 = alloca ptr, align 8
  %_59 = alloca ptr, align 8
  %_57 = alloca %"core::result::Result<alloc::ffi::c_str::CString, alloc::ffi::c_str::NulError>", align 8
  %x = alloca %"alloc::string::String", align 8
  %_51 = alloca i8, align 1
  %_50 = alloca i8, align 1
  %_49 = alloca i8, align 1
  %_48 = alloca i8, align 1
  %_47 = alloca i8, align 1
  %_46 = alloca i8, align 1
  %_45 = alloca i8, align 1
  %residual = alloca ptr, align 8
  %self5 = alloca %"core::result::Result<std::sys::unix::thread::Thread, std::io::error::Error>", align 8
  %_37 = alloca %"core::ops::control_flow::ControlFlow<core::result::Result<core::convert::Infallible, std::io::error::Error>, std::sys::unix::thread::Thread>", align 8
  %_36 = alloca %"std::thread::JoinInner<'_, ()>", align 8
  %main4 = alloca { ptr, ptr }, align 8
  %_33 = alloca %"{closure@std::thread::Builder::spawn_unchecked_<'_, '_, {closure@data/RUSTSEC_2020_0142.rs:72:28: 72:35}, ()>::{closure#1}}", align 8
  %main = alloca %"{closure@std::thread::Builder::spawn_unchecked_<'_, '_, {closure@data/RUSTSEC_2020_0142.rs:72:28: 72:35}, ()>::{closure#1}}", align 8
  %f3 = alloca ptr, align 8
  %_21 = alloca ptr, align 8
  %_20 = alloca ptr, align 8
  %output_capture = alloca ptr, align 8
  %their_packet = alloca ptr, align 8
  %value = alloca %"core::option::Option<core::result::Result<(), alloc::boxed::Box<dyn core::any::Any + core::marker::Send>>>", align 8
  %_13 = alloca %"std::thread::Packet<'_, ()>", align 8
  %my_packet = alloca ptr, align 8
  %their_thread = alloca ptr, align 8
  %self2 = alloca %"core::option::Option<alloc::string::String>", align 8
  %_8 = alloca { ptr, i64 }, align 8
  %my_thread = alloca ptr, align 8
  %stack_size1 = alloca i64, align 8
  %stack_size = alloca { i64, i64 }, align 8
  %name = alloca %"core::option::Option<alloc::string::String>", align 8
  %scope_data = alloca ptr, align 8
  store ptr %arg, ptr %scope_data, align 8
  store i8 1, ptr %_51, align 1, !dbg !770
  store i8 1, ptr %_50, align 1, !dbg !770
  store i8 1, ptr %_49, align 1, !dbg !771
  %i = getelementptr inbounds %"std::thread::Builder", ptr %self, i32 0, i32 1, !dbg !771
  call void @llvm.memcpy.p0.p0.i64(ptr align 8 %name, ptr align 8 %i, i64 24, i1 false), !dbg !771
  %i28 = load i64, ptr %self, align 8, !dbg !772, !range !109, !noundef !16
  %i29 = getelementptr inbounds { i64, i64 }, ptr %self, i32 0, i32 1, !dbg !772
  %i30 = load i64, ptr %i29, align 8, !dbg !772
  store i64 %i28, ptr %stack_size, align 8, !dbg !772
  %i31 = getelementptr inbounds { i64, i64 }, ptr %stack_size, i32 0, i32 1, !dbg !772
  store i64 %i30, ptr %i31, align 8, !dbg !772
  %i32 = icmp ne i64 %i28, 0, !dbg !773
  br i1 %i32, label %bb37, label %Flow117, !dbg !773

Flow117:                                          ; preds = %bb37, %start
  %0 = phi i1 [ false, %bb37 ], [ true, %start ], !dbg !773
  br i1 %0, label %bb36, label %bb38, !dbg !773

bb36:                                             ; preds = %Flow117
; call core::ops::function::FnOnce::call_once
  %i33 = call fastcc i64 @_ZN4core3ops8function6FnOnce9call_once17h3edf057482244b08E() #27, !dbg !778
  store i64 %i33, ptr %stack_size1, align 8, !dbg !778
  br label %bb38, !dbg !778

bb37:                                             ; preds = %start
  store i64 %i30, ptr %stack_size1, align 8, !dbg !779
  br label %Flow117, !dbg !781

bb38:                                             ; preds = %bb36, %Flow117
  %_39 = phi i64 [ %i30, %Flow117 ], [ %i33, %bb36 ]
  store i8 0, ptr %_49, align 1, !dbg !782
  call void @llvm.memcpy.p0.p0.i64(ptr align 8 %self2, ptr align 8 %name, i64 24, i1 false), !dbg !782
  %i35 = load i64, ptr %self2, align 8, !dbg !784, !range !788, !noundef !16
  %i36 = icmp eq i64 %i35, -9223372036854775808, !dbg !784
  br i1 %i36, label %bb39, label %bb40, !dbg !789

bb39:                                             ; preds = %bb38
  store ptr null, ptr %_8, align 8, !dbg !790
  br label %bb41, !dbg !790

bb40:                                             ; preds = %bb38
  call void @llvm.memcpy.p0.p0.i64(ptr align 8 %x, ptr align 8 %name, i64 24, i1 false), !dbg !791
; call <T as alloc::ffi::c_str::CString::new::SpecNewImpl>::spec_new_impl
  call fastcc void @"_ZN66_$LT$T$u20$as$u20$alloc..ffi..c_str..CString..new..SpecNewImpl$GT$13spec_new_impl17hf5003064e4a15617E"(ptr noalias align 8 %_57, ptr align 8 %x) #27, !dbg !792
  call void @llvm.lifetime.start.p0(i64 32, ptr %e.i), !dbg !804
  %i37 = load i64, ptr %_57, align 8, !dbg !804, !range !788, !noundef !16
  %i38 = icmp eq i64 %i37, -9223372036854775808, !dbg !804
  br i1 %i38, label %bb3.i19, label %codeRepl.i18, !dbg !807

bb41:                                             ; preds = %bb3.i19, %bb39
  %i41 = phi i64 [ %t.1.i, %bb3.i19 ], [ undef, %bb39 ], !dbg !808
  %i39 = phi ptr [ %t.0.i, %bb3.i19 ], [ null, %bb39 ], !dbg !808
; call std::thread::Thread::new
  %i42 = call ptr @_ZN3std6thread6Thread3new17h91c2acbc87f07c63E(ptr align 1 %i39, i64 %i41) #27, !dbg !808
  store ptr %i42, ptr %my_thread, align 8, !dbg !808
; call <alloc::sync::Arc<T,A> as core::clone::Clone>::clone
  %_61 = call fastcc ptr @"_ZN68_$LT$alloc..sync..Arc$LT$T$C$A$GT$$u20$as$u20$core..clone..Clone$GT$5clone17h2caf97ee930eb057E"(ptr align 8 %my_thread) #27, !dbg !809
  store ptr %_61, ptr %_59, align 8, !dbg !809
  store ptr %_61, ptr %their_thread, align 8, !dbg !821
  store i8 1, ptr %_48, align 1, !dbg !822
  store i8 0, ptr %_50, align 1, !dbg !823
  store i64 0, ptr %value, align 8, !dbg !825
  %i44 = getelementptr inbounds %"std::thread::Packet<'_, ()>", ptr %_13, i32 0, i32 1, !dbg !826
  call void @llvm.memcpy.p0.p0.i64(ptr align 8 %i44, ptr align 8 %value, i64 24, i1 false), !dbg !827
  store ptr %arg, ptr %_13, align 8, !dbg !826
; call alloc::sync::Arc<T>::new
  %i45 = call fastcc ptr @"_ZN5alloc4sync12Arc$LT$T$GT$3new17hdfb3b915c1a09c14E"(ptr align 8 %_13) #27, !dbg !834
  store ptr %i45, ptr %my_packet, align 8, !dbg !834
; call <alloc::sync::Arc<T,A> as core::clone::Clone>::clone
  %i46 = call fastcc ptr @"_ZN68_$LT$alloc..sync..Arc$LT$T$C$A$GT$$u20$as$u20$core..clone..Clone$GT$5clone17h2caf97ee930eb057E"(ptr align 8 %my_packet) #27, !dbg !835
  store ptr %i46, ptr %their_packet, align 8, !dbg !835
  store i8 1, ptr %_47, align 1, !dbg !837
; call std::io::stdio::set_output_capture
  %i47 = call ptr @_ZN3std2io5stdio18set_output_capture17hbfdad0a1763c8421E(ptr null) #27, !dbg !838
  store ptr %i47, ptr %output_capture, align 8, !dbg !838
  store i8 1, ptr %_46, align 1, !dbg !840
  %i49 = ptrtoint ptr %i47 to i64, !dbg !841
  %i50 = icmp ne i64 %i49, 0, !dbg !841
  br i1 %i50, label %bb47, label %Flow116, !dbg !847

bb3.i19:                                          ; preds = %bb40
  %i51 = getelementptr inbounds %"core::result::Result<alloc::ffi::c_str::CString, alloc::ffi::c_str::NulError>::Ok", ptr %_57, i32 0, i32 1, !dbg !848
  %t.0.i = load ptr, ptr %i51, align 8, !dbg !848, !nonnull !16, !align !582, !noundef !16
  %i52 = getelementptr inbounds { ptr, i64 }, ptr %i51, i32 0, i32 1, !dbg !848
  %t.1.i = load i64, ptr %i52, align 8, !dbg !848, !noundef !16
  call void @llvm.lifetime.end.p0(i64 32, ptr %e.i), !dbg !849
  store ptr %t.0.i, ptr %_8, align 8, !dbg !850
  %i53 = getelementptr inbounds { ptr, i64 }, ptr %_8, i32 0, i32 1, !dbg !850
  store i64 %t.1.i, ptr %i53, align 8, !dbg !850
  br label %bb41, !dbg !851

codeRepl.i18:                                     ; preds = %bb40
; call core::result::Result<T,E>::expect.7.bb1
  call fastcc void @"_ZN4core6result19Result$LT$T$C$E$GT$6expect17h7335d8997e575aecE.7.bb1"(ptr %e.i, ptr %_57, ptr @alloc_498705839b3ae85466bce6e7ebfe4996, i64 47, ptr @alloc_10ce3643ab05b89124ccab86e25db141), !dbg !852
  unreachable

Flow116:                                          ; preds = %bb47, %bb41
  %1 = phi ptr [ %_65, %bb47 ], [ undef, %bb41 ]
  %2 = phi i1 [ false, %bb47 ], [ true, %bb41 ], !dbg !847
  br i1 %2, label %bb46, label %bb45, !dbg !847

bb46:                                             ; preds = %Flow116
  store ptr null, ptr %_21, align 8, !dbg !853
  br label %bb45, !dbg !853

bb47:                                             ; preds = %bb41
; call <alloc::sync::Arc<T,A> as core::clone::Clone>::clone
  %_65 = call fastcc ptr @"_ZN68_$LT$alloc..sync..Arc$LT$T$C$A$GT$$u20$as$u20$core..clone..Clone$GT$5clone17h2caf97ee930eb057E"(ptr align 8 %output_capture) #27, !dbg !854
  store ptr %_65, ptr %_21, align 8, !dbg !856
  br label %Flow116, !dbg !857

bb45:                                             ; preds = %bb46, %Flow116
  %i54 = phi ptr [ %1, %Flow116 ], [ null, %bb46 ], !dbg !858
; call std::io::stdio::set_output_capture
  %i55 = call ptr @_ZN3std2io5stdio18set_output_capture17hbfdad0a1763c8421E(ptr %i54) #27, !dbg !858
  store ptr %i55, ptr %_20, align 8, !dbg !858
  %i57 = ptrtoint ptr %i55 to i64, !dbg !859
  %i58 = icmp ne i64 %i57, 0, !dbg !859
  br i1 %i58, label %codeRepl.i22, label %bb6, !dbg !859

codeRepl.i22:                                     ; preds = %bb45
; call core::ptr::drop_in_place<core::option::Option<alloc::sync::Arc<std::sync::mutex::Mutex<alloc::vec::Vec<u8>>>>>.18.bb2
  call fastcc void @"_ZN4core3ptr129drop_in_place$LT$core..option..Option$LT$alloc..sync..Arc$LT$std..sync..mutex..Mutex$LT$alloc..vec..Vec$LT$u8$GT$$GT$$GT$$GT$$GT$17h068803038d83c16bE.18.bb2"(ptr %_20), !dbg !859
  br label %bb6

bb6:                                              ; preds = %codeRepl.i22, %bb45
  store i8 0, ptr %_51, align 1, !dbg !862
  store ptr %f, ptr %_68, align 8, !dbg !863
  store ptr %f, ptr %_67, align 8, !dbg !880
  store ptr %f, ptr %f3, align 8, !dbg !881
  store i8 0, ptr %_48, align 1, !dbg !882
  store i8 0, ptr %_46, align 1, !dbg !882
  store i8 0, ptr %_47, align 1, !dbg !882
  store i8 1, ptr %_45, align 1, !dbg !882
  store ptr %_61, ptr %main, align 8, !dbg !882
  %i62 = load ptr, ptr %output_capture, align 8, !dbg !882, !noundef !16
  %i63 = getelementptr inbounds %"{closure@std::thread::Builder::spawn_unchecked_<'_, '_, {closure@data/RUSTSEC_2020_0142.rs:72:28: 72:35}, ()>::{closure#1}}", ptr %main, i32 0, i32 2, !dbg !882
  store ptr %i62, ptr %i63, align 8, !dbg !882
  %i65 = getelementptr inbounds %"{closure@std::thread::Builder::spawn_unchecked_<'_, '_, {closure@data/RUSTSEC_2020_0142.rs:72:28: 72:35}, ()>::{closure#1}}", ptr %main, i32 0, i32 3, !dbg !882
  store ptr %f, ptr %i65, align 8, !dbg !882
  %i67 = getelementptr inbounds %"{closure@std::thread::Builder::spawn_unchecked_<'_, '_, {closure@data/RUSTSEC_2020_0142.rs:72:28: 72:35}, ()>::{closure#1}}", ptr %main, i32 0, i32 1, !dbg !882
  store ptr %i46, ptr %i67, align 8, !dbg !882
  %self7 = load ptr, ptr %my_packet, align 8, !dbg !884, !nonnull !16, !noundef !16
  %i68 = getelementptr inbounds %"alloc::sync::ArcInner<std::thread::Packet<'_, ()>>", ptr %self7, i32 0, i32 2, !dbg !899
  %i69 = load ptr, ptr %i68, align 8, !dbg !899, !noundef !16
  %i70 = ptrtoint ptr %i69 to i64, !dbg !899
  %i71 = icmp eq i64 %i70, 0, !dbg !899
  %_27 = select i1 %i71, i64 0, i64 1, !dbg !899
  %i72 = icmp eq i64 %_27, 1, !dbg !899
  br i1 %i72, label %bb7, label %bb9, !dbg !899

bb7:                                              ; preds = %bb6
  %_30 = getelementptr inbounds %"alloc::sync::ArcInner<std::thread::scoped::ScopeData>", ptr %i69, i32 0, i32 2, !dbg !900
; call std::thread::scoped::ScopeData::increment_num_running_threads
  call void @_ZN3std6thread6scoped9ScopeData29increment_num_running_threads17h1f4288a87dda043cE(ptr align 8 %_30) #27, !dbg !900
  br label %bb9, !dbg !901

bb9:                                              ; preds = %bb7, %bb6
  store i8 0, ptr %_45, align 1, !dbg !902
  call void @llvm.memcpy.p0.p0.i64(ptr align 8 %_33, ptr align 8 %main, i64 32, i1 false), !dbg !902
  call void @llvm.lifetime.start.p0(i64 8, ptr %self.i), !dbg !903
  call void @llvm.lifetime.start.p0(i64 16, ptr %_4.i16), !dbg !903
  call void @llvm.lifetime.start.p0(i64 16, ptr %layout.i), !dbg !903
  %i74 = getelementptr inbounds { i64, i64 }, ptr %layout.i, i32 0, i32 1, !dbg !903
  store i64 32, ptr %i74, align 8, !dbg !903
  store i64 8, ptr %layout.i, align 8, !dbg !903
; call alloc::alloc::Global::alloc_impl
  %i78 = call fastcc { ptr, i64 } @_ZN5alloc5alloc6Global10alloc_impl17h27c871659e12f0e0E(i64 8, i64 32, i1 zeroext false) #27, !dbg !923
  store { ptr, i64 } %i78, ptr %_4.i16, align 8, !dbg !923
  %i79 = load ptr, ptr %_4.i16, align 8, !dbg !929, !noundef !16
  %i80 = ptrtoint ptr %i79 to i64, !dbg !929
  %i81 = icmp eq i64 %i80, 0, !dbg !929
  %_5.i = select i1 %i81, i64 1, i64 0, !dbg !929
  %i82 = icmp eq i64 %_5.i, 0, !dbg !930
  br i1 %i82, label %bb3.i, label %codeRepl.i, !dbg !930

bb3.i:                                            ; preds = %bb9
  store ptr %i79, ptr %self.i, align 8, !dbg !931
  call void @llvm.lifetime.end.p0(i64 8, ptr %self.i), !dbg !944
  call void @llvm.lifetime.end.p0(i64 16, ptr %_4.i16), !dbg !944
  call void @llvm.lifetime.end.p0(i64 16, ptr %layout.i), !dbg !944
  call void @llvm.memcpy.p0.p0.i64(ptr align 8 %i79, ptr align 8 %main, i64 32, i1 false), !dbg !945
  store ptr %i79, ptr %b, align 8, !dbg !946
  store ptr %i79, ptr %_86, align 8, !dbg !956
  store ptr %i79, ptr %leaked, align 8, !dbg !968
  store ptr %i79, ptr %_94, align 8, !dbg !980
  %i83 = getelementptr inbounds { ptr, ptr }, ptr %_94, i32 0, i32 1, !dbg !980
  store ptr @vtable.4, ptr %i83, align 8, !dbg !980
  store ptr %i79, ptr %_93, align 8, !dbg !999
  %i87 = getelementptr inbounds { ptr, ptr }, ptr %_93, i32 0, i32 1, !dbg !999
  store ptr @vtable.4, ptr %i87, align 8, !dbg !999
  store ptr %i79, ptr %main4, align 8, !dbg !1000
  %i91 = getelementptr inbounds { ptr, ptr }, ptr %main4, i32 0, i32 1, !dbg !1000
  store ptr @vtable.4, ptr %i91, align 8, !dbg !1000
; call std::sys::unix::thread::Thread::new
  call void @_ZN3std3sys4unix6thread6Thread3new17h87f4070d7391b575E(ptr sret(%"core::result::Result<std::sys::unix::thread::Thread, std::io::error::Error>") align 8 %self5, i64 %_39, ptr align 1 %i79, ptr align 8 @vtable.4) #27, !dbg !1001
  %_97 = load i64, ptr %self5, align 8, !dbg !1004, !range !109, !noundef !16
  %i95 = icmp ne i64 %_97, 0, !dbg !1007
  br i1 %i95, label %bb50, label %Flow115, !dbg !1007

codeRepl.i:                                       ; preds = %bb9
  %layout.i.val = load i64, ptr %layout.i, align 8, !dbg !1008, !range !1009, !noundef !16
  %3 = getelementptr i8, ptr %layout.i, i64 8, !dbg !1008
  %layout.i.val118 = load i64, ptr %3, align 8, !dbg !1008, !noundef !16
; call alloc::alloc::exchange_malloc.5.bb1
  call fastcc void @_ZN5alloc5alloc15exchange_malloc17h62dc71f5b90e994bE.5.bb1(i64 %layout.i.val, i64 %layout.i.val118), !dbg !1008
  unreachable

Flow115:                                          ; preds = %bb50, %bb3.i
  %4 = phi ptr [ %e, %bb50 ], [ undef, %bb3.i ]
  %5 = phi i64 [ %8, %bb50 ], [ undef, %bb3.i ]
  %6 = phi i1 [ false, %bb50 ], [ true, %bb3.i ], !dbg !1007
  br i1 %6, label %bb51, label %bb49, !dbg !1007

bb51:                                             ; preds = %Flow115
  %i96 = getelementptr inbounds %"core::result::Result<std::sys::unix::thread::Thread, std::io::error::Error>::Ok", ptr %self5, i32 0, i32 1, !dbg !1010
  %v = load i64, ptr %i96, align 8, !dbg !1010, !noundef !16
  %i97 = getelementptr inbounds %"core::ops::control_flow::ControlFlow<core::result::Result<core::convert::Infallible, std::io::error::Error>, std::sys::unix::thread::Thread>::Continue", ptr %_37, i32 0, i32 1, !dbg !1011
  store i64 %v, ptr %i97, align 8, !dbg !1011
  store i64 0, ptr %_37, align 8, !dbg !1011
  %7 = inttoptr i64 %v to ptr, !dbg !1013
  br label %bb49, !dbg !1013

bb50:                                             ; preds = %bb3.i
  %i98 = getelementptr inbounds %"core::result::Result<std::sys::unix::thread::Thread, std::io::error::Error>::Err", ptr %self5, i32 0, i32 1, !dbg !1014
  %e = load ptr, ptr %i98, align 8, !dbg !1014, !nonnull !16, !noundef !16
  store ptr %e, ptr %_100, align 8, !dbg !1015
  %i100 = getelementptr inbounds %"core::ops::control_flow::ControlFlow<core::result::Result<core::convert::Infallible, std::io::error::Error>, std::sys::unix::thread::Thread>::Break", ptr %_37, i32 0, i32 1, !dbg !1017
  store ptr %e, ptr %i100, align 8, !dbg !1017
  store i64 1, ptr %_37, align 8, !dbg !1017
  %8 = ptrtoint ptr %e to i64, !dbg !1018
  br label %Flow115, !dbg !1018

bb49:                                             ; preds = %bb51, %Flow115
  %val = phi i64 [ %5, %Flow115 ], [ %v, %bb51 ]
  %i106 = phi ptr [ %4, %Flow115 ], [ %7, %bb51 ]
  %_40 = phi i64 [ 1, %Flow115 ], [ 0, %bb51 ], !dbg !1001
  %i101 = icmp ne i64 %_40, 0, !dbg !1001
  br i1 %i101, label %bb14, label %Flow, !dbg !1001

Flow:                                             ; preds = %bb14, %bb49
  %9 = phi i1 [ false, %bb14 ], [ true, %bb49 ], !dbg !1001
  br i1 %9, label %bb12, label %bb17, !dbg !1001

bb12:                                             ; preds = %Flow
  %_43 = load ptr, ptr %my_thread, align 8, !dbg !1019, !nonnull !16, !noundef !16
  %_44 = load ptr, ptr %my_packet, align 8, !dbg !1020, !nonnull !16, !noundef !16
  %i103 = getelementptr inbounds %"std::thread::JoinInner<'_, ()>", ptr %_36, i32 0, i32 2, !dbg !1021
  store i64 %val, ptr %i103, align 8, !dbg !1021
  store ptr %_43, ptr %_36, align 8, !dbg !1021
  %i104 = getelementptr inbounds %"std::thread::JoinInner<'_, ()>", ptr %_36, i32 0, i32 1, !dbg !1021
  store ptr %_44, ptr %i104, align 8, !dbg !1021
  call void @llvm.memcpy.p0.p0.i64(ptr align 8 %_0, ptr align 8 %_36, i64 24, i1 false), !dbg !1022
  br label %bb17, !dbg !1023

bb14:                                             ; preds = %bb49
  store ptr %i106, ptr %residual, align 8, !dbg !1024
  %i107 = getelementptr inbounds %"core::result::Result<std::thread::JoinInner<'_, ()>, std::io::error::Error>::Err", ptr %_0, i32 0, i32 1, !dbg !1025
  store ptr %i106, ptr %i107, align 8, !dbg !1025
  store ptr null, ptr %_0, align 8, !dbg !1025
; call core::ptr::drop_in_place<alloc::sync::Arc<std::thread::Packet<()>>>
  call fastcc void @"_ZN4core3ptr80drop_in_place$LT$alloc..sync..Arc$LT$std..thread..Packet$LT$$LP$$RP$$GT$$GT$$GT$17h7786af121b5ab59aE"(ptr align 8 %my_packet) #27, !dbg !1032
; call core::ptr::drop_in_place<std::thread::Thread>
  call fastcc void @"_ZN4core3ptr40drop_in_place$LT$std..thread..Thread$GT$17he6dbe1407530fadaE"(ptr align 8 %my_thread) #27, !dbg !1033
  br label %Flow, !dbg !1023

bb17:                                             ; preds = %bb12, %Flow
  ret void, !dbg !1034
}

; std::thread::Builder::spawn_unchecked_
; Function Attrs: nounwind nonlazybind
define internal fastcc void @_ZN3std6thread7Builder16spawn_unchecked_17h833f702751456469E(ptr noalias nocapture writeonly align 8 %_0, ptr nocapture readonly align 8 %self, ptr align 8 %f, ptr %arg) unnamed_addr #3 personality ptr @rust_eh_personality !dbg !1035 {
start:
  %e.i = alloca %"alloc::ffi::c_str::NulError", align 8
  %self.i = alloca ptr, align 8
  %_4.i16 = alloca { ptr, i64 }, align 8
  %layout.i = alloca { i64, i64 }, align 8
  %_100 = alloca ptr, align 8
  %_94 = alloca { ptr, ptr }, align 8
  %_93 = alloca { ptr, ptr }, align 8
  %leaked = alloca ptr, align 8
  %_86 = alloca ptr, align 8
  %b = alloca ptr, align 8
  %_68 = alloca ptr, align 8
  %_67 = alloca ptr, align 8
  %_59 = alloca ptr, align 8
  %_57 = alloca %"core::result::Result<alloc::ffi::c_str::CString, alloc::ffi::c_str::NulError>", align 8
  %x = alloca %"alloc::string::String", align 8
  %_51 = alloca i8, align 1
  %_50 = alloca i8, align 1
  %_49 = alloca i8, align 1
  %_48 = alloca i8, align 1
  %_47 = alloca i8, align 1
  %_46 = alloca i8, align 1
  %_45 = alloca i8, align 1
  %residual = alloca ptr, align 8
  %self5 = alloca %"core::result::Result<std::sys::unix::thread::Thread, std::io::error::Error>", align 8
  %_37 = alloca %"core::ops::control_flow::ControlFlow<core::result::Result<core::convert::Infallible, std::io::error::Error>, std::sys::unix::thread::Thread>", align 8
  %_36 = alloca %"std::thread::JoinInner<'_, ()>", align 8
  %main4 = alloca { ptr, ptr }, align 8
  %_33 = alloca %"{closure@std::thread::Builder::spawn_unchecked_<'_, '_, {closure@data/RUSTSEC_2020_0142.rs:51:28: 51:35}, ()>::{closure#1}}", align 8
  %main = alloca %"{closure@std::thread::Builder::spawn_unchecked_<'_, '_, {closure@data/RUSTSEC_2020_0142.rs:51:28: 51:35}, ()>::{closure#1}}", align 8
  %f3 = alloca ptr, align 8
  %_21 = alloca ptr, align 8
  %_20 = alloca ptr, align 8
  %output_capture = alloca ptr, align 8
  %their_packet = alloca ptr, align 8
  %value = alloca %"core::option::Option<core::result::Result<(), alloc::boxed::Box<dyn core::any::Any + core::marker::Send>>>", align 8
  %_13 = alloca %"std::thread::Packet<'_, ()>", align 8
  %my_packet = alloca ptr, align 8
  %their_thread = alloca ptr, align 8
  %self2 = alloca %"core::option::Option<alloc::string::String>", align 8
  %_8 = alloca { ptr, i64 }, align 8
  %my_thread = alloca ptr, align 8
  %stack_size1 = alloca i64, align 8
  %stack_size = alloca { i64, i64 }, align 8
  %name = alloca %"core::option::Option<alloc::string::String>", align 8
  %scope_data = alloca ptr, align 8
  store ptr %arg, ptr %scope_data, align 8
  store i8 1, ptr %_51, align 1, !dbg !1036
  store i8 1, ptr %_50, align 1, !dbg !1036
  store i8 1, ptr %_49, align 1, !dbg !1037
  %i = getelementptr inbounds %"std::thread::Builder", ptr %self, i32 0, i32 1, !dbg !1037
  call void @llvm.memcpy.p0.p0.i64(ptr align 8 %name, ptr align 8 %i, i64 24, i1 false), !dbg !1037
  %i28 = load i64, ptr %self, align 8, !dbg !1038, !range !109, !noundef !16
  %i29 = getelementptr inbounds { i64, i64 }, ptr %self, i32 0, i32 1, !dbg !1038
  %i30 = load i64, ptr %i29, align 8, !dbg !1038
  store i64 %i28, ptr %stack_size, align 8, !dbg !1038
  %i31 = getelementptr inbounds { i64, i64 }, ptr %stack_size, i32 0, i32 1, !dbg !1038
  store i64 %i30, ptr %i31, align 8, !dbg !1038
  %i32 = icmp ne i64 %i28, 0, !dbg !1039
  br i1 %i32, label %bb37, label %Flow117, !dbg !1039

Flow117:                                          ; preds = %bb37, %start
  %0 = phi i1 [ false, %bb37 ], [ true, %start ], !dbg !1039
  br i1 %0, label %bb36, label %bb38, !dbg !1039

bb36:                                             ; preds = %Flow117
; call core::ops::function::FnOnce::call_once
  %i33 = call fastcc i64 @_ZN4core3ops8function6FnOnce9call_once17h3edf057482244b08E() #27, !dbg !1044
  store i64 %i33, ptr %stack_size1, align 8, !dbg !1044
  br label %bb38, !dbg !1044

bb37:                                             ; preds = %start
  store i64 %i30, ptr %stack_size1, align 8, !dbg !1045
  br label %Flow117, !dbg !1047

bb38:                                             ; preds = %bb36, %Flow117
  %_39 = phi i64 [ %i30, %Flow117 ], [ %i33, %bb36 ]
  store i8 0, ptr %_49, align 1, !dbg !1048
  call void @llvm.memcpy.p0.p0.i64(ptr align 8 %self2, ptr align 8 %name, i64 24, i1 false), !dbg !1048
  %i35 = load i64, ptr %self2, align 8, !dbg !1050, !range !788, !noundef !16
  %i36 = icmp eq i64 %i35, -9223372036854775808, !dbg !1050
  br i1 %i36, label %bb39, label %bb40, !dbg !1054

bb39:                                             ; preds = %bb38
  store ptr null, ptr %_8, align 8, !dbg !1055
  br label %bb41, !dbg !1055

bb40:                                             ; preds = %bb38
  call void @llvm.memcpy.p0.p0.i64(ptr align 8 %x, ptr align 8 %name, i64 24, i1 false), !dbg !1056
; call <T as alloc::ffi::c_str::CString::new::SpecNewImpl>::spec_new_impl
  call fastcc void @"_ZN66_$LT$T$u20$as$u20$alloc..ffi..c_str..CString..new..SpecNewImpl$GT$13spec_new_impl17hf5003064e4a15617E"(ptr noalias align 8 %_57, ptr align 8 %x) #27, !dbg !1057
  call void @llvm.lifetime.start.p0(i64 32, ptr %e.i), !dbg !1065
  %i37 = load i64, ptr %_57, align 8, !dbg !1065, !range !788, !noundef !16
  %i38 = icmp eq i64 %i37, -9223372036854775808, !dbg !1065
  br i1 %i38, label %bb3.i19, label %codeRepl.i18, !dbg !1067

bb41:                                             ; preds = %bb3.i19, %bb39
  %i41 = phi i64 [ %t.1.i, %bb3.i19 ], [ undef, %bb39 ], !dbg !1068
  %i39 = phi ptr [ %t.0.i, %bb3.i19 ], [ null, %bb39 ], !dbg !1068
; call std::thread::Thread::new
  %i42 = call ptr @_ZN3std6thread6Thread3new17h91c2acbc87f07c63E(ptr align 1 %i39, i64 %i41) #27, !dbg !1068
  store ptr %i42, ptr %my_thread, align 8, !dbg !1068
; call <alloc::sync::Arc<T,A> as core::clone::Clone>::clone
  %_61 = call fastcc ptr @"_ZN68_$LT$alloc..sync..Arc$LT$T$C$A$GT$$u20$as$u20$core..clone..Clone$GT$5clone17h2caf97ee930eb057E"(ptr align 8 %my_thread) #27, !dbg !1069
  store ptr %_61, ptr %_59, align 8, !dbg !1069
  store ptr %_61, ptr %their_thread, align 8, !dbg !1077
  store i8 1, ptr %_48, align 1, !dbg !1078
  store i8 0, ptr %_50, align 1, !dbg !1079
  store i64 0, ptr %value, align 8, !dbg !1081
  %i44 = getelementptr inbounds %"std::thread::Packet<'_, ()>", ptr %_13, i32 0, i32 1, !dbg !1082
  call void @llvm.memcpy.p0.p0.i64(ptr align 8 %i44, ptr align 8 %value, i64 24, i1 false), !dbg !1083
  store ptr %arg, ptr %_13, align 8, !dbg !1082
; call alloc::sync::Arc<T>::new
  %i45 = call fastcc ptr @"_ZN5alloc4sync12Arc$LT$T$GT$3new17hdfb3b915c1a09c14E"(ptr align 8 %_13) #27, !dbg !1087
  store ptr %i45, ptr %my_packet, align 8, !dbg !1087
; call <alloc::sync::Arc<T,A> as core::clone::Clone>::clone
  %i46 = call fastcc ptr @"_ZN68_$LT$alloc..sync..Arc$LT$T$C$A$GT$$u20$as$u20$core..clone..Clone$GT$5clone17h2caf97ee930eb057E"(ptr align 8 %my_packet) #27, !dbg !1088
  store ptr %i46, ptr %their_packet, align 8, !dbg !1088
  store i8 1, ptr %_47, align 1, !dbg !1090
; call std::io::stdio::set_output_capture
  %i47 = call ptr @_ZN3std2io5stdio18set_output_capture17hbfdad0a1763c8421E(ptr null) #27, !dbg !1091
  store ptr %i47, ptr %output_capture, align 8, !dbg !1091
  store i8 1, ptr %_46, align 1, !dbg !1093
  %i49 = ptrtoint ptr %i47 to i64, !dbg !1094
  %i50 = icmp ne i64 %i49, 0, !dbg !1094
  br i1 %i50, label %bb47, label %Flow116, !dbg !1099

bb3.i19:                                          ; preds = %bb40
  %i51 = getelementptr inbounds %"core::result::Result<alloc::ffi::c_str::CString, alloc::ffi::c_str::NulError>::Ok", ptr %_57, i32 0, i32 1, !dbg !1100
  %t.0.i = load ptr, ptr %i51, align 8, !dbg !1100, !nonnull !16, !align !582, !noundef !16
  %i52 = getelementptr inbounds { ptr, i64 }, ptr %i51, i32 0, i32 1, !dbg !1100
  %t.1.i = load i64, ptr %i52, align 8, !dbg !1100, !noundef !16
  call void @llvm.lifetime.end.p0(i64 32, ptr %e.i), !dbg !1101
  store ptr %t.0.i, ptr %_8, align 8, !dbg !1102
  %i53 = getelementptr inbounds { ptr, i64 }, ptr %_8, i32 0, i32 1, !dbg !1102
  store i64 %t.1.i, ptr %i53, align 8, !dbg !1102
  br label %bb41, !dbg !1103

codeRepl.i18:                                     ; preds = %bb40
; call core::result::Result<T,E>::expect.7.bb1
  call fastcc void @"_ZN4core6result19Result$LT$T$C$E$GT$6expect17h7335d8997e575aecE.7.bb1"(ptr %e.i, ptr %_57, ptr @alloc_498705839b3ae85466bce6e7ebfe4996, i64 47, ptr @alloc_10ce3643ab05b89124ccab86e25db141), !dbg !1104
  unreachable

Flow116:                                          ; preds = %bb47, %bb41
  %1 = phi ptr [ %_65, %bb47 ], [ undef, %bb41 ]
  %2 = phi i1 [ false, %bb47 ], [ true, %bb41 ], !dbg !1099
  br i1 %2, label %bb46, label %bb45, !dbg !1099

bb46:                                             ; preds = %Flow116
  store ptr null, ptr %_21, align 8, !dbg !1105
  br label %bb45, !dbg !1105

bb47:                                             ; preds = %bb41
; call <alloc::sync::Arc<T,A> as core::clone::Clone>::clone
  %_65 = call fastcc ptr @"_ZN68_$LT$alloc..sync..Arc$LT$T$C$A$GT$$u20$as$u20$core..clone..Clone$GT$5clone17h2caf97ee930eb057E"(ptr align 8 %output_capture) #27, !dbg !1106
  store ptr %_65, ptr %_21, align 8, !dbg !1108
  br label %Flow116, !dbg !1109

bb45:                                             ; preds = %bb46, %Flow116
  %i54 = phi ptr [ %1, %Flow116 ], [ null, %bb46 ], !dbg !1110
; call std::io::stdio::set_output_capture
  %i55 = call ptr @_ZN3std2io5stdio18set_output_capture17hbfdad0a1763c8421E(ptr %i54) #27, !dbg !1110
  store ptr %i55, ptr %_20, align 8, !dbg !1110
  %i57 = ptrtoint ptr %i55 to i64, !dbg !1111
  %i58 = icmp ne i64 %i57, 0, !dbg !1111
  br i1 %i58, label %codeRepl.i22, label %bb6, !dbg !1111

codeRepl.i22:                                     ; preds = %bb45
; call core::ptr::drop_in_place<core::option::Option<alloc::sync::Arc<std::sync::mutex::Mutex<alloc::vec::Vec<u8>>>>>.18.bb2
  call fastcc void @"_ZN4core3ptr129drop_in_place$LT$core..option..Option$LT$alloc..sync..Arc$LT$std..sync..mutex..Mutex$LT$alloc..vec..Vec$LT$u8$GT$$GT$$GT$$GT$$GT$17h068803038d83c16bE.18.bb2"(ptr %_20), !dbg !1111
  br label %bb6

bb6:                                              ; preds = %codeRepl.i22, %bb45
  store i8 0, ptr %_51, align 1, !dbg !1113
  store ptr %f, ptr %_68, align 8, !dbg !1114
  store ptr %f, ptr %_67, align 8, !dbg !1124
  store ptr %f, ptr %f3, align 8, !dbg !1125
  store i8 0, ptr %_48, align 1, !dbg !1126
  store i8 0, ptr %_46, align 1, !dbg !1126
  store i8 0, ptr %_47, align 1, !dbg !1126
  store i8 1, ptr %_45, align 1, !dbg !1126
  store ptr %_61, ptr %main, align 8, !dbg !1126
  %i62 = load ptr, ptr %output_capture, align 8, !dbg !1126, !noundef !16
  %i63 = getelementptr inbounds %"{closure@std::thread::Builder::spawn_unchecked_<'_, '_, {closure@data/RUSTSEC_2020_0142.rs:51:28: 51:35}, ()>::{closure#1}}", ptr %main, i32 0, i32 2, !dbg !1126
  store ptr %i62, ptr %i63, align 8, !dbg !1126
  %i65 = getelementptr inbounds %"{closure@std::thread::Builder::spawn_unchecked_<'_, '_, {closure@data/RUSTSEC_2020_0142.rs:51:28: 51:35}, ()>::{closure#1}}", ptr %main, i32 0, i32 3, !dbg !1126
  store ptr %f, ptr %i65, align 8, !dbg !1126
  %i67 = getelementptr inbounds %"{closure@std::thread::Builder::spawn_unchecked_<'_, '_, {closure@data/RUSTSEC_2020_0142.rs:51:28: 51:35}, ()>::{closure#1}}", ptr %main, i32 0, i32 1, !dbg !1126
  store ptr %i46, ptr %i67, align 8, !dbg !1126
  %self7 = load ptr, ptr %my_packet, align 8, !dbg !1128, !nonnull !16, !noundef !16
  %i68 = getelementptr inbounds %"alloc::sync::ArcInner<std::thread::Packet<'_, ()>>", ptr %self7, i32 0, i32 2, !dbg !1142
  %i69 = load ptr, ptr %i68, align 8, !dbg !1142, !noundef !16
  %i70 = ptrtoint ptr %i69 to i64, !dbg !1142
  %i71 = icmp eq i64 %i70, 0, !dbg !1142
  %_27 = select i1 %i71, i64 0, i64 1, !dbg !1142
  %i72 = icmp eq i64 %_27, 1, !dbg !1142
  br i1 %i72, label %bb7, label %bb9, !dbg !1142

bb7:                                              ; preds = %bb6
  %_30 = getelementptr inbounds %"alloc::sync::ArcInner<std::thread::scoped::ScopeData>", ptr %i69, i32 0, i32 2, !dbg !1143
; call std::thread::scoped::ScopeData::increment_num_running_threads
  call void @_ZN3std6thread6scoped9ScopeData29increment_num_running_threads17h1f4288a87dda043cE(ptr align 8 %_30) #27, !dbg !1143
  br label %bb9, !dbg !1144

bb9:                                              ; preds = %bb7, %bb6
  store i8 0, ptr %_45, align 1, !dbg !1145
  call void @llvm.memcpy.p0.p0.i64(ptr align 8 %_33, ptr align 8 %main, i64 32, i1 false), !dbg !1145
  call void @llvm.lifetime.start.p0(i64 8, ptr %self.i), !dbg !1146
  call void @llvm.lifetime.start.p0(i64 16, ptr %_4.i16), !dbg !1146
  call void @llvm.lifetime.start.p0(i64 16, ptr %layout.i), !dbg !1146
  %i74 = getelementptr inbounds { i64, i64 }, ptr %layout.i, i32 0, i32 1, !dbg !1146
  store i64 32, ptr %i74, align 8, !dbg !1146
  store i64 8, ptr %layout.i, align 8, !dbg !1146
; call alloc::alloc::Global::alloc_impl
  %i78 = call fastcc { ptr, i64 } @_ZN5alloc5alloc6Global10alloc_impl17h27c871659e12f0e0E(i64 8, i64 32, i1 zeroext false) #27, !dbg !1152
  store { ptr, i64 } %i78, ptr %_4.i16, align 8, !dbg !1152
  %i79 = load ptr, ptr %_4.i16, align 8, !dbg !1154, !noundef !16
  %i80 = ptrtoint ptr %i79 to i64, !dbg !1154
  %i81 = icmp eq i64 %i80, 0, !dbg !1154
  %_5.i = select i1 %i81, i64 1, i64 0, !dbg !1154
  %i82 = icmp eq i64 %_5.i, 0, !dbg !1155
  br i1 %i82, label %bb3.i, label %codeRepl.i, !dbg !1155

bb3.i:                                            ; preds = %bb9
  store ptr %i79, ptr %self.i, align 8, !dbg !1156
  call void @llvm.lifetime.end.p0(i64 8, ptr %self.i), !dbg !1160
  call void @llvm.lifetime.end.p0(i64 16, ptr %_4.i16), !dbg !1160
  call void @llvm.lifetime.end.p0(i64 16, ptr %layout.i), !dbg !1160
  call void @llvm.memcpy.p0.p0.i64(ptr align 8 %i79, ptr align 8 %main, i64 32, i1 false), !dbg !1161
  store ptr %i79, ptr %b, align 8, !dbg !1162
  store ptr %i79, ptr %_86, align 8, !dbg !1171
  store ptr %i79, ptr %leaked, align 8, !dbg !1183
  store ptr %i79, ptr %_94, align 8, !dbg !1191
  %i83 = getelementptr inbounds { ptr, ptr }, ptr %_94, i32 0, i32 1, !dbg !1191
  store ptr @vtable.5, ptr %i83, align 8, !dbg !1191
  store ptr %i79, ptr %_93, align 8, !dbg !1208
  %i87 = getelementptr inbounds { ptr, ptr }, ptr %_93, i32 0, i32 1, !dbg !1208
  store ptr @vtable.5, ptr %i87, align 8, !dbg !1208
  store ptr %i79, ptr %main4, align 8, !dbg !1209
  %i91 = getelementptr inbounds { ptr, ptr }, ptr %main4, i32 0, i32 1, !dbg !1209
  store ptr @vtable.5, ptr %i91, align 8, !dbg !1209
; call std::sys::unix::thread::Thread::new
  call void @_ZN3std3sys4unix6thread6Thread3new17h87f4070d7391b575E(ptr sret(%"core::result::Result<std::sys::unix::thread::Thread, std::io::error::Error>") align 8 %self5, i64 %_39, ptr align 1 %i79, ptr align 8 @vtable.5) #27, !dbg !1210
  %_97 = load i64, ptr %self5, align 8, !dbg !1213, !range !109, !noundef !16
  %i95 = icmp ne i64 %_97, 0, !dbg !1216
  br i1 %i95, label %bb50, label %Flow115, !dbg !1216

codeRepl.i:                                       ; preds = %bb9
  %layout.i.val = load i64, ptr %layout.i, align 8, !dbg !1217, !range !1009, !noundef !16
  %3 = getelementptr i8, ptr %layout.i, i64 8, !dbg !1217
  %layout.i.val118 = load i64, ptr %3, align 8, !dbg !1217, !noundef !16
; call alloc::alloc::exchange_malloc.5.bb1
  call fastcc void @_ZN5alloc5alloc15exchange_malloc17h62dc71f5b90e994bE.5.bb1(i64 %layout.i.val, i64 %layout.i.val118), !dbg !1217
  unreachable

Flow115:                                          ; preds = %bb50, %bb3.i
  %4 = phi ptr [ %e, %bb50 ], [ undef, %bb3.i ]
  %5 = phi i64 [ %8, %bb50 ], [ undef, %bb3.i ]
  %6 = phi i1 [ false, %bb50 ], [ true, %bb3.i ], !dbg !1216
  br i1 %6, label %bb51, label %bb49, !dbg !1216

bb51:                                             ; preds = %Flow115
  %i96 = getelementptr inbounds %"core::result::Result<std::sys::unix::thread::Thread, std::io::error::Error>::Ok", ptr %self5, i32 0, i32 1, !dbg !1218
  %v = load i64, ptr %i96, align 8, !dbg !1218, !noundef !16
  %i97 = getelementptr inbounds %"core::ops::control_flow::ControlFlow<core::result::Result<core::convert::Infallible, std::io::error::Error>, std::sys::unix::thread::Thread>::Continue", ptr %_37, i32 0, i32 1, !dbg !1219
  store i64 %v, ptr %i97, align 8, !dbg !1219
  store i64 0, ptr %_37, align 8, !dbg !1219
  %7 = inttoptr i64 %v to ptr, !dbg !1221
  br label %bb49, !dbg !1221

bb50:                                             ; preds = %bb3.i
  %i98 = getelementptr inbounds %"core::result::Result<std::sys::unix::thread::Thread, std::io::error::Error>::Err", ptr %self5, i32 0, i32 1, !dbg !1222
  %e = load ptr, ptr %i98, align 8, !dbg !1222, !nonnull !16, !noundef !16
  store ptr %e, ptr %_100, align 8, !dbg !1223
  %i100 = getelementptr inbounds %"core::ops::control_flow::ControlFlow<core::result::Result<core::convert::Infallible, std::io::error::Error>, std::sys::unix::thread::Thread>::Break", ptr %_37, i32 0, i32 1, !dbg !1225
  store ptr %e, ptr %i100, align 8, !dbg !1225
  store i64 1, ptr %_37, align 8, !dbg !1225
  %8 = ptrtoint ptr %e to i64, !dbg !1226
  br label %Flow115, !dbg !1226

bb49:                                             ; preds = %bb51, %Flow115
  %val = phi i64 [ %5, %Flow115 ], [ %v, %bb51 ]
  %i106 = phi ptr [ %4, %Flow115 ], [ %7, %bb51 ]
  %_40 = phi i64 [ 1, %Flow115 ], [ 0, %bb51 ], !dbg !1210
  %i101 = icmp ne i64 %_40, 0, !dbg !1210
  br i1 %i101, label %bb14, label %Flow, !dbg !1210

Flow:                                             ; preds = %bb14, %bb49
  %9 = phi i1 [ false, %bb14 ], [ true, %bb49 ], !dbg !1210
  br i1 %9, label %bb12, label %bb17, !dbg !1210

bb12:                                             ; preds = %Flow
  %_43 = load ptr, ptr %my_thread, align 8, !dbg !1227, !nonnull !16, !noundef !16
  %_44 = load ptr, ptr %my_packet, align 8, !dbg !1228, !nonnull !16, !noundef !16
  %i103 = getelementptr inbounds %"std::thread::JoinInner<'_, ()>", ptr %_36, i32 0, i32 2, !dbg !1229
  store i64 %val, ptr %i103, align 8, !dbg !1229
  store ptr %_43, ptr %_36, align 8, !dbg !1229
  %i104 = getelementptr inbounds %"std::thread::JoinInner<'_, ()>", ptr %_36, i32 0, i32 1, !dbg !1229
  store ptr %_44, ptr %i104, align 8, !dbg !1229
  call void @llvm.memcpy.p0.p0.i64(ptr align 8 %_0, ptr align 8 %_36, i64 24, i1 false), !dbg !1230
  br label %bb17, !dbg !1231

bb14:                                             ; preds = %bb49
  store ptr %i106, ptr %residual, align 8, !dbg !1232
  %i107 = getelementptr inbounds %"core::result::Result<std::thread::JoinInner<'_, ()>, std::io::error::Error>::Err", ptr %_0, i32 0, i32 1, !dbg !1233
  store ptr %i106, ptr %i107, align 8, !dbg !1233
  store ptr null, ptr %_0, align 8, !dbg !1233
; call core::ptr::drop_in_place<alloc::sync::Arc<std::thread::Packet<()>>>
  call fastcc void @"_ZN4core3ptr80drop_in_place$LT$alloc..sync..Arc$LT$std..thread..Packet$LT$$LP$$RP$$GT$$GT$$GT$17h7786af121b5ab59aE"(ptr align 8 %my_packet) #27, !dbg !1240
; call core::ptr::drop_in_place<std::thread::Thread>
  call fastcc void @"_ZN4core3ptr40drop_in_place$LT$std..thread..Thread$GT$17he6dbe1407530fadaE"(ptr align 8 %my_thread) #27, !dbg !1241
  br label %Flow, !dbg !1231

bb17:                                             ; preds = %bb12, %Flow
  ret void, !dbg !1242
}

; std::thread::Builder::spawn_unchecked_
; Function Attrs: nounwind nonlazybind
define internal fastcc void @_ZN3std6thread7Builder16spawn_unchecked_17h8a896b3c2c298327E(ptr noalias nocapture writeonly align 8 %_0, ptr nocapture readonly align 8 %self, ptr align 8 %f, ptr %arg) unnamed_addr #3 personality ptr @rust_eh_personality !dbg !1243 {
start:
  %e.i = alloca %"alloc::ffi::c_str::NulError", align 8
  %self.i = alloca ptr, align 8
  %_4.i16 = alloca { ptr, i64 }, align 8
  %layout.i = alloca { i64, i64 }, align 8
  %_100 = alloca ptr, align 8
  %_94 = alloca { ptr, ptr }, align 8
  %_93 = alloca { ptr, ptr }, align 8
  %leaked = alloca ptr, align 8
  %_86 = alloca ptr, align 8
  %b = alloca ptr, align 8
  %_68 = alloca ptr, align 8
  %_67 = alloca ptr, align 8
  %_59 = alloca ptr, align 8
  %_57 = alloca %"core::result::Result<alloc::ffi::c_str::CString, alloc::ffi::c_str::NulError>", align 8
  %x = alloca %"alloc::string::String", align 8
  %_51 = alloca i8, align 1
  %_50 = alloca i8, align 1
  %_49 = alloca i8, align 1
  %_48 = alloca i8, align 1
  %_47 = alloca i8, align 1
  %_46 = alloca i8, align 1
  %_45 = alloca i8, align 1
  %residual = alloca ptr, align 8
  %self5 = alloca %"core::result::Result<std::sys::unix::thread::Thread, std::io::error::Error>", align 8
  %_37 = alloca %"core::ops::control_flow::ControlFlow<core::result::Result<core::convert::Infallible, std::io::error::Error>, std::sys::unix::thread::Thread>", align 8
  %_36 = alloca %"std::thread::JoinInner<'_, ()>", align 8
  %main4 = alloca { ptr, ptr }, align 8
  %_33 = alloca %"{closure@std::thread::Builder::spawn_unchecked_<'_, '_, {closure@data/RUSTSEC_2020_0142.rs:58:28: 58:35}, ()>::{closure#1}}", align 8
  %main = alloca %"{closure@std::thread::Builder::spawn_unchecked_<'_, '_, {closure@data/RUSTSEC_2020_0142.rs:58:28: 58:35}, ()>::{closure#1}}", align 8
  %f3 = alloca ptr, align 8
  %_21 = alloca ptr, align 8
  %_20 = alloca ptr, align 8
  %output_capture = alloca ptr, align 8
  %their_packet = alloca ptr, align 8
  %value = alloca %"core::option::Option<core::result::Result<(), alloc::boxed::Box<dyn core::any::Any + core::marker::Send>>>", align 8
  %_13 = alloca %"std::thread::Packet<'_, ()>", align 8
  %my_packet = alloca ptr, align 8
  %their_thread = alloca ptr, align 8
  %self2 = alloca %"core::option::Option<alloc::string::String>", align 8
  %_8 = alloca { ptr, i64 }, align 8
  %my_thread = alloca ptr, align 8
  %stack_size1 = alloca i64, align 8
  %stack_size = alloca { i64, i64 }, align 8
  %name = alloca %"core::option::Option<alloc::string::String>", align 8
  %scope_data = alloca ptr, align 8
  store ptr %arg, ptr %scope_data, align 8
  store i8 1, ptr %_51, align 1, !dbg !1244
  store i8 1, ptr %_50, align 1, !dbg !1244
  store i8 1, ptr %_49, align 1, !dbg !1245
  %i = getelementptr inbounds %"std::thread::Builder", ptr %self, i32 0, i32 1, !dbg !1245
  call void @llvm.memcpy.p0.p0.i64(ptr align 8 %name, ptr align 8 %i, i64 24, i1 false), !dbg !1245
  %i28 = load i64, ptr %self, align 8, !dbg !1246, !range !109, !noundef !16
  %i29 = getelementptr inbounds { i64, i64 }, ptr %self, i32 0, i32 1, !dbg !1246
  %i30 = load i64, ptr %i29, align 8, !dbg !1246
  store i64 %i28, ptr %stack_size, align 8, !dbg !1246
  %i31 = getelementptr inbounds { i64, i64 }, ptr %stack_size, i32 0, i32 1, !dbg !1246
  store i64 %i30, ptr %i31, align 8, !dbg !1246
  %i32 = icmp ne i64 %i28, 0, !dbg !1247
  br i1 %i32, label %bb37, label %Flow117, !dbg !1247

Flow117:                                          ; preds = %bb37, %start
  %0 = phi i1 [ false, %bb37 ], [ true, %start ], !dbg !1247
  br i1 %0, label %bb36, label %bb38, !dbg !1247

bb36:                                             ; preds = %Flow117
; call core::ops::function::FnOnce::call_once
  %i33 = call fastcc i64 @_ZN4core3ops8function6FnOnce9call_once17h3edf057482244b08E() #27, !dbg !1252
  store i64 %i33, ptr %stack_size1, align 8, !dbg !1252
  br label %bb38, !dbg !1252

bb37:                                             ; preds = %start
  store i64 %i30, ptr %stack_size1, align 8, !dbg !1253
  br label %Flow117, !dbg !1255

bb38:                                             ; preds = %bb36, %Flow117
  %_39 = phi i64 [ %i30, %Flow117 ], [ %i33, %bb36 ]
  store i8 0, ptr %_49, align 1, !dbg !1256
  call void @llvm.memcpy.p0.p0.i64(ptr align 8 %self2, ptr align 8 %name, i64 24, i1 false), !dbg !1256
  %i35 = load i64, ptr %self2, align 8, !dbg !1258, !range !788, !noundef !16
  %i36 = icmp eq i64 %i35, -9223372036854775808, !dbg !1258
  br i1 %i36, label %bb39, label %bb40, !dbg !1262

bb39:                                             ; preds = %bb38
  store ptr null, ptr %_8, align 8, !dbg !1263
  br label %bb41, !dbg !1263

bb40:                                             ; preds = %bb38
  call void @llvm.memcpy.p0.p0.i64(ptr align 8 %x, ptr align 8 %name, i64 24, i1 false), !dbg !1264
; call <T as alloc::ffi::c_str::CString::new::SpecNewImpl>::spec_new_impl
  call fastcc void @"_ZN66_$LT$T$u20$as$u20$alloc..ffi..c_str..CString..new..SpecNewImpl$GT$13spec_new_impl17hf5003064e4a15617E"(ptr noalias align 8 %_57, ptr align 8 %x) #27, !dbg !1265
  call void @llvm.lifetime.start.p0(i64 32, ptr %e.i), !dbg !1273
  %i37 = load i64, ptr %_57, align 8, !dbg !1273, !range !788, !noundef !16
  %i38 = icmp eq i64 %i37, -9223372036854775808, !dbg !1273
  br i1 %i38, label %bb3.i19, label %codeRepl.i18, !dbg !1275

bb41:                                             ; preds = %bb3.i19, %bb39
  %i41 = phi i64 [ %t.1.i, %bb3.i19 ], [ undef, %bb39 ], !dbg !1276
  %i39 = phi ptr [ %t.0.i, %bb3.i19 ], [ null, %bb39 ], !dbg !1276
; call std::thread::Thread::new
  %i42 = call ptr @_ZN3std6thread6Thread3new17h91c2acbc87f07c63E(ptr align 1 %i39, i64 %i41) #27, !dbg !1276
  store ptr %i42, ptr %my_thread, align 8, !dbg !1276
; call <alloc::sync::Arc<T,A> as core::clone::Clone>::clone
  %_61 = call fastcc ptr @"_ZN68_$LT$alloc..sync..Arc$LT$T$C$A$GT$$u20$as$u20$core..clone..Clone$GT$5clone17h2caf97ee930eb057E"(ptr align 8 %my_thread) #27, !dbg !1277
  store ptr %_61, ptr %_59, align 8, !dbg !1277
  store ptr %_61, ptr %their_thread, align 8, !dbg !1285
  store i8 1, ptr %_48, align 1, !dbg !1286
  store i8 0, ptr %_50, align 1, !dbg !1287
  store i64 0, ptr %value, align 8, !dbg !1289
  %i44 = getelementptr inbounds %"std::thread::Packet<'_, ()>", ptr %_13, i32 0, i32 1, !dbg !1290
  call void @llvm.memcpy.p0.p0.i64(ptr align 8 %i44, ptr align 8 %value, i64 24, i1 false), !dbg !1291
  store ptr %arg, ptr %_13, align 8, !dbg !1290
; call alloc::sync::Arc<T>::new
  %i45 = call fastcc ptr @"_ZN5alloc4sync12Arc$LT$T$GT$3new17hdfb3b915c1a09c14E"(ptr align 8 %_13) #27, !dbg !1295
  store ptr %i45, ptr %my_packet, align 8, !dbg !1295
; call <alloc::sync::Arc<T,A> as core::clone::Clone>::clone
  %i46 = call fastcc ptr @"_ZN68_$LT$alloc..sync..Arc$LT$T$C$A$GT$$u20$as$u20$core..clone..Clone$GT$5clone17h2caf97ee930eb057E"(ptr align 8 %my_packet) #27, !dbg !1296
  store ptr %i46, ptr %their_packet, align 8, !dbg !1296
  store i8 1, ptr %_47, align 1, !dbg !1298
; call std::io::stdio::set_output_capture
  %i47 = call ptr @_ZN3std2io5stdio18set_output_capture17hbfdad0a1763c8421E(ptr null) #27, !dbg !1299
  store ptr %i47, ptr %output_capture, align 8, !dbg !1299
  store i8 1, ptr %_46, align 1, !dbg !1301
  %i49 = ptrtoint ptr %i47 to i64, !dbg !1302
  %i50 = icmp ne i64 %i49, 0, !dbg !1302
  br i1 %i50, label %bb47, label %Flow116, !dbg !1307

bb3.i19:                                          ; preds = %bb40
  %i51 = getelementptr inbounds %"core::result::Result<alloc::ffi::c_str::CString, alloc::ffi::c_str::NulError>::Ok", ptr %_57, i32 0, i32 1, !dbg !1308
  %t.0.i = load ptr, ptr %i51, align 8, !dbg !1308, !nonnull !16, !align !582, !noundef !16
  %i52 = getelementptr inbounds { ptr, i64 }, ptr %i51, i32 0, i32 1, !dbg !1308
  %t.1.i = load i64, ptr %i52, align 8, !dbg !1308, !noundef !16
  call void @llvm.lifetime.end.p0(i64 32, ptr %e.i), !dbg !1309
  store ptr %t.0.i, ptr %_8, align 8, !dbg !1310
  %i53 = getelementptr inbounds { ptr, i64 }, ptr %_8, i32 0, i32 1, !dbg !1310
  store i64 %t.1.i, ptr %i53, align 8, !dbg !1310
  br label %bb41, !dbg !1311

codeRepl.i18:                                     ; preds = %bb40
; call core::result::Result<T,E>::expect.7.bb1
  call fastcc void @"_ZN4core6result19Result$LT$T$C$E$GT$6expect17h7335d8997e575aecE.7.bb1"(ptr %e.i, ptr %_57, ptr @alloc_498705839b3ae85466bce6e7ebfe4996, i64 47, ptr @alloc_10ce3643ab05b89124ccab86e25db141), !dbg !1312
  unreachable

Flow116:                                          ; preds = %bb47, %bb41
  %1 = phi ptr [ %_65, %bb47 ], [ undef, %bb41 ]
  %2 = phi i1 [ false, %bb47 ], [ true, %bb41 ], !dbg !1307
  br i1 %2, label %bb46, label %bb45, !dbg !1307

bb46:                                             ; preds = %Flow116
  store ptr null, ptr %_21, align 8, !dbg !1313
  br label %bb45, !dbg !1313

bb47:                                             ; preds = %bb41
; call <alloc::sync::Arc<T,A> as core::clone::Clone>::clone
  %_65 = call fastcc ptr @"_ZN68_$LT$alloc..sync..Arc$LT$T$C$A$GT$$u20$as$u20$core..clone..Clone$GT$5clone17h2caf97ee930eb057E"(ptr align 8 %output_capture) #27, !dbg !1314
  store ptr %_65, ptr %_21, align 8, !dbg !1316
  br label %Flow116, !dbg !1317

bb45:                                             ; preds = %bb46, %Flow116
  %i54 = phi ptr [ %1, %Flow116 ], [ null, %bb46 ], !dbg !1318
; call std::io::stdio::set_output_capture
  %i55 = call ptr @_ZN3std2io5stdio18set_output_capture17hbfdad0a1763c8421E(ptr %i54) #27, !dbg !1318
  store ptr %i55, ptr %_20, align 8, !dbg !1318
  %i57 = ptrtoint ptr %i55 to i64, !dbg !1319
  %i58 = icmp ne i64 %i57, 0, !dbg !1319
  br i1 %i58, label %codeRepl.i22, label %bb6, !dbg !1319

codeRepl.i22:                                     ; preds = %bb45
; call core::ptr::drop_in_place<core::option::Option<alloc::sync::Arc<std::sync::mutex::Mutex<alloc::vec::Vec<u8>>>>>.18.bb2
  call fastcc void @"_ZN4core3ptr129drop_in_place$LT$core..option..Option$LT$alloc..sync..Arc$LT$std..sync..mutex..Mutex$LT$alloc..vec..Vec$LT$u8$GT$$GT$$GT$$GT$$GT$17h068803038d83c16bE.18.bb2"(ptr %_20), !dbg !1319
  br label %bb6

bb6:                                              ; preds = %codeRepl.i22, %bb45
  store i8 0, ptr %_51, align 1, !dbg !1321
  store ptr %f, ptr %_68, align 8, !dbg !1322
  store ptr %f, ptr %_67, align 8, !dbg !1332
  store ptr %f, ptr %f3, align 8, !dbg !1333
  store i8 0, ptr %_48, align 1, !dbg !1334
  store i8 0, ptr %_46, align 1, !dbg !1334
  store i8 0, ptr %_47, align 1, !dbg !1334
  store i8 1, ptr %_45, align 1, !dbg !1334
  store ptr %_61, ptr %main, align 8, !dbg !1334
  %i62 = load ptr, ptr %output_capture, align 8, !dbg !1334, !noundef !16
  %i63 = getelementptr inbounds %"{closure@std::thread::Builder::spawn_unchecked_<'_, '_, {closure@data/RUSTSEC_2020_0142.rs:58:28: 58:35}, ()>::{closure#1}}", ptr %main, i32 0, i32 2, !dbg !1334
  store ptr %i62, ptr %i63, align 8, !dbg !1334
  %i65 = getelementptr inbounds %"{closure@std::thread::Builder::spawn_unchecked_<'_, '_, {closure@data/RUSTSEC_2020_0142.rs:58:28: 58:35}, ()>::{closure#1}}", ptr %main, i32 0, i32 3, !dbg !1334
  store ptr %f, ptr %i65, align 8, !dbg !1334
  %i67 = getelementptr inbounds %"{closure@std::thread::Builder::spawn_unchecked_<'_, '_, {closure@data/RUSTSEC_2020_0142.rs:58:28: 58:35}, ()>::{closure#1}}", ptr %main, i32 0, i32 1, !dbg !1334
  store ptr %i46, ptr %i67, align 8, !dbg !1334
  %self7 = load ptr, ptr %my_packet, align 8, !dbg !1336, !nonnull !16, !noundef !16
  %i68 = getelementptr inbounds %"alloc::sync::ArcInner<std::thread::Packet<'_, ()>>", ptr %self7, i32 0, i32 2, !dbg !1350
  %i69 = load ptr, ptr %i68, align 8, !dbg !1350, !noundef !16
  %i70 = ptrtoint ptr %i69 to i64, !dbg !1350
  %i71 = icmp eq i64 %i70, 0, !dbg !1350
  %_27 = select i1 %i71, i64 0, i64 1, !dbg !1350
  %i72 = icmp eq i64 %_27, 1, !dbg !1350
  br i1 %i72, label %bb7, label %bb9, !dbg !1350

bb7:                                              ; preds = %bb6
  %_30 = getelementptr inbounds %"alloc::sync::ArcInner<std::thread::scoped::ScopeData>", ptr %i69, i32 0, i32 2, !dbg !1351
; call std::thread::scoped::ScopeData::increment_num_running_threads
  call void @_ZN3std6thread6scoped9ScopeData29increment_num_running_threads17h1f4288a87dda043cE(ptr align 8 %_30) #27, !dbg !1351
  br label %bb9, !dbg !1352

bb9:                                              ; preds = %bb7, %bb6
  store i8 0, ptr %_45, align 1, !dbg !1353
  call void @llvm.memcpy.p0.p0.i64(ptr align 8 %_33, ptr align 8 %main, i64 32, i1 false), !dbg !1353
  call void @llvm.lifetime.start.p0(i64 8, ptr %self.i), !dbg !1354
  call void @llvm.lifetime.start.p0(i64 16, ptr %_4.i16), !dbg !1354
  call void @llvm.lifetime.start.p0(i64 16, ptr %layout.i), !dbg !1354
  %i74 = getelementptr inbounds { i64, i64 }, ptr %layout.i, i32 0, i32 1, !dbg !1354
  store i64 32, ptr %i74, align 8, !dbg !1354
  store i64 8, ptr %layout.i, align 8, !dbg !1354
; call alloc::alloc::Global::alloc_impl
  %i78 = call fastcc { ptr, i64 } @_ZN5alloc5alloc6Global10alloc_impl17h27c871659e12f0e0E(i64 8, i64 32, i1 zeroext false) #27, !dbg !1360
  store { ptr, i64 } %i78, ptr %_4.i16, align 8, !dbg !1360
  %i79 = load ptr, ptr %_4.i16, align 8, !dbg !1362, !noundef !16
  %i80 = ptrtoint ptr %i79 to i64, !dbg !1362
  %i81 = icmp eq i64 %i80, 0, !dbg !1362
  %_5.i = select i1 %i81, i64 1, i64 0, !dbg !1362
  %i82 = icmp eq i64 %_5.i, 0, !dbg !1363
  br i1 %i82, label %bb3.i, label %codeRepl.i, !dbg !1363

bb3.i:                                            ; preds = %bb9
  store ptr %i79, ptr %self.i, align 8, !dbg !1364
  call void @llvm.lifetime.end.p0(i64 8, ptr %self.i), !dbg !1368
  call void @llvm.lifetime.end.p0(i64 16, ptr %_4.i16), !dbg !1368
  call void @llvm.lifetime.end.p0(i64 16, ptr %layout.i), !dbg !1368
  call void @llvm.memcpy.p0.p0.i64(ptr align 8 %i79, ptr align 8 %main, i64 32, i1 false), !dbg !1369
  store ptr %i79, ptr %b, align 8, !dbg !1370
  store ptr %i79, ptr %_86, align 8, !dbg !1379
  store ptr %i79, ptr %leaked, align 8, !dbg !1391
  store ptr %i79, ptr %_94, align 8, !dbg !1399
  %i83 = getelementptr inbounds { ptr, ptr }, ptr %_94, i32 0, i32 1, !dbg !1399
  store ptr @vtable.4, ptr %i83, align 8, !dbg !1399
  store ptr %i79, ptr %_93, align 8, !dbg !1416
  %i87 = getelementptr inbounds { ptr, ptr }, ptr %_93, i32 0, i32 1, !dbg !1416
  store ptr @vtable.4, ptr %i87, align 8, !dbg !1416
  store ptr %i79, ptr %main4, align 8, !dbg !1417
  %i91 = getelementptr inbounds { ptr, ptr }, ptr %main4, i32 0, i32 1, !dbg !1417
  store ptr @vtable.4, ptr %i91, align 8, !dbg !1417
; call std::sys::unix::thread::Thread::new
  call void @_ZN3std3sys4unix6thread6Thread3new17h87f4070d7391b575E(ptr sret(%"core::result::Result<std::sys::unix::thread::Thread, std::io::error::Error>") align 8 %self5, i64 %_39, ptr align 1 %i79, ptr align 8 @vtable.4) #27, !dbg !1418
  %_97 = load i64, ptr %self5, align 8, !dbg !1421, !range !109, !noundef !16
  %i95 = icmp ne i64 %_97, 0, !dbg !1424
  br i1 %i95, label %bb50, label %Flow115, !dbg !1424

codeRepl.i:                                       ; preds = %bb9
  %layout.i.val = load i64, ptr %layout.i, align 8, !dbg !1425, !range !1009, !noundef !16
  %3 = getelementptr i8, ptr %layout.i, i64 8, !dbg !1425
  %layout.i.val118 = load i64, ptr %3, align 8, !dbg !1425, !noundef !16
; call alloc::alloc::exchange_malloc.5.bb1
  call fastcc void @_ZN5alloc5alloc15exchange_malloc17h62dc71f5b90e994bE.5.bb1(i64 %layout.i.val, i64 %layout.i.val118), !dbg !1425
  unreachable

Flow115:                                          ; preds = %bb50, %bb3.i
  %4 = phi ptr [ %e, %bb50 ], [ undef, %bb3.i ]
  %5 = phi i64 [ %8, %bb50 ], [ undef, %bb3.i ]
  %6 = phi i1 [ false, %bb50 ], [ true, %bb3.i ], !dbg !1424
  br i1 %6, label %bb51, label %bb49, !dbg !1424

bb51:                                             ; preds = %Flow115
  %i96 = getelementptr inbounds %"core::result::Result<std::sys::unix::thread::Thread, std::io::error::Error>::Ok", ptr %self5, i32 0, i32 1, !dbg !1426
  %v = load i64, ptr %i96, align 8, !dbg !1426, !noundef !16
  %i97 = getelementptr inbounds %"core::ops::control_flow::ControlFlow<core::result::Result<core::convert::Infallible, std::io::error::Error>, std::sys::unix::thread::Thread>::Continue", ptr %_37, i32 0, i32 1, !dbg !1427
  store i64 %v, ptr %i97, align 8, !dbg !1427
  store i64 0, ptr %_37, align 8, !dbg !1427
  %7 = inttoptr i64 %v to ptr, !dbg !1429
  br label %bb49, !dbg !1429

bb50:                                             ; preds = %bb3.i
  %i98 = getelementptr inbounds %"core::result::Result<std::sys::unix::thread::Thread, std::io::error::Error>::Err", ptr %self5, i32 0, i32 1, !dbg !1430
  %e = load ptr, ptr %i98, align 8, !dbg !1430, !nonnull !16, !noundef !16
  store ptr %e, ptr %_100, align 8, !dbg !1431
  %i100 = getelementptr inbounds %"core::ops::control_flow::ControlFlow<core::result::Result<core::convert::Infallible, std::io::error::Error>, std::sys::unix::thread::Thread>::Break", ptr %_37, i32 0, i32 1, !dbg !1433
  store ptr %e, ptr %i100, align 8, !dbg !1433
  store i64 1, ptr %_37, align 8, !dbg !1433
  %8 = ptrtoint ptr %e to i64, !dbg !1434
  br label %Flow115, !dbg !1434

bb49:                                             ; preds = %bb51, %Flow115
  %val = phi i64 [ %5, %Flow115 ], [ %v, %bb51 ]
  %i106 = phi ptr [ %4, %Flow115 ], [ %7, %bb51 ]
  %_40 = phi i64 [ 1, %Flow115 ], [ 0, %bb51 ], !dbg !1418
  %i101 = icmp ne i64 %_40, 0, !dbg !1418
  br i1 %i101, label %bb14, label %Flow, !dbg !1418

Flow:                                             ; preds = %bb14, %bb49
  %9 = phi i1 [ false, %bb14 ], [ true, %bb49 ], !dbg !1418
  br i1 %9, label %bb12, label %bb17, !dbg !1418

bb12:                                             ; preds = %Flow
  %_43 = load ptr, ptr %my_thread, align 8, !dbg !1435, !nonnull !16, !noundef !16
  %_44 = load ptr, ptr %my_packet, align 8, !dbg !1436, !nonnull !16, !noundef !16
  %i103 = getelementptr inbounds %"std::thread::JoinInner<'_, ()>", ptr %_36, i32 0, i32 2, !dbg !1437
  store i64 %val, ptr %i103, align 8, !dbg !1437
  store ptr %_43, ptr %_36, align 8, !dbg !1437
  %i104 = getelementptr inbounds %"std::thread::JoinInner<'_, ()>", ptr %_36, i32 0, i32 1, !dbg !1437
  store ptr %_44, ptr %i104, align 8, !dbg !1437
  call void @llvm.memcpy.p0.p0.i64(ptr align 8 %_0, ptr align 8 %_36, i64 24, i1 false), !dbg !1438
  br label %bb17, !dbg !1439

bb14:                                             ; preds = %bb49
  store ptr %i106, ptr %residual, align 8, !dbg !1440
  %i107 = getelementptr inbounds %"core::result::Result<std::thread::JoinInner<'_, ()>, std::io::error::Error>::Err", ptr %_0, i32 0, i32 1, !dbg !1441
  store ptr %i106, ptr %i107, align 8, !dbg !1441
  store ptr null, ptr %_0, align 8, !dbg !1441
; call core::ptr::drop_in_place<alloc::sync::Arc<std::thread::Packet<()>>>
  call fastcc void @"_ZN4core3ptr80drop_in_place$LT$alloc..sync..Arc$LT$std..thread..Packet$LT$$LP$$RP$$GT$$GT$$GT$17h7786af121b5ab59aE"(ptr align 8 %my_packet) #27, !dbg !1448
; call core::ptr::drop_in_place<std::thread::Thread>
  call fastcc void @"_ZN4core3ptr40drop_in_place$LT$std..thread..Thread$GT$17he6dbe1407530fadaE"(ptr align 8 %my_thread) #27, !dbg !1449
  br label %Flow, !dbg !1439

bb17:                                             ; preds = %bb12, %Flow
  ret void, !dbg !1450
}

; std::thread::Builder::spawn_unchecked_
; Function Attrs: nounwind nonlazybind
define internal fastcc void @_ZN3std6thread7Builder16spawn_unchecked_17hb8eb552b86a3fe54E(ptr noalias nocapture writeonly align 8 %_0, ptr nocapture readonly align 8 %self, ptr align 8 %f, ptr %arg) unnamed_addr #3 personality ptr @rust_eh_personality !dbg !1451 {
start:
  %e.i = alloca %"alloc::ffi::c_str::NulError", align 8
  %self.i = alloca ptr, align 8
  %_4.i16 = alloca { ptr, i64 }, align 8
  %layout.i = alloca { i64, i64 }, align 8
  %_100 = alloca ptr, align 8
  %_94 = alloca { ptr, ptr }, align 8
  %_93 = alloca { ptr, ptr }, align 8
  %leaked = alloca ptr, align 8
  %_86 = alloca ptr, align 8
  %b = alloca ptr, align 8
  %_68 = alloca ptr, align 8
  %_67 = alloca ptr, align 8
  %_59 = alloca ptr, align 8
  %_57 = alloca %"core::result::Result<alloc::ffi::c_str::CString, alloc::ffi::c_str::NulError>", align 8
  %x = alloca %"alloc::string::String", align 8
  %_51 = alloca i8, align 1
  %_50 = alloca i8, align 1
  %_49 = alloca i8, align 1
  %_48 = alloca i8, align 1
  %_47 = alloca i8, align 1
  %_46 = alloca i8, align 1
  %_45 = alloca i8, align 1
  %residual = alloca ptr, align 8
  %self5 = alloca %"core::result::Result<std::sys::unix::thread::Thread, std::io::error::Error>", align 8
  %_37 = alloca %"core::ops::control_flow::ControlFlow<core::result::Result<core::convert::Infallible, std::io::error::Error>, std::sys::unix::thread::Thread>", align 8
  %_36 = alloca %"std::thread::JoinInner<'_, ()>", align 8
  %main4 = alloca { ptr, ptr }, align 8
  %_33 = alloca %"{closure@std::thread::Builder::spawn_unchecked_<'_, '_, {closure@data/RUSTSEC_2020_0142.rs:65:28: 65:35}, ()>::{closure#1}}", align 8
  %main = alloca %"{closure@std::thread::Builder::spawn_unchecked_<'_, '_, {closure@data/RUSTSEC_2020_0142.rs:65:28: 65:35}, ()>::{closure#1}}", align 8
  %f3 = alloca ptr, align 8
  %_21 = alloca ptr, align 8
  %_20 = alloca ptr, align 8
  %output_capture = alloca ptr, align 8
  %their_packet = alloca ptr, align 8
  %value = alloca %"core::option::Option<core::result::Result<(), alloc::boxed::Box<dyn core::any::Any + core::marker::Send>>>", align 8
  %_13 = alloca %"std::thread::Packet<'_, ()>", align 8
  %my_packet = alloca ptr, align 8
  %their_thread = alloca ptr, align 8
  %self2 = alloca %"core::option::Option<alloc::string::String>", align 8
  %_8 = alloca { ptr, i64 }, align 8
  %my_thread = alloca ptr, align 8
  %stack_size1 = alloca i64, align 8
  %stack_size = alloca { i64, i64 }, align 8
  %name = alloca %"core::option::Option<alloc::string::String>", align 8
  %scope_data = alloca ptr, align 8
  store ptr %arg, ptr %scope_data, align 8
  store i8 1, ptr %_51, align 1, !dbg !1452
  store i8 1, ptr %_50, align 1, !dbg !1452
  store i8 1, ptr %_49, align 1, !dbg !1453
  %i = getelementptr inbounds %"std::thread::Builder", ptr %self, i32 0, i32 1, !dbg !1453
  call void @llvm.memcpy.p0.p0.i64(ptr align 8 %name, ptr align 8 %i, i64 24, i1 false), !dbg !1453
  %i28 = load i64, ptr %self, align 8, !dbg !1454, !range !109, !noundef !16
  %i29 = getelementptr inbounds { i64, i64 }, ptr %self, i32 0, i32 1, !dbg !1454
  %i30 = load i64, ptr %i29, align 8, !dbg !1454
  store i64 %i28, ptr %stack_size, align 8, !dbg !1454
  %i31 = getelementptr inbounds { i64, i64 }, ptr %stack_size, i32 0, i32 1, !dbg !1454
  store i64 %i30, ptr %i31, align 8, !dbg !1454
  %i32 = icmp ne i64 %i28, 0, !dbg !1455
  br i1 %i32, label %bb37, label %Flow117, !dbg !1455

Flow117:                                          ; preds = %bb37, %start
  %0 = phi i1 [ false, %bb37 ], [ true, %start ], !dbg !1455
  br i1 %0, label %bb36, label %bb38, !dbg !1455

bb36:                                             ; preds = %Flow117
; call core::ops::function::FnOnce::call_once
  %i33 = call fastcc i64 @_ZN4core3ops8function6FnOnce9call_once17h3edf057482244b08E() #27, !dbg !1460
  store i64 %i33, ptr %stack_size1, align 8, !dbg !1460
  br label %bb38, !dbg !1460

bb37:                                             ; preds = %start
  store i64 %i30, ptr %stack_size1, align 8, !dbg !1461
  br label %Flow117, !dbg !1463

bb38:                                             ; preds = %bb36, %Flow117
  %_39 = phi i64 [ %i30, %Flow117 ], [ %i33, %bb36 ]
  store i8 0, ptr %_49, align 1, !dbg !1464
  call void @llvm.memcpy.p0.p0.i64(ptr align 8 %self2, ptr align 8 %name, i64 24, i1 false), !dbg !1464
  %i35 = load i64, ptr %self2, align 8, !dbg !1466, !range !788, !noundef !16
  %i36 = icmp eq i64 %i35, -9223372036854775808, !dbg !1466
  br i1 %i36, label %bb39, label %bb40, !dbg !1470

bb39:                                             ; preds = %bb38
  store ptr null, ptr %_8, align 8, !dbg !1471
  br label %bb41, !dbg !1471

bb40:                                             ; preds = %bb38
  call void @llvm.memcpy.p0.p0.i64(ptr align 8 %x, ptr align 8 %name, i64 24, i1 false), !dbg !1472
; call <T as alloc::ffi::c_str::CString::new::SpecNewImpl>::spec_new_impl
  call fastcc void @"_ZN66_$LT$T$u20$as$u20$alloc..ffi..c_str..CString..new..SpecNewImpl$GT$13spec_new_impl17hf5003064e4a15617E"(ptr noalias align 8 %_57, ptr align 8 %x) #27, !dbg !1473
  call void @llvm.lifetime.start.p0(i64 32, ptr %e.i), !dbg !1481
  %i37 = load i64, ptr %_57, align 8, !dbg !1481, !range !788, !noundef !16
  %i38 = icmp eq i64 %i37, -9223372036854775808, !dbg !1481
  br i1 %i38, label %bb3.i19, label %codeRepl.i18, !dbg !1483

bb41:                                             ; preds = %bb3.i19, %bb39
  %i41 = phi i64 [ %t.1.i, %bb3.i19 ], [ undef, %bb39 ], !dbg !1484
  %i39 = phi ptr [ %t.0.i, %bb3.i19 ], [ null, %bb39 ], !dbg !1484
; call std::thread::Thread::new
  %i42 = call ptr @_ZN3std6thread6Thread3new17h91c2acbc87f07c63E(ptr align 1 %i39, i64 %i41) #27, !dbg !1484
  store ptr %i42, ptr %my_thread, align 8, !dbg !1484
; call <alloc::sync::Arc<T,A> as core::clone::Clone>::clone
  %_61 = call fastcc ptr @"_ZN68_$LT$alloc..sync..Arc$LT$T$C$A$GT$$u20$as$u20$core..clone..Clone$GT$5clone17h2caf97ee930eb057E"(ptr align 8 %my_thread) #27, !dbg !1485
  store ptr %_61, ptr %_59, align 8, !dbg !1485
  store ptr %_61, ptr %their_thread, align 8, !dbg !1493
  store i8 1, ptr %_48, align 1, !dbg !1494
  store i8 0, ptr %_50, align 1, !dbg !1495
  store i64 0, ptr %value, align 8, !dbg !1497
  %i44 = getelementptr inbounds %"std::thread::Packet<'_, ()>", ptr %_13, i32 0, i32 1, !dbg !1498
  call void @llvm.memcpy.p0.p0.i64(ptr align 8 %i44, ptr align 8 %value, i64 24, i1 false), !dbg !1499
  store ptr %arg, ptr %_13, align 8, !dbg !1498
; call alloc::sync::Arc<T>::new
  %i45 = call fastcc ptr @"_ZN5alloc4sync12Arc$LT$T$GT$3new17hdfb3b915c1a09c14E"(ptr align 8 %_13) #27, !dbg !1503
  store ptr %i45, ptr %my_packet, align 8, !dbg !1503
; call <alloc::sync::Arc<T,A> as core::clone::Clone>::clone
  %i46 = call fastcc ptr @"_ZN68_$LT$alloc..sync..Arc$LT$T$C$A$GT$$u20$as$u20$core..clone..Clone$GT$5clone17h2caf97ee930eb057E"(ptr align 8 %my_packet) #27, !dbg !1504
  store ptr %i46, ptr %their_packet, align 8, !dbg !1504
  store i8 1, ptr %_47, align 1, !dbg !1506
; call std::io::stdio::set_output_capture
  %i47 = call ptr @_ZN3std2io5stdio18set_output_capture17hbfdad0a1763c8421E(ptr null) #27, !dbg !1507
  store ptr %i47, ptr %output_capture, align 8, !dbg !1507
  store i8 1, ptr %_46, align 1, !dbg !1509
  %i49 = ptrtoint ptr %i47 to i64, !dbg !1510
  %i50 = icmp ne i64 %i49, 0, !dbg !1510
  br i1 %i50, label %bb47, label %Flow116, !dbg !1515

bb3.i19:                                          ; preds = %bb40
  %i51 = getelementptr inbounds %"core::result::Result<alloc::ffi::c_str::CString, alloc::ffi::c_str::NulError>::Ok", ptr %_57, i32 0, i32 1, !dbg !1516
  %t.0.i = load ptr, ptr %i51, align 8, !dbg !1516, !nonnull !16, !align !582, !noundef !16
  %i52 = getelementptr inbounds { ptr, i64 }, ptr %i51, i32 0, i32 1, !dbg !1516
  %t.1.i = load i64, ptr %i52, align 8, !dbg !1516, !noundef !16
  call void @llvm.lifetime.end.p0(i64 32, ptr %e.i), !dbg !1517
  store ptr %t.0.i, ptr %_8, align 8, !dbg !1518
  %i53 = getelementptr inbounds { ptr, i64 }, ptr %_8, i32 0, i32 1, !dbg !1518
  store i64 %t.1.i, ptr %i53, align 8, !dbg !1518
  br label %bb41, !dbg !1519

codeRepl.i18:                                     ; preds = %bb40
; call core::result::Result<T,E>::expect.7.bb1
  call fastcc void @"_ZN4core6result19Result$LT$T$C$E$GT$6expect17h7335d8997e575aecE.7.bb1"(ptr %e.i, ptr %_57, ptr @alloc_498705839b3ae85466bce6e7ebfe4996, i64 47, ptr @alloc_10ce3643ab05b89124ccab86e25db141), !dbg !1520
  unreachable

Flow116:                                          ; preds = %bb47, %bb41
  %1 = phi ptr [ %_65, %bb47 ], [ undef, %bb41 ]
  %2 = phi i1 [ false, %bb47 ], [ true, %bb41 ], !dbg !1515
  br i1 %2, label %bb46, label %bb45, !dbg !1515

bb46:                                             ; preds = %Flow116
  store ptr null, ptr %_21, align 8, !dbg !1521
  br label %bb45, !dbg !1521

bb47:                                             ; preds = %bb41
; call <alloc::sync::Arc<T,A> as core::clone::Clone>::clone
  %_65 = call fastcc ptr @"_ZN68_$LT$alloc..sync..Arc$LT$T$C$A$GT$$u20$as$u20$core..clone..Clone$GT$5clone17h2caf97ee930eb057E"(ptr align 8 %output_capture) #27, !dbg !1522
  store ptr %_65, ptr %_21, align 8, !dbg !1524
  br label %Flow116, !dbg !1525

bb45:                                             ; preds = %bb46, %Flow116
  %i54 = phi ptr [ %1, %Flow116 ], [ null, %bb46 ], !dbg !1526
; call std::io::stdio::set_output_capture
  %i55 = call ptr @_ZN3std2io5stdio18set_output_capture17hbfdad0a1763c8421E(ptr %i54) #27, !dbg !1526
  store ptr %i55, ptr %_20, align 8, !dbg !1526
  %i57 = ptrtoint ptr %i55 to i64, !dbg !1527
  %i58 = icmp ne i64 %i57, 0, !dbg !1527
  br i1 %i58, label %codeRepl.i22, label %bb6, !dbg !1527

codeRepl.i22:                                     ; preds = %bb45
; call core::ptr::drop_in_place<core::option::Option<alloc::sync::Arc<std::sync::mutex::Mutex<alloc::vec::Vec<u8>>>>>.18.bb2
  call fastcc void @"_ZN4core3ptr129drop_in_place$LT$core..option..Option$LT$alloc..sync..Arc$LT$std..sync..mutex..Mutex$LT$alloc..vec..Vec$LT$u8$GT$$GT$$GT$$GT$$GT$17h068803038d83c16bE.18.bb2"(ptr %_20), !dbg !1527
  br label %bb6

bb6:                                              ; preds = %codeRepl.i22, %bb45
  store i8 0, ptr %_51, align 1, !dbg !1529
  store ptr %f, ptr %_68, align 8, !dbg !1530
  store ptr %f, ptr %_67, align 8, !dbg !1540
  store ptr %f, ptr %f3, align 8, !dbg !1541
  store i8 0, ptr %_48, align 1, !dbg !1542
  store i8 0, ptr %_46, align 1, !dbg !1542
  store i8 0, ptr %_47, align 1, !dbg !1542
  store i8 1, ptr %_45, align 1, !dbg !1542
  store ptr %_61, ptr %main, align 8, !dbg !1542
  %i62 = load ptr, ptr %output_capture, align 8, !dbg !1542, !noundef !16
  %i63 = getelementptr inbounds %"{closure@std::thread::Builder::spawn_unchecked_<'_, '_, {closure@data/RUSTSEC_2020_0142.rs:65:28: 65:35}, ()>::{closure#1}}", ptr %main, i32 0, i32 2, !dbg !1542
  store ptr %i62, ptr %i63, align 8, !dbg !1542
  %i65 = getelementptr inbounds %"{closure@std::thread::Builder::spawn_unchecked_<'_, '_, {closure@data/RUSTSEC_2020_0142.rs:65:28: 65:35}, ()>::{closure#1}}", ptr %main, i32 0, i32 3, !dbg !1542
  store ptr %f, ptr %i65, align 8, !dbg !1542
  %i67 = getelementptr inbounds %"{closure@std::thread::Builder::spawn_unchecked_<'_, '_, {closure@data/RUSTSEC_2020_0142.rs:65:28: 65:35}, ()>::{closure#1}}", ptr %main, i32 0, i32 1, !dbg !1542
  store ptr %i46, ptr %i67, align 8, !dbg !1542
  %self7 = load ptr, ptr %my_packet, align 8, !dbg !1544, !nonnull !16, !noundef !16
  %i68 = getelementptr inbounds %"alloc::sync::ArcInner<std::thread::Packet<'_, ()>>", ptr %self7, i32 0, i32 2, !dbg !1558
  %i69 = load ptr, ptr %i68, align 8, !dbg !1558, !noundef !16
  %i70 = ptrtoint ptr %i69 to i64, !dbg !1558
  %i71 = icmp eq i64 %i70, 0, !dbg !1558
  %_27 = select i1 %i71, i64 0, i64 1, !dbg !1558
  %i72 = icmp eq i64 %_27, 1, !dbg !1558
  br i1 %i72, label %bb7, label %bb9, !dbg !1558

bb7:                                              ; preds = %bb6
  %_30 = getelementptr inbounds %"alloc::sync::ArcInner<std::thread::scoped::ScopeData>", ptr %i69, i32 0, i32 2, !dbg !1559
; call std::thread::scoped::ScopeData::increment_num_running_threads
  call void @_ZN3std6thread6scoped9ScopeData29increment_num_running_threads17h1f4288a87dda043cE(ptr align 8 %_30) #27, !dbg !1559
  br label %bb9, !dbg !1560

bb9:                                              ; preds = %bb7, %bb6
  store i8 0, ptr %_45, align 1, !dbg !1561
  call void @llvm.memcpy.p0.p0.i64(ptr align 8 %_33, ptr align 8 %main, i64 32, i1 false), !dbg !1561
  call void @llvm.lifetime.start.p0(i64 8, ptr %self.i), !dbg !1562
  call void @llvm.lifetime.start.p0(i64 16, ptr %_4.i16), !dbg !1562
  call void @llvm.lifetime.start.p0(i64 16, ptr %layout.i), !dbg !1562
  %i74 = getelementptr inbounds { i64, i64 }, ptr %layout.i, i32 0, i32 1, !dbg !1562
  store i64 32, ptr %i74, align 8, !dbg !1562
  store i64 8, ptr %layout.i, align 8, !dbg !1562
; call alloc::alloc::Global::alloc_impl
  %i78 = call fastcc { ptr, i64 } @_ZN5alloc5alloc6Global10alloc_impl17h27c871659e12f0e0E(i64 8, i64 32, i1 zeroext false) #27, !dbg !1568
  store { ptr, i64 } %i78, ptr %_4.i16, align 8, !dbg !1568
  %i79 = load ptr, ptr %_4.i16, align 8, !dbg !1570, !noundef !16
  %i80 = ptrtoint ptr %i79 to i64, !dbg !1570
  %i81 = icmp eq i64 %i80, 0, !dbg !1570
  %_5.i = select i1 %i81, i64 1, i64 0, !dbg !1570
  %i82 = icmp eq i64 %_5.i, 0, !dbg !1571
  br i1 %i82, label %bb3.i, label %codeRepl.i, !dbg !1571

bb3.i:                                            ; preds = %bb9
  store ptr %i79, ptr %self.i, align 8, !dbg !1572
  call void @llvm.lifetime.end.p0(i64 8, ptr %self.i), !dbg !1576
  call void @llvm.lifetime.end.p0(i64 16, ptr %_4.i16), !dbg !1576
  call void @llvm.lifetime.end.p0(i64 16, ptr %layout.i), !dbg !1576
  call void @llvm.memcpy.p0.p0.i64(ptr align 8 %i79, ptr align 8 %main, i64 32, i1 false), !dbg !1577
  store ptr %i79, ptr %b, align 8, !dbg !1578
  store ptr %i79, ptr %_86, align 8, !dbg !1587
  store ptr %i79, ptr %leaked, align 8, !dbg !1599
  store ptr %i79, ptr %_94, align 8, !dbg !1607
  %i83 = getelementptr inbounds { ptr, ptr }, ptr %_94, i32 0, i32 1, !dbg !1607
  store ptr @vtable.5, ptr %i83, align 8, !dbg !1607
  store ptr %i79, ptr %_93, align 8, !dbg !1624
  %i87 = getelementptr inbounds { ptr, ptr }, ptr %_93, i32 0, i32 1, !dbg !1624
  store ptr @vtable.5, ptr %i87, align 8, !dbg !1624
  store ptr %i79, ptr %main4, align 8, !dbg !1625
  %i91 = getelementptr inbounds { ptr, ptr }, ptr %main4, i32 0, i32 1, !dbg !1625
  store ptr @vtable.5, ptr %i91, align 8, !dbg !1625
; call std::sys::unix::thread::Thread::new
  call void @_ZN3std3sys4unix6thread6Thread3new17h87f4070d7391b575E(ptr sret(%"core::result::Result<std::sys::unix::thread::Thread, std::io::error::Error>") align 8 %self5, i64 %_39, ptr align 1 %i79, ptr align 8 @vtable.5) #27, !dbg !1626
  %_97 = load i64, ptr %self5, align 8, !dbg !1629, !range !109, !noundef !16
  %i95 = icmp ne i64 %_97, 0, !dbg !1632
  br i1 %i95, label %bb50, label %Flow115, !dbg !1632

codeRepl.i:                                       ; preds = %bb9
  %layout.i.val = load i64, ptr %layout.i, align 8, !dbg !1633, !range !1009, !noundef !16
  %3 = getelementptr i8, ptr %layout.i, i64 8, !dbg !1633
  %layout.i.val118 = load i64, ptr %3, align 8, !dbg !1633, !noundef !16
; call alloc::alloc::exchange_malloc.5.bb1
  call fastcc void @_ZN5alloc5alloc15exchange_malloc17h62dc71f5b90e994bE.5.bb1(i64 %layout.i.val, i64 %layout.i.val118), !dbg !1633
  unreachable

Flow115:                                          ; preds = %bb50, %bb3.i
  %4 = phi ptr [ %e, %bb50 ], [ undef, %bb3.i ]
  %5 = phi i64 [ %8, %bb50 ], [ undef, %bb3.i ]
  %6 = phi i1 [ false, %bb50 ], [ true, %bb3.i ], !dbg !1632
  br i1 %6, label %bb51, label %bb49, !dbg !1632

bb51:                                             ; preds = %Flow115
  %i96 = getelementptr inbounds %"core::result::Result<std::sys::unix::thread::Thread, std::io::error::Error>::Ok", ptr %self5, i32 0, i32 1, !dbg !1634
  %v = load i64, ptr %i96, align 8, !dbg !1634, !noundef !16
  %i97 = getelementptr inbounds %"core::ops::control_flow::ControlFlow<core::result::Result<core::convert::Infallible, std::io::error::Error>, std::sys::unix::thread::Thread>::Continue", ptr %_37, i32 0, i32 1, !dbg !1635
  store i64 %v, ptr %i97, align 8, !dbg !1635
  store i64 0, ptr %_37, align 8, !dbg !1635
  %7 = inttoptr i64 %v to ptr, !dbg !1637
  br label %bb49, !dbg !1637

bb50:                                             ; preds = %bb3.i
  %i98 = getelementptr inbounds %"core::result::Result<std::sys::unix::thread::Thread, std::io::error::Error>::Err", ptr %self5, i32 0, i32 1, !dbg !1638
  %e = load ptr, ptr %i98, align 8, !dbg !1638, !nonnull !16, !noundef !16
  store ptr %e, ptr %_100, align 8, !dbg !1639
  %i100 = getelementptr inbounds %"core::ops::control_flow::ControlFlow<core::result::Result<core::convert::Infallible, std::io::error::Error>, std::sys::unix::thread::Thread>::Break", ptr %_37, i32 0, i32 1, !dbg !1641
  store ptr %e, ptr %i100, align 8, !dbg !1641
  store i64 1, ptr %_37, align 8, !dbg !1641
  %8 = ptrtoint ptr %e to i64, !dbg !1642
  br label %Flow115, !dbg !1642

bb49:                                             ; preds = %bb51, %Flow115
  %val = phi i64 [ %5, %Flow115 ], [ %v, %bb51 ]
  %i106 = phi ptr [ %4, %Flow115 ], [ %7, %bb51 ]
  %_40 = phi i64 [ 1, %Flow115 ], [ 0, %bb51 ], !dbg !1626
  %i101 = icmp ne i64 %_40, 0, !dbg !1626
  br i1 %i101, label %bb14, label %Flow, !dbg !1626

Flow:                                             ; preds = %bb14, %bb49
  %9 = phi i1 [ false, %bb14 ], [ true, %bb49 ], !dbg !1626
  br i1 %9, label %bb12, label %bb17, !dbg !1626

bb12:                                             ; preds = %Flow
  %_43 = load ptr, ptr %my_thread, align 8, !dbg !1643, !nonnull !16, !noundef !16
  %_44 = load ptr, ptr %my_packet, align 8, !dbg !1644, !nonnull !16, !noundef !16
  %i103 = getelementptr inbounds %"std::thread::JoinInner<'_, ()>", ptr %_36, i32 0, i32 2, !dbg !1645
  store i64 %val, ptr %i103, align 8, !dbg !1645
  store ptr %_43, ptr %_36, align 8, !dbg !1645
  %i104 = getelementptr inbounds %"std::thread::JoinInner<'_, ()>", ptr %_36, i32 0, i32 1, !dbg !1645
  store ptr %_44, ptr %i104, align 8, !dbg !1645
  call void @llvm.memcpy.p0.p0.i64(ptr align 8 %_0, ptr align 8 %_36, i64 24, i1 false), !dbg !1646
  br label %bb17, !dbg !1647

bb14:                                             ; preds = %bb49
  store ptr %i106, ptr %residual, align 8, !dbg !1648
  %i107 = getelementptr inbounds %"core::result::Result<std::thread::JoinInner<'_, ()>, std::io::error::Error>::Err", ptr %_0, i32 0, i32 1, !dbg !1649
  store ptr %i106, ptr %i107, align 8, !dbg !1649
  store ptr null, ptr %_0, align 8, !dbg !1649
; call core::ptr::drop_in_place<alloc::sync::Arc<std::thread::Packet<()>>>
  call fastcc void @"_ZN4core3ptr80drop_in_place$LT$alloc..sync..Arc$LT$std..thread..Packet$LT$$LP$$RP$$GT$$GT$$GT$17h7786af121b5ab59aE"(ptr align 8 %my_packet) #27, !dbg !1656
; call core::ptr::drop_in_place<std::thread::Thread>
  call fastcc void @"_ZN4core3ptr40drop_in_place$LT$std..thread..Thread$GT$17he6dbe1407530fadaE"(ptr align 8 %my_thread) #27, !dbg !1657
  br label %Flow, !dbg !1647

bb17:                                             ; preds = %bb12, %Flow
  ret void, !dbg !1658
}

; std::thread::Builder::spawn_unchecked_::{{closure}}
; Function Attrs: inlinehint nounwind nonlazybind
define internal fastcc void @"_ZN3std6thread7Builder16spawn_unchecked_28_$u7b$$u7b$closure$u7d$$u7d$17h3549c98fc3f8db7eE"(ptr align 8 %_1) unnamed_addr #1 personality ptr @rust_eh_personality !dbg !1659 {
start:
  %_26 = alloca i8, align 1
  %_25 = alloca i8, align 1
  %_24 = alloca i8, align 1
  %_23 = alloca i8, align 1
  %_22 = alloca i8, align 1
  %_x = alloca ptr, align 8
  %_17 = alloca %"core::option::Option<core::result::Result<(), alloc::boxed::Box<dyn core::any::Any + core::marker::Send>>>", align 8
  %_16 = alloca ptr, align 8
  %f = alloca ptr, align 8
  %_12 = alloca %"core::option::Option<core::ops::range::Range<usize>>", align 8
  %self = alloca ptr, align 8
  %_7 = alloca ptr, align 8
  %_2 = alloca { ptr, i64 }, align 8
  store i8 1, ptr %_23, align 1, !dbg !1660
  store i8 1, ptr %_24, align 1, !dbg !1660
  store i8 1, ptr %_25, align 1, !dbg !1660
  store i8 1, ptr %_26, align 1, !dbg !1660
; call std::thread::Thread::cname
  %i = call { ptr, i64 } @_ZN3std6thread6Thread5cname17h91163d95cfb5c369E(ptr align 8 %_1) #27, !dbg !1661
  store { ptr, i64 } %i, ptr %_2, align 8, !dbg !1661
  %i11 = load ptr, ptr %_2, align 8, !dbg !1663, !noundef !16
  %i12 = ptrtoint ptr %i11 to i64, !dbg !1663
  %i13 = icmp eq i64 %i12, 0, !dbg !1663
  %_4 = select i1 %i13, i64 0, i64 1, !dbg !1663
  %i14 = icmp eq i64 %_4, 1, !dbg !1663
  br i1 %i14, label %bb2, label %bb3, !dbg !1663

bb2:                                              ; preds = %start
  %i15 = getelementptr inbounds { ptr, i64 }, ptr %_2, i32 0, i32 1, !dbg !1664
  %name.1 = load i64, ptr %i15, align 8, !dbg !1664, !noundef !16
; call std::sys::unix::thread::Thread::set_name
  call void @_ZN3std3sys4unix6thread6Thread8set_name17h944eeb69463a3300E(ptr align 1 %i11, i64 %name.1) #27, !dbg !1665
  br label %bb3, !dbg !1665

bb3:                                              ; preds = %bb2, %start
  store i8 0, ptr %_26, align 1, !dbg !1666
  %i16 = getelementptr inbounds %"{closure@std::thread::Builder::spawn_unchecked_<'_, '_, {closure@data/RUSTSEC_2020_0142.rs:72:28: 72:35}, ()>::{closure#1}}", ptr %_1, i32 0, i32 2, !dbg !1666
  %_8 = load ptr, ptr %i16, align 8, !dbg !1666, !noundef !16
; call std::io::stdio::set_output_capture
  %i17 = call ptr @_ZN3std2io5stdio18set_output_capture17hbfdad0a1763c8421E(ptr %_8) #27, !dbg !1667
  store ptr %i17, ptr %_7, align 8, !dbg !1667
  %i19 = ptrtoint ptr %i17 to i64, !dbg !1668
  %i20 = icmp ne i64 %i19, 0, !dbg !1668
  br i1 %i20, label %codeRepl.i7, label %bb5, !dbg !1668

codeRepl.i7:                                      ; preds = %bb3
; call core::ptr::drop_in_place<core::option::Option<alloc::sync::Arc<std::sync::mutex::Mutex<alloc::vec::Vec<u8>>>>>.18.bb2
  call fastcc void @"_ZN4core3ptr129drop_in_place$LT$core..option..Option$LT$alloc..sync..Arc$LT$std..sync..mutex..Mutex$LT$alloc..vec..Vec$LT$u8$GT$$GT$$GT$$GT$$GT$17h068803038d83c16bE.18.bb2"(ptr %_7), !dbg !1668
  br label %bb5

bb5:                                              ; preds = %codeRepl.i7, %bb3
  store i8 0, ptr %_25, align 1, !dbg !1670
  %i21 = getelementptr inbounds %"{closure@std::thread::Builder::spawn_unchecked_<'_, '_, {closure@data/RUSTSEC_2020_0142.rs:72:28: 72:35}, ()>::{closure#1}}", ptr %_1, i32 0, i32 3, !dbg !1670
  %i22 = load ptr, ptr %i21, align 8, !dbg !1670
  store ptr %i22, ptr %self, align 8, !dbg !1670
  store i8 1, ptr %_22, align 1, !dbg !1671
; call std::sys::unix::thread::guard::current
  call void @_ZN3std3sys4unix6thread5guard7current17h5a7c57689f473c66E(ptr sret(%"core::option::Option<core::ops::range::Range<usize>>") align 8 %_12) #27, !dbg !1672
  store i8 0, ptr %_24, align 1, !dbg !1675
  %_13 = load ptr, ptr %_1, align 8, !dbg !1675, !nonnull !16, !noundef !16
; call std::sys_common::thread_info::set
  call void @_ZN3std10sys_common11thread_info3set17hb38d90ff4419d5b1E(ptr align 8 %_12, ptr %_13) #27, !dbg !1676
  store i8 0, ptr %_22, align 1, !dbg !1677
  store ptr %i22, ptr %_16, align 8, !dbg !1677
  store ptr %i22, ptr %f, align 8, !dbg !1678
; call std::panicking::try
  %i25 = call fastcc { ptr, ptr } @_ZN3std9panicking3try17h1fb808ecf47c59d4E(ptr align 8 %i22) #27, !dbg !1679
  %try_result.0 = extractvalue { ptr, ptr } %i25, 0, !dbg !1679
  %try_result.1 = extractvalue { ptr, ptr } %i25, 1, !dbg !1679
  %i26 = getelementptr inbounds %"core::option::Option<core::result::Result<(), alloc::boxed::Box<dyn core::any::Any + core::marker::Send>>>::Some", ptr %_17, i32 0, i32 1, !dbg !1686
  store ptr %try_result.0, ptr %i26, align 8, !dbg !1686
  %i27 = getelementptr inbounds { ptr, ptr }, ptr %i26, i32 0, i32 1, !dbg !1686
  store ptr %try_result.1, ptr %i27, align 8, !dbg !1686
  store i64 1, ptr %_17, align 8, !dbg !1686
  %i28 = getelementptr inbounds %"{closure@std::thread::Builder::spawn_unchecked_<'_, '_, {closure@data/RUSTSEC_2020_0142.rs:72:28: 72:35}, ()>::{closure#1}}", ptr %_1, i32 0, i32 1, !dbg !1689
  %self4 = load ptr, ptr %i28, align 8, !dbg !1689, !nonnull !16, !noundef !16
  %i29 = getelementptr inbounds %"alloc::sync::ArcInner<std::thread::Packet<'_, ()>>", ptr %self4, i32 0, i32 2, !dbg !1701
  %_39 = getelementptr inbounds %"std::thread::Packet<'_, ()>", ptr %i29, i32 0, i32 1, !dbg !1701
  %_2.i = load i64, ptr %_39, align 8, !dbg !1705, !range !109, !noundef !16
  %i30 = icmp ne i64 %_2.i, 0, !dbg !1705
  br i1 %i30, label %codeRepl.i, label %bb8, !dbg !1705

codeRepl.i:                                       ; preds = %bb5
; call core::ptr::drop_in_place<core::option::Option<core::result::Result<(),alloc::boxed::Box<dyn core::any::Any+core::marker::Send>>>>.16.bb2
  call fastcc void @"_ZN4core3ptr158drop_in_place$LT$core..option..Option$LT$core..result..Result$LT$$LP$$RP$$C$alloc..boxed..Box$LT$dyn$u20$core..any..Any$u2b$core..marker..Send$GT$$GT$$GT$$GT$17hf9f2e9e54158bb9dE.16.bb2"(ptr %_39), !dbg !1705
  br label %bb8

bb8:                                              ; preds = %codeRepl.i, %bb5
  call void @llvm.memcpy.p0.p0.i64(ptr align 8 %_39, ptr align 8 %_17, i64 24, i1 false), !dbg !1708
  store i8 0, ptr %_23, align 1, !dbg !1709
  %i32 = load ptr, ptr %i28, align 8, !dbg !1709, !nonnull !16, !noundef !16
  store ptr %i32, ptr %_x, align 8, !dbg !1709
; call core::ptr::drop_in_place<alloc::sync::Arc<std::thread::Packet<()>>>
  call fastcc void @"_ZN4core3ptr80drop_in_place$LT$alloc..sync..Arc$LT$std..thread..Packet$LT$$LP$$RP$$GT$$GT$$GT$17h7786af121b5ab59aE"(ptr align 8 %_x) #27, !dbg !1710
  ret void, !dbg !1714
}

; std::thread::Builder::spawn_unchecked_::{{closure}}
; Function Attrs: inlinehint nounwind nonlazybind
define internal fastcc void @"_ZN3std6thread7Builder16spawn_unchecked_28_$u7b$$u7b$closure$u7d$$u7d$17h9b680d936d7a2c8dE"(ptr align 8 %_1) unnamed_addr #1 personality ptr @rust_eh_personality !dbg !1715 {
start:
  %_26 = alloca i8, align 1
  %_25 = alloca i8, align 1
  %_24 = alloca i8, align 1
  %_23 = alloca i8, align 1
  %_22 = alloca i8, align 1
  %_x = alloca ptr, align 8
  %_17 = alloca %"core::option::Option<core::result::Result<(), alloc::boxed::Box<dyn core::any::Any + core::marker::Send>>>", align 8
  %_16 = alloca ptr, align 8
  %f = alloca ptr, align 8
  %_12 = alloca %"core::option::Option<core::ops::range::Range<usize>>", align 8
  %self = alloca ptr, align 8
  %_7 = alloca ptr, align 8
  %_2 = alloca { ptr, i64 }, align 8
  store i8 1, ptr %_23, align 1, !dbg !1716
  store i8 1, ptr %_24, align 1, !dbg !1716
  store i8 1, ptr %_25, align 1, !dbg !1716
  store i8 1, ptr %_26, align 1, !dbg !1716
; call std::thread::Thread::cname
  %i = call { ptr, i64 } @_ZN3std6thread6Thread5cname17h91163d95cfb5c369E(ptr align 8 %_1) #27, !dbg !1717
  store { ptr, i64 } %i, ptr %_2, align 8, !dbg !1717
  %i11 = load ptr, ptr %_2, align 8, !dbg !1719, !noundef !16
  %i12 = ptrtoint ptr %i11 to i64, !dbg !1719
  %i13 = icmp eq i64 %i12, 0, !dbg !1719
  %_4 = select i1 %i13, i64 0, i64 1, !dbg !1719
  %i14 = icmp eq i64 %_4, 1, !dbg !1719
  br i1 %i14, label %bb2, label %bb3, !dbg !1719

bb2:                                              ; preds = %start
  %i15 = getelementptr inbounds { ptr, i64 }, ptr %_2, i32 0, i32 1, !dbg !1720
  %name.1 = load i64, ptr %i15, align 8, !dbg !1720, !noundef !16
; call std::sys::unix::thread::Thread::set_name
  call void @_ZN3std3sys4unix6thread6Thread8set_name17h944eeb69463a3300E(ptr align 1 %i11, i64 %name.1) #27, !dbg !1721
  br label %bb3, !dbg !1721

bb3:                                              ; preds = %bb2, %start
  store i8 0, ptr %_26, align 1, !dbg !1722
  %i16 = getelementptr inbounds %"{closure@std::thread::Builder::spawn_unchecked_<'_, '_, {closure@data/RUSTSEC_2020_0142.rs:51:28: 51:35}, ()>::{closure#1}}", ptr %_1, i32 0, i32 2, !dbg !1722
  %_8 = load ptr, ptr %i16, align 8, !dbg !1722, !noundef !16
; call std::io::stdio::set_output_capture
  %i17 = call ptr @_ZN3std2io5stdio18set_output_capture17hbfdad0a1763c8421E(ptr %_8) #27, !dbg !1723
  store ptr %i17, ptr %_7, align 8, !dbg !1723
  %i19 = ptrtoint ptr %i17 to i64, !dbg !1724
  %i20 = icmp ne i64 %i19, 0, !dbg !1724
  br i1 %i20, label %codeRepl.i7, label %bb5, !dbg !1724

codeRepl.i7:                                      ; preds = %bb3
; call core::ptr::drop_in_place<core::option::Option<alloc::sync::Arc<std::sync::mutex::Mutex<alloc::vec::Vec<u8>>>>>.18.bb2
  call fastcc void @"_ZN4core3ptr129drop_in_place$LT$core..option..Option$LT$alloc..sync..Arc$LT$std..sync..mutex..Mutex$LT$alloc..vec..Vec$LT$u8$GT$$GT$$GT$$GT$$GT$17h068803038d83c16bE.18.bb2"(ptr %_7), !dbg !1724
  br label %bb5

bb5:                                              ; preds = %codeRepl.i7, %bb3
  store i8 0, ptr %_25, align 1, !dbg !1726
  %i21 = getelementptr inbounds %"{closure@std::thread::Builder::spawn_unchecked_<'_, '_, {closure@data/RUSTSEC_2020_0142.rs:51:28: 51:35}, ()>::{closure#1}}", ptr %_1, i32 0, i32 3, !dbg !1726
  %i22 = load ptr, ptr %i21, align 8, !dbg !1726
  store ptr %i22, ptr %self, align 8, !dbg !1726
  store i8 1, ptr %_22, align 1, !dbg !1727
; call std::sys::unix::thread::guard::current
  call void @_ZN3std3sys4unix6thread5guard7current17h5a7c57689f473c66E(ptr sret(%"core::option::Option<core::ops::range::Range<usize>>") align 8 %_12) #27, !dbg !1728
  store i8 0, ptr %_24, align 1, !dbg !1731
  %_13 = load ptr, ptr %_1, align 8, !dbg !1731, !nonnull !16, !noundef !16
; call std::sys_common::thread_info::set
  call void @_ZN3std10sys_common11thread_info3set17hb38d90ff4419d5b1E(ptr align 8 %_12, ptr %_13) #27, !dbg !1732
  store i8 0, ptr %_22, align 1, !dbg !1733
  store ptr %i22, ptr %_16, align 8, !dbg !1733
  store ptr %i22, ptr %f, align 8, !dbg !1734
; call std::panicking::try
  %i25 = call fastcc { ptr, ptr } @_ZN3std9panicking3try17h1adba3b80f13d556E(ptr align 8 %i22) #27, !dbg !1735
  %try_result.0 = extractvalue { ptr, ptr } %i25, 0, !dbg !1735
  %try_result.1 = extractvalue { ptr, ptr } %i25, 1, !dbg !1735
  %i26 = getelementptr inbounds %"core::option::Option<core::result::Result<(), alloc::boxed::Box<dyn core::any::Any + core::marker::Send>>>::Some", ptr %_17, i32 0, i32 1, !dbg !1740
  store ptr %try_result.0, ptr %i26, align 8, !dbg !1740
  %i27 = getelementptr inbounds { ptr, ptr }, ptr %i26, i32 0, i32 1, !dbg !1740
  store ptr %try_result.1, ptr %i27, align 8, !dbg !1740
  store i64 1, ptr %_17, align 8, !dbg !1740
  %i28 = getelementptr inbounds %"{closure@std::thread::Builder::spawn_unchecked_<'_, '_, {closure@data/RUSTSEC_2020_0142.rs:51:28: 51:35}, ()>::{closure#1}}", ptr %_1, i32 0, i32 1, !dbg !1743
  %self4 = load ptr, ptr %i28, align 8, !dbg !1743, !nonnull !16, !noundef !16
  %i29 = getelementptr inbounds %"alloc::sync::ArcInner<std::thread::Packet<'_, ()>>", ptr %self4, i32 0, i32 2, !dbg !1755
  %_39 = getelementptr inbounds %"std::thread::Packet<'_, ()>", ptr %i29, i32 0, i32 1, !dbg !1755
  %_2.i = load i64, ptr %_39, align 8, !dbg !1759, !range !109, !noundef !16
  %i30 = icmp ne i64 %_2.i, 0, !dbg !1759
  br i1 %i30, label %codeRepl.i, label %bb8, !dbg !1759

codeRepl.i:                                       ; preds = %bb5
; call core::ptr::drop_in_place<core::option::Option<core::result::Result<(),alloc::boxed::Box<dyn core::any::Any+core::marker::Send>>>>.16.bb2
  call fastcc void @"_ZN4core3ptr158drop_in_place$LT$core..option..Option$LT$core..result..Result$LT$$LP$$RP$$C$alloc..boxed..Box$LT$dyn$u20$core..any..Any$u2b$core..marker..Send$GT$$GT$$GT$$GT$17hf9f2e9e54158bb9dE.16.bb2"(ptr %_39), !dbg !1759
  br label %bb8

bb8:                                              ; preds = %codeRepl.i, %bb5
  call void @llvm.memcpy.p0.p0.i64(ptr align 8 %_39, ptr align 8 %_17, i64 24, i1 false), !dbg !1761
  store i8 0, ptr %_23, align 1, !dbg !1762
  %i32 = load ptr, ptr %i28, align 8, !dbg !1762, !nonnull !16, !noundef !16
  store ptr %i32, ptr %_x, align 8, !dbg !1762
; call core::ptr::drop_in_place<alloc::sync::Arc<std::thread::Packet<()>>>
  call fastcc void @"_ZN4core3ptr80drop_in_place$LT$alloc..sync..Arc$LT$std..thread..Packet$LT$$LP$$RP$$GT$$GT$$GT$17h7786af121b5ab59aE"(ptr align 8 %_x) #27, !dbg !1763
  ret void, !dbg !1767
}

; std::thread::Builder::spawn_unchecked_::{{closure}}::{{closure}}
; Function Attrs: inlinehint nounwind nonlazybind
define internal fastcc void @"_ZN3std6thread7Builder16spawn_unchecked_28_$u7b$$u7b$closure$u7d$$u7d$28_$u7b$$u7b$closure$u7d$$u7d$17h4d5ed81b1313ca2eE"(ptr align 8 %_1) unnamed_addr #1 !dbg !1768 {
start:
; call std::sys_common::backtrace::__rust_begin_short_backtrace
  call fastcc void @_ZN3std10sys_common9backtrace28__rust_begin_short_backtrace17h430ef4338cb0e2aeE(ptr align 8 %_1) #27, !dbg !1770
  ret void, !dbg !1771
}

; std::thread::Builder::spawn_unchecked_::{{closure}}::{{closure}}
; Function Attrs: inlinehint nounwind nonlazybind
define internal fastcc void @"_ZN3std6thread7Builder16spawn_unchecked_28_$u7b$$u7b$closure$u7d$$u7d$28_$u7b$$u7b$closure$u7d$$u7d$17h796765079db25233E"(ptr align 8 %_1) unnamed_addr #1 !dbg !1772 {
start:
; call std::sys_common::backtrace::__rust_begin_short_backtrace
  call fastcc void @_ZN3std10sys_common9backtrace28__rust_begin_short_backtrace17h699347fea2ac183eE(ptr align 8 %_1) #27, !dbg !1773
  ret void, !dbg !1774
}

; std::panicking::try
; Function Attrs: nounwind nonlazybind
define internal fastcc { ptr, ptr } @_ZN3std9panicking3try17h1adba3b80f13d556E(ptr align 8 %f) unnamed_addr #3 !dbg !1775 {
start:
  %i = alloca i32, align 4
  %_3 = alloca ptr, align 8
  %data = alloca %"std::panicking::try::Data<core::panic::unwind_safe::AssertUnwindSafe<{closure@std::thread::Builder::spawn_unchecked_<'_, '_, {closure@data/RUSTSEC_2020_0142.rs:65:28: 65:35}, ()>::{closure#1}::{closure#0}}>, ()>", align 8
  %_0 = alloca { ptr, ptr }, align 8
  store ptr %f, ptr %_3, align 8, !dbg !1778
  store ptr %f, ptr %data, align 8, !dbg !1782
  %data.val = load ptr, ptr %data, align 8, !dbg !1783, !nonnull !16, !align !483, !noundef !16
; call std::panicking::try::do_call
  call fastcc void @_ZN3std9panicking3try7do_call17h411dfaf77c37bab3E(ptr %data.val), !dbg !1783
  store i32 0, ptr %i, align 4, !dbg !1783
  br label %bb2

bb2:                                              ; preds = %start
  store ptr null, ptr %_0, align 8, !dbg !1787
  br label %bb4, !dbg !1788

bb4:                                              ; preds = %bb2
  ret { ptr, ptr } { ptr null, ptr undef }, !dbg !1789
}

; std::panicking::try
; Function Attrs: nounwind nonlazybind
define internal fastcc { ptr, ptr } @_ZN3std9panicking3try17h1fb808ecf47c59d4E(ptr align 8 %f) unnamed_addr #3 !dbg !1790 {
start:
  %i = alloca i32, align 4
  %_3 = alloca ptr, align 8
  %data = alloca %"std::panicking::try::Data<core::panic::unwind_safe::AssertUnwindSafe<{closure@std::thread::Builder::spawn_unchecked_<'_, '_, {closure@data/RUSTSEC_2020_0142.rs:58:28: 58:35}, ()>::{closure#1}::{closure#0}}>, ()>", align 8
  %_0 = alloca { ptr, ptr }, align 8
  store ptr %f, ptr %_3, align 8, !dbg !1791
  store ptr %f, ptr %data, align 8, !dbg !1795
  %data.val = load ptr, ptr %data, align 8, !dbg !1796, !nonnull !16, !align !483, !noundef !16
; call std::panicking::try::do_call
  call fastcc void @_ZN3std9panicking3try7do_call17h6ccdac991b0fc36eE(ptr %data.val), !dbg !1796
  store i32 0, ptr %i, align 4, !dbg !1796
  br label %bb2

bb2:                                              ; preds = %start
  store ptr null, ptr %_0, align 8, !dbg !1800
  br label %bb4, !dbg !1801

bb4:                                              ; preds = %bb2
  ret { ptr, ptr } { ptr null, ptr undef }, !dbg !1802
}

; std::panicking::try
; Function Attrs: nounwind nonlazybind
define internal fastcc { ptr, ptr } @_ZN3std9panicking3try17h935dd9912a5ec6e6E(ptr align 8 %f) unnamed_addr #3 !dbg !1803 {
start:
  %i = alloca i32, align 4
  %_3 = alloca ptr, align 8
  %data = alloca %"std::panicking::try::Data<core::panic::unwind_safe::AssertUnwindSafe<{closure@<std::thread::Packet<'_, ()> as core::ops::drop::Drop>::drop::{closure#0}}>, ()>", align 8
  %_0 = alloca { ptr, ptr }, align 8
  store ptr %f, ptr %_3, align 8, !dbg !1804
  store ptr %f, ptr %data, align 8, !dbg !1808
  %data.val = load ptr, ptr %data, align 8, !dbg !1809, !nonnull !16, !align !483, !noundef !16
; call std::panicking::try::do_call
  call fastcc void @_ZN3std9panicking3try7do_call17h534d7be67423b2ffE(ptr %data.val), !dbg !1809
  store i32 0, ptr %i, align 4, !dbg !1809
  br label %bb2

bb2:                                              ; preds = %start
  store ptr null, ptr %_0, align 8, !dbg !1813
  br label %bb4, !dbg !1814

bb4:                                              ; preds = %bb2
  ret { ptr, ptr } { ptr null, ptr undef }, !dbg !1815
}

; std::panicking::try::do_call
; Function Attrs: inlinehint nounwind nonlazybind
define internal fastcc void @_ZN3std9panicking3try7do_call17h411dfaf77c37bab3E(ptr %data.0.val) unnamed_addr #1 !dbg !1816 {
start:
  %0 = icmp ne ptr %data.0.val, null
  call void @llvm.assume(i1 %0)
; call <core::panic::unwind_safe::AssertUnwindSafe<F> as core::ops::function::FnOnce<()>>::call_once
  call fastcc void @"_ZN115_$LT$core..panic..unwind_safe..AssertUnwindSafe$LT$F$GT$$u20$as$u20$core..ops..function..FnOnce$LT$$LP$$RP$$GT$$GT$9call_once17h38e631044e1498e6E"(ptr align 8 %data.0.val) #27, !dbg !1818
  ret void, !dbg !1823
}

; std::panicking::try::do_call
; Function Attrs: inlinehint nounwind nonlazybind
define internal fastcc void @_ZN3std9panicking3try7do_call17h534d7be67423b2ffE(ptr %data.0.val) unnamed_addr #1 !dbg !1824 {
start:
  %0 = icmp ne ptr %data.0.val, null
  call void @llvm.assume(i1 %0)
; call <core::panic::unwind_safe::AssertUnwindSafe<F> as core::ops::function::FnOnce<()>>::call_once
  call fastcc void @"_ZN115_$LT$core..panic..unwind_safe..AssertUnwindSafe$LT$F$GT$$u20$as$u20$core..ops..function..FnOnce$LT$$LP$$RP$$GT$$GT$9call_once17h1459867db48500dcE"(ptr align 8 %data.0.val) #27, !dbg !1825
  ret void, !dbg !1830
}

; std::panicking::try::do_call
; Function Attrs: inlinehint nounwind nonlazybind
define internal fastcc void @_ZN3std9panicking3try7do_call17h6ccdac991b0fc36eE(ptr %data.0.val) unnamed_addr #1 !dbg !1831 {
start:
  %0 = icmp ne ptr %data.0.val, null
  call void @llvm.assume(i1 %0)
; call <core::panic::unwind_safe::AssertUnwindSafe<F> as core::ops::function::FnOnce<()>>::call_once
  call fastcc void @"_ZN115_$LT$core..panic..unwind_safe..AssertUnwindSafe$LT$F$GT$$u20$as$u20$core..ops..function..FnOnce$LT$$LP$$RP$$GT$$GT$9call_once17h653bb860dbdbfbd5E"(ptr align 8 %data.0.val) #27, !dbg !1832
  ret void, !dbg !1837
}

; <&T as core::fmt::Debug>::fmt
; Function Attrs: nounwind nonlazybind
define internal zeroext i1 @"_ZN42_$LT$$RF$T$u20$as$u20$core..fmt..Debug$GT$3fmt17h0ce7eef9186b453cE"(ptr nocapture readonly align 8 %self, ptr align 8 %f) unnamed_addr #3 !dbg !1838 {
start:
  %_3 = load ptr, ptr %self, align 8, !dbg !1842, !nonnull !16, !align !582, !noundef !16
; call core::fmt::num::<impl core::fmt::Debug for u8>::fmt
  %_0 = call fastcc zeroext i1 @"_ZN4core3fmt3num49_$LT$impl$u20$core..fmt..Debug$u20$for$u20$u8$GT$3fmt17hba8319d3d28d0af4E"(ptr align 1 %_3, ptr align 8 %f) #27, !dbg !1843
  ret i1 %_0, !dbg !1844
}

; <&T as core::fmt::Debug>::fmt
; Function Attrs: nounwind nonlazybind
define internal zeroext i1 @"_ZN42_$LT$$RF$T$u20$as$u20$core..fmt..Debug$GT$3fmt17hc49e6c0eb86f0163E"(ptr nocapture readonly align 8 %self, ptr align 8 %f) unnamed_addr #3 !dbg !1845 {
start:
  %_3 = load ptr, ptr %self, align 8, !dbg !1846, !nonnull !16, !align !483, !noundef !16
  %0 = getelementptr i8, ptr %_3, i64 8, !dbg !1847
  %_3.val = load ptr, ptr %0, align 8, !dbg !1847, !nonnull !16, !noundef !16
  %1 = getelementptr i8, ptr %_3, i64 16, !dbg !1847
  %_3.val1 = load i64, ptr %1, align 8, !dbg !1847, !noundef !16
; call <alloc::vec::Vec<T,A> as core::fmt::Debug>::fmt
  %_0 = call fastcc zeroext i1 @"_ZN65_$LT$alloc..vec..Vec$LT$T$C$A$GT$$u20$as$u20$core..fmt..Debug$GT$3fmt17h04c2a642f5d76d86E"(ptr %_3.val, i64 %_3.val1, ptr align 8 %f) #27, !dbg !1847
  ret i1 %_0, !dbg !1848
}

; <i32 as core::iter::range::Step>::forward_unchecked
; Function Attrs: inlinehint mustprogress nofree norecurse nosync nounwind nonlazybind willreturn memory(none)
define internal fastcc i32 @"_ZN47_$LT$i32$u20$as$u20$core..iter..range..Step$GT$17forward_unchecked17hf8bdfe3ae4b971f0E"(i32 %start1, i64 %n) unnamed_addr #5 !dbg !1849 {
start:
  %rhs = trunc i64 %n to i32, !dbg !1854
  %_0 = add nsw i32 %start1, %rhs, !dbg !1856
  ret i32 %_0, !dbg !1866
}

; <&A as core::alloc::Allocator>::deallocate
; Function Attrs: inlinehint nounwind nonlazybind
define internal fastcc void @"_ZN48_$LT$$RF$A$u20$as$u20$core..alloc..Allocator$GT$10deallocate17hc856a308bc7bd1adE"(ptr %ptr, i64 %layout.0, i64 %layout.1) unnamed_addr #1 !dbg !1867 {
start:
; call <alloc::alloc::Global as core::alloc::Allocator>::deallocate
  call fastcc void @"_ZN63_$LT$alloc..alloc..Global$u20$as$u20$core..alloc..Allocator$GT$10deallocate17h94bcf909704c678eE"(ptr %ptr, i64 %layout.0, i64 %layout.1) #27, !dbg !1870
  ret void, !dbg !1872
}

; <[T] as core::fmt::Debug>::fmt
; Function Attrs: nounwind nonlazybind
define internal fastcc zeroext i1 @"_ZN48_$LT$$u5b$T$u5d$$u20$as$u20$core..fmt..Debug$GT$3fmt17hd4d5811bade06615E"(ptr align 1 %self.0, i64 %self.1, ptr align 8 %f) unnamed_addr #3 !dbg !1873 {
start:
  %_12 = alloca ptr, align 8
  %end_or_len = alloca ptr, align 8
  %_6 = alloca { ptr, ptr }, align 8
  %_5 = alloca %"core::fmt::builders::DebugList<'_, '_>", align 8
; call core::fmt::Formatter::debug_list
  call void @_ZN4core3fmt9Formatter10debug_list17h1616b9a56f5bf339E(ptr sret(%"core::fmt::builders::DebugList<'_, '_>") align 8 %_5, ptr align 8 %f) #27, !dbg !1875
  %i = getelementptr inbounds i8, ptr %self.0, i64 %self.1, !dbg !1876
  store ptr %i, ptr %end_or_len, align 8, !dbg !1876
  store ptr %self.0, ptr %_12, align 8, !dbg !1894
  store ptr %self.0, ptr %_6, align 8, !dbg !1900
  %i2 = getelementptr inbounds { ptr, ptr }, ptr %_6, i32 0, i32 1, !dbg !1900
  store ptr %i, ptr %i2, align 8, !dbg !1900
; call core::fmt::builders::DebugList::entries
  %_3 = call fastcc align 8 ptr @_ZN4core3fmt8builders9DebugList7entries17h183ea00db4b609caE(ptr align 8 %_5, ptr %self.0, ptr %i) #27, !dbg !1875
; call core::fmt::builders::DebugList::finish
  %_0 = call zeroext i1 @_ZN4core3fmt8builders9DebugList6finish17hadbed7078d8807f7E(ptr align 8 %_3) #27, !dbg !1875
  ret i1 %_0, !dbg !1901
}

; core::fmt::num::<impl core::fmt::Debug for u8>::fmt
; Function Attrs: inlinehint nounwind nonlazybind
define internal fastcc zeroext i1 @"_ZN4core3fmt3num49_$LT$impl$u20$core..fmt..Debug$u20$for$u20$u8$GT$3fmt17hba8319d3d28d0af4E"(ptr align 1 %self, ptr align 8 %f) unnamed_addr #1 !dbg !1902 {
start:
  %_0 = alloca i8, align 1
  %i = getelementptr inbounds %"core::fmt::Formatter<'_>", ptr %f, i32 0, i32 4, !dbg !1906
  %_4 = load i32, ptr %i, align 4, !dbg !1906, !noundef !16
  %_3 = and i32 %_4, 16, !dbg !1906
  %i1 = icmp ne i32 %_3, 0, !dbg !1911
  br i1 %i1, label %bb1, label %Flow14, !dbg !1911

Flow14:                                           ; preds = %bb1, %start
  %0 = phi i1 [ %i4, %bb1 ], [ undef, %start ]
  %1 = phi i1 [ false, %bb1 ], [ true, %start ], !dbg !1911
  br i1 %1, label %bb2, label %bb5, !dbg !1911

bb2:                                              ; preds = %Flow14
  %_5 = and i32 %_4, 32, !dbg !1912
  %i3 = icmp ne i32 %_5, 0, !dbg !1916
  br i1 %i3, label %bb3, label %Flow, !dbg !1916

bb1:                                              ; preds = %start
; call core::fmt::num::<impl core::fmt::LowerHex for u8>::fmt
  %i4 = call zeroext i1 @"_ZN4core3fmt3num52_$LT$impl$u20$core..fmt..LowerHex$u20$for$u20$u8$GT$3fmt17hf9f952c6b540cee3E"(ptr align 1 %self, ptr align 8 %f) #27, !dbg !1917
  %i5 = zext i1 %i4 to i8, !dbg !1917
  store i8 %i5, ptr %_0, align 1, !dbg !1917
  br label %Flow14, !dbg !1917

Flow:                                             ; preds = %bb3, %bb2
  %2 = phi i1 [ %i8, %bb3 ], [ undef, %bb2 ]
  %3 = phi i1 [ false, %bb3 ], [ true, %bb2 ], !dbg !1916
  br i1 %3, label %bb4, label %Flow13, !dbg !1916

bb4:                                              ; preds = %Flow
; call core::fmt::num::imp::<impl core::fmt::Display for u8>::fmt
  %i6 = call zeroext i1 @"_ZN4core3fmt3num3imp51_$LT$impl$u20$core..fmt..Display$u20$for$u20$u8$GT$3fmt17h3d4d19436d6d837dE"(ptr align 1 %self, ptr align 8 %f) #27, !dbg !1918
  %i7 = zext i1 %i6 to i8, !dbg !1918
  store i8 %i7, ptr %_0, align 1, !dbg !1918
  br label %Flow13, !dbg !1918

bb3:                                              ; preds = %bb2
; call core::fmt::num::<impl core::fmt::UpperHex for u8>::fmt
  %i8 = call zeroext i1 @"_ZN4core3fmt3num52_$LT$impl$u20$core..fmt..UpperHex$u20$for$u20$u8$GT$3fmt17hd83f82e68b17db74E"(ptr align 1 %self, ptr align 8 %f) #27, !dbg !1919
  %i9 = zext i1 %i8 to i8, !dbg !1919
  store i8 %i9, ptr %_0, align 1, !dbg !1919
  br label %Flow, !dbg !1919

Flow13:                                           ; preds = %bb4, %Flow
  %4 = phi i1 [ %i6, %bb4 ], [ %2, %Flow ]
  br label %bb5, !dbg !1916

bb5:                                              ; preds = %Flow14, %Flow13
  %i10 = phi i1 [ %0, %Flow14 ], [ %4, %Flow13 ], !dbg !1920
  ret i1 %i10, !dbg !1920
}

; core::fmt::num::<impl core::fmt::Debug for usize>::fmt
; Function Attrs: inlinehint nounwind nonlazybind
define internal zeroext i1 @"_ZN4core3fmt3num52_$LT$impl$u20$core..fmt..Debug$u20$for$u20$usize$GT$3fmt17h3fb2b556379ff71dE"(ptr align 8 %self, ptr align 8 %f) unnamed_addr #1 !dbg !1921 {
start:
  %_0 = alloca i8, align 1
  %i = getelementptr inbounds %"core::fmt::Formatter<'_>", ptr %f, i32 0, i32 4, !dbg !1923
  %_4 = load i32, ptr %i, align 4, !dbg !1923, !noundef !16
  %_3 = and i32 %_4, 16, !dbg !1923
  %i1 = icmp ne i32 %_3, 0, !dbg !1927
  br i1 %i1, label %bb1, label %Flow14, !dbg !1927

Flow14:                                           ; preds = %bb1, %start
  %0 = phi i1 [ %i4, %bb1 ], [ undef, %start ]
  %1 = phi i1 [ false, %bb1 ], [ true, %start ], !dbg !1927
  br i1 %1, label %bb2, label %bb5, !dbg !1927

bb2:                                              ; preds = %Flow14
  %_5 = and i32 %_4, 32, !dbg !1928
  %i3 = icmp ne i32 %_5, 0, !dbg !1932
  br i1 %i3, label %bb3, label %Flow, !dbg !1932

bb1:                                              ; preds = %start
; call core::fmt::num::<impl core::fmt::LowerHex for usize>::fmt
  %i4 = call zeroext i1 @"_ZN4core3fmt3num55_$LT$impl$u20$core..fmt..LowerHex$u20$for$u20$usize$GT$3fmt17h2a402146377b71d4E"(ptr align 8 %self, ptr align 8 %f) #27, !dbg !1933
  %i5 = zext i1 %i4 to i8, !dbg !1933
  store i8 %i5, ptr %_0, align 1, !dbg !1933
  br label %Flow14, !dbg !1933

Flow:                                             ; preds = %bb3, %bb2
  %2 = phi i1 [ %i8, %bb3 ], [ undef, %bb2 ]
  %3 = phi i1 [ false, %bb3 ], [ true, %bb2 ], !dbg !1932
  br i1 %3, label %bb4, label %Flow13, !dbg !1932

bb4:                                              ; preds = %Flow
; call core::fmt::num::imp::<impl core::fmt::Display for usize>::fmt
  %i6 = call zeroext i1 @"_ZN4core3fmt3num3imp54_$LT$impl$u20$core..fmt..Display$u20$for$u20$usize$GT$3fmt17h54d4af2b1bb3d966E"(ptr align 8 %self, ptr align 8 %f) #27, !dbg !1934
  %i7 = zext i1 %i6 to i8, !dbg !1934
  store i8 %i7, ptr %_0, align 1, !dbg !1934
  br label %Flow13, !dbg !1934

bb3:                                              ; preds = %bb2
; call core::fmt::num::<impl core::fmt::UpperHex for usize>::fmt
  %i8 = call zeroext i1 @"_ZN4core3fmt3num55_$LT$impl$u20$core..fmt..UpperHex$u20$for$u20$usize$GT$3fmt17hfb9868ecfefdd0c2E"(ptr align 8 %self, ptr align 8 %f) #27, !dbg !1935
  %i9 = zext i1 %i8 to i8, !dbg !1935
  store i8 %i9, ptr %_0, align 1, !dbg !1935
  br label %Flow, !dbg !1935

Flow13:                                           ; preds = %bb4, %Flow
  %4 = phi i1 [ %i6, %bb4 ], [ %2, %Flow ]
  br label %bb5, !dbg !1932

bb5:                                              ; preds = %Flow14, %Flow13
  %i10 = phi i1 [ %0, %Flow14 ], [ %4, %Flow13 ], !dbg !1936
  ret i1 %i10, !dbg !1936
}

; core::fmt::Write::write_char
; Function Attrs: nounwind nonlazybind
define internal zeroext i1 @_ZN4core3fmt5Write10write_char17h37d7c311a9de9ea2E(ptr nocapture align 8 %self, i32 %c) unnamed_addr #3 !dbg !1937 {
start:
  %_6 = alloca [4 x i8], align 1
  call void @llvm.memset.p0.i64(ptr align 1 %_6, i8 0, i64 4, i1 false), !dbg !1939
; call core::char::methods::encode_utf8_raw
  %i = call fastcc { ptr, i64 } @_ZN4core4char7methods15encode_utf8_raw17h950f5dc8cf17563cE(i32 %c, ptr align 1 %_6, i64 4) #27, !dbg !1940
  %v.0 = extractvalue { ptr, i64 } %i, 0, !dbg !1940
  %v.1 = extractvalue { ptr, i64 } %i, 1, !dbg !1940
; call <std::io::Write::write_fmt::Adapter<T> as core::fmt::Write>::write_str
  %_0 = call zeroext i1 @"_ZN80_$LT$std..io..Write..write_fmt..Adapter$LT$T$GT$$u20$as$u20$core..fmt..Write$GT$9write_str17h1a72e95e22fd3815E"(ptr align 8 %self, ptr align 1 %v.0, i64 %v.1) #27, !dbg !1949
  ret i1 %_0, !dbg !1950
}

; core::fmt::Write::write_fmt
; Function Attrs: nounwind nonlazybind
define internal zeroext i1 @_ZN4core3fmt5Write9write_fmt17he574f70889fc5a25E(ptr align 8 %self, ptr align 8 %args) unnamed_addr #3 !dbg !1951 {
start:
; call <&mut W as core::fmt::Write::write_fmt::SpecWriteFmt>::spec_write_fmt
  %_0 = call fastcc zeroext i1 @"_ZN75_$LT$$RF$mut$u20$W$u20$as$u20$core..fmt..Write..write_fmt..SpecWriteFmt$GT$14spec_write_fmt17hdc7d44eac64cf7e4E"(ptr align 8 %self, ptr align 8 %args) #27, !dbg !1952
  ret i1 %_0, !dbg !1953
}

; core::fmt::builders::DebugList::entries
; Function Attrs: nounwind nonlazybind
define internal fastcc align 8 ptr @_ZN4core3fmt8builders9DebugList7entries17h183ea00db4b609caE(ptr returned align 8 %self, ptr %entries.0, ptr %entries.1) unnamed_addr #3 personality ptr @rust_eh_personality !dbg !1954 {
start:
  %entry = alloca ptr, align 8
  %_5 = alloca ptr, align 8
  %iter = alloca { ptr, ptr }, align 8
; call <I as core::iter::traits::collect::IntoIterator>::into_iter
  %i = call fastcc { ptr, ptr } @"_ZN63_$LT$I$u20$as$u20$core..iter..traits..collect..IntoIterator$GT$9into_iter17h7d89d8f7740327dbE"(ptr %entries.0, ptr %entries.1) #27, !dbg !1958
  %_3.0 = extractvalue { ptr, ptr } %i, 0, !dbg !1958
  %_3.1 = extractvalue { ptr, ptr } %i, 1, !dbg !1958
  store ptr %_3.0, ptr %iter, align 8, !dbg !1958
  %i1 = getelementptr inbounds { ptr, ptr }, ptr %iter, i32 0, i32 1, !dbg !1958
  store ptr %_3.1, ptr %i1, align 8, !dbg !1958
  br label %bb2, !dbg !1959

bb2:                                              ; preds = %Flow, %start
; call <core::slice::iter::Iter<T> as core::iter::traits::iterator::Iterator>::next
  %i2 = call fastcc align 1 ptr @"_ZN91_$LT$core..slice..iter..Iter$LT$T$GT$$u20$as$u20$core..iter..traits..iterator..Iterator$GT$4next17h81b6a020d84a7c13E"(ptr align 8 %iter) #27, !dbg !1961
  store ptr %i2, ptr %_5, align 8, !dbg !1961
  %i4 = ptrtoint ptr %i2 to i64, !dbg !1961
  %i5 = icmp ne i64 %i4, 0, !dbg !1961
  br i1 %i5, label %bb4, label %Flow, !dbg !1961

Flow:                                             ; preds = %bb4, %bb2
  %0 = phi i1 [ false, %bb4 ], [ true, %bb2 ]
  br i1 %0, label %bb6, label %bb2, !dbg !1961

bb6:                                              ; preds = %Flow
  ret ptr %self, !dbg !1962

bb4:                                              ; preds = %bb2
  store ptr %i2, ptr %entry, align 8, !dbg !1963
; call core::fmt::builders::DebugList::entry
  %_9 = call align 8 ptr @_ZN4core3fmt8builders9DebugList5entry17h2ed5a4f4153b90ddE(ptr align 8 %self, ptr align 1 %entry, ptr align 8 @vtable.6) #27, !dbg !1964
  br label %Flow, !dbg !1959
}

; core::fmt::Arguments::new_v1
; Function Attrs: inlinehint nounwind nonlazybind
define internal fastcc void @_ZN4core3fmt9Arguments6new_v117h0bf140cd756f43bfE(ptr noalias nocapture writeonly align 8 %_0, ptr align 8 %pieces.0, i64 %pieces.1, ptr align 8 %args.0, i64 %args.1) unnamed_addr #1 !dbg !1966 {
start:
  %_15 = alloca { ptr, i64 }, align 8
  %_13 = alloca { ptr, i64 }, align 8
  %_11 = alloca %"core::fmt::Arguments<'_>", align 8
  %_3 = icmp ult i64 %pieces.1, %args.1, !dbg !1968
  %_8 = add i64 %args.1, 1
  %_6 = icmp ugt i64 %pieces.1, %_8
  %or.cond = or i1 %_3, %_6, !dbg !1968
  br i1 %or.cond, label %bb3, label %bb4, !dbg !1968

bb4:                                              ; preds = %start
  store ptr null, ptr %_13, align 8, !dbg !1969
  store ptr %pieces.0, ptr %_0, align 8, !dbg !1970
  %i = getelementptr inbounds { ptr, i64 }, ptr %_0, i32 0, i32 1, !dbg !1970
  store i64 %pieces.1, ptr %i, align 8, !dbg !1970
  %i4 = getelementptr inbounds %"core::fmt::Arguments<'_>", ptr %_0, i32 0, i32 2, !dbg !1970
  store ptr null, ptr %i4, align 8, !dbg !1970
  %i5 = getelementptr inbounds { ptr, i64 }, ptr %i4, i32 0, i32 1, !dbg !1970
  store i64 undef, ptr %i5, align 8, !dbg !1970
  %i6 = getelementptr inbounds %"core::fmt::Arguments<'_>", ptr %_0, i32 0, i32 1, !dbg !1970
  store ptr %args.0, ptr %i6, align 8, !dbg !1970
  %i7 = getelementptr inbounds { ptr, i64 }, ptr %i6, i32 0, i32 1, !dbg !1970
  store i64 %args.1, ptr %i7, align 8, !dbg !1970
  ret void, !dbg !1971

bb3:                                              ; preds = %start
  store ptr null, ptr %_15, align 8, !dbg !1972
  store ptr @alloc_af99043bc04c419363a7f04d23183506, ptr %_11, align 8, !dbg !1978
  %i8 = getelementptr inbounds { ptr, i64 }, ptr %_11, i32 0, i32 1, !dbg !1978
  store i64 1, ptr %i8, align 8, !dbg !1978
  %i12 = getelementptr inbounds %"core::fmt::Arguments<'_>", ptr %_11, i32 0, i32 2, !dbg !1978
  store ptr null, ptr %i12, align 8, !dbg !1978
  %i13 = getelementptr inbounds { ptr, i64 }, ptr %i12, i32 0, i32 1, !dbg !1978
  store i64 undef, ptr %i13, align 8, !dbg !1978
  %i14 = getelementptr inbounds %"core::fmt::Arguments<'_>", ptr %_11, i32 0, i32 1, !dbg !1978
  store ptr @alloc_513570631223a12912d85da2bec3b15a, ptr %i14, align 8, !dbg !1978
  %i15 = getelementptr inbounds { ptr, i64 }, ptr %i14, i32 0, i32 1, !dbg !1978
  store i64 0, ptr %i15, align 8, !dbg !1978
; call core::panicking::panic_fmt
  call void @_ZN4core9panicking9panic_fmt17h784f20a50eaab275E(ptr align 8 %_11, ptr align 8 @alloc_5f330cd7dff757941d785f386d839300) #26, !dbg !1979
  unreachable, !dbg !1979
}

; core::mem::drop
; Function Attrs: inlinehint nounwind nonlazybind
define internal fastcc void @_ZN4core3mem4drop17h4ce348015d0ed7e6E(ptr align 8 %arg) unnamed_addr #1 !dbg !1980 {
start:
  %_x = alloca ptr, align 8
  store ptr %arg, ptr %_x, align 8
  %_x.val = load ptr, ptr %_x, align 8, !dbg !1981, !nonnull !16, !noundef !16
; call core::ptr::drop_in_place<alloc::boxed::Box<RUSTSEC_2020_0142::RcLike>>
  call fastcc void @"_ZN4core3ptr71drop_in_place$LT$alloc..boxed..Box$LT$RUSTSEC_2020_0142..RcLike$GT$$GT$17he5b9cb1737e982adE"(ptr %_x.val) #27, !dbg !1981
  ret void, !dbg !1982
}

; core::ops::function::FnOnce::call_once{{vtable.shim}}
; Function Attrs: inlinehint nounwind nonlazybind
define internal i32 @"_ZN4core3ops8function6FnOnce40call_once$u7b$$u7b$vtable.shim$u7d$$u7d$17h05f8d9b036998a5eE"(ptr nocapture readonly %_1) unnamed_addr #1 !dbg !1983 {
start:
  %i = load ptr, ptr %_1, align 8, !dbg !1988, !nonnull !16, !noundef !16
; call core::ops::function::FnOnce::call_once
  %_0 = call fastcc i32 @_ZN4core3ops8function6FnOnce9call_once17h0c31a3c86ee6d27eE(ptr %i) #27, !dbg !1988
  ret i32 %_0, !dbg !1988
}

; core::ops::function::FnOnce::call_once{{vtable.shim}}
; Function Attrs: inlinehint nounwind nonlazybind
define internal void @"_ZN4core3ops8function6FnOnce40call_once$u7b$$u7b$vtable.shim$u7d$$u7d$17h118e2d1e56114f4bE"(ptr %_1) unnamed_addr #1 !dbg !1989 {
start:
; call std::thread::Builder::spawn_unchecked_::{{closure}}
  call fastcc void @"_ZN3std6thread7Builder16spawn_unchecked_28_$u7b$$u7b$closure$u7d$$u7d$17h3549c98fc3f8db7eE"(ptr align 8 %_1) #27, !dbg !1990
  ret void, !dbg !1990
}

; core::ops::function::FnOnce::call_once{{vtable.shim}}
; Function Attrs: inlinehint nounwind nonlazybind
define internal void @"_ZN4core3ops8function6FnOnce40call_once$u7b$$u7b$vtable.shim$u7d$$u7d$17h3554951d62d61094E"(ptr %_1) unnamed_addr #1 !dbg !1991 {
start:
; call std::thread::Builder::spawn_unchecked_::{{closure}}
  call fastcc void @"_ZN3std6thread7Builder16spawn_unchecked_28_$u7b$$u7b$closure$u7d$$u7d$17h9b680d936d7a2c8dE"(ptr align 8 %_1) #27, !dbg !1992
  ret void, !dbg !1992
}

; core::ops::function::FnOnce::call_once
; Function Attrs: inlinehint nounwind nonlazybind
define internal fastcc i32 @_ZN4core3ops8function6FnOnce9call_once17h0c31a3c86ee6d27eE(ptr %arg) unnamed_addr #1 !dbg !1993 {
start:
  %_1 = alloca ptr, align 8
  store ptr %arg, ptr %_1, align 8
; call std::rt::lang_start::{{closure}}
  %_0 = call i32 @"_ZN3std2rt10lang_start28_$u7b$$u7b$closure$u7d$$u7d$17h867244e57ae5d8aeE"(ptr align 8 %_1) #27, !dbg !1994
  ret i32 %_0, !dbg !1994
}

; core::ops::function::FnOnce::call_once
; Function Attrs: inlinehint nounwind nonlazybind
define internal fastcc void @_ZN4core3ops8function6FnOnce9call_once17h1f3cc7d7d1d4e539E(ptr align 8 %arg) unnamed_addr #1 !dbg !1995 {
start:
  %_1 = alloca ptr, align 8
  store ptr %arg, ptr %_1, align 8
  %_1.val = load ptr, ptr %_1, align 8, !dbg !1996, !nonnull !16, !align !483, !noundef !16
; call <std::thread::Packet<T> as core::ops::drop::Drop>::drop::{{closure}}
  call fastcc void @"_ZN70_$LT$std..thread..Packet$LT$T$GT$$u20$as$u20$core..ops..drop..Drop$GT$4drop28_$u7b$$u7b$closure$u7d$$u7d$17hf629230d0b73847fE"(ptr %_1.val) #27, !dbg !1996
  ret void, !dbg !1996
}

; core::ops::function::FnOnce::call_once
; Function Attrs: inlinehint nounwind nonlazybind
define internal fastcc i64 @_ZN4core3ops8function6FnOnce9call_once17h3edf057482244b08E() unnamed_addr #1 !dbg !1997 {
start:
; call std::sys_common::thread::min_stack
  %_0 = call i64 @_ZN3std10sys_common6thread9min_stack17hbc35171617379d33E() #27, !dbg !1998
  ret i64 %_0, !dbg !1998
}

; core::ops::function::FnOnce::call_once
; Function Attrs: inlinehint nounwind nonlazybind
define internal fastcc void @_ZN4core3ops8function6FnOnce9call_once17hd028e86fb25eea3cE(ptr nocapture readonly %_1) unnamed_addr #1 !dbg !1999 {
start:
  call void %_1() #27, !dbg !2000
  ret void, !dbg !2000
}

; core::ptr::drop_in_place<alloc::sync::Arc<std::sync::mutex::Mutex<alloc::vec::Vec<u8>>>>
; Function Attrs: nounwind nonlazybind
define internal fastcc void @"_ZN4core3ptr101drop_in_place$LT$alloc..sync..Arc$LT$std..sync..mutex..Mutex$LT$alloc..vec..Vec$LT$u8$GT$$GT$$GT$$GT$17h3100b22e42599a8fE"(ptr align 8 %_1) unnamed_addr #3 !dbg !2001 {
start:
; call <alloc::sync::Arc<T,A> as core::ops::drop::Drop>::drop
  call fastcc void @"_ZN71_$LT$alloc..sync..Arc$LT$T$C$A$GT$$u20$as$u20$core..ops..drop..Drop$GT$4drop17h75a752462b86311bE"(ptr align 8 %_1) #27, !dbg !2002
  ret void, !dbg !2002
}

; core::ptr::drop_in_place<std::io::error::ErrorData<alloc::boxed::Box<std::io::error::Custom>>>
; Function Attrs: nounwind nonlazybind
define internal fastcc void @"_ZN4core3ptr101drop_in_place$LT$std..io..error..ErrorData$LT$alloc..boxed..Box$LT$std..io..error..Custom$GT$$GT$$GT$17h2372589832d57640E"(ptr nocapture readonly align 8 %_1) unnamed_addr #3 !dbg !2003 {
start:
  br i1 undef, label %bb2, label %bb1, !dbg !2004

bb2:                                              ; preds = %start
  %i1 = getelementptr inbounds %"std::io::error::ErrorData<alloc::boxed::Box<std::io::error::Custom>>::Custom", ptr %_1, i32 0, i32 1, !dbg !2004
; call core::ptr::drop_in_place<alloc::boxed::Box<std::io::error::Custom>>
  call fastcc void @"_ZN4core3ptr68drop_in_place$LT$alloc..boxed..Box$LT$std..io..error..Custom$GT$$GT$17h4bac2fc1d4f520fdE"(ptr align 8 %i1) #27, !dbg !2004
  br label %bb1, !dbg !2004

bb1:                                              ; preds = %bb2, %start
  ret void, !dbg !2004
}

; core::ptr::drop_in_place<alloc::sync::Weak<std::thread::scoped::ScopeData,&alloc::alloc::Global>>
; Function Attrs: nounwind nonlazybind
define internal fastcc void @"_ZN4core3ptr103drop_in_place$LT$alloc..sync..Weak$LT$std..thread..scoped..ScopeData$C$$RF$alloc..alloc..Global$GT$$GT$17h178279ae410197f5E"(ptr nocapture readonly align 8 %_1) unnamed_addr #3 !dbg !2005 {
start:
; call <alloc::sync::Weak<T,A> as core::ops::drop::Drop>::drop
  call fastcc void @"_ZN72_$LT$alloc..sync..Weak$LT$T$C$A$GT$$u20$as$u20$core..ops..drop..Drop$GT$4drop17h1c1dec54ffb649e5E"(ptr align 8 %_1) #27, !dbg !2006
  ret void, !dbg !2006
}

; core::ptr::drop_in_place<alloc::sync::Weak<std::thread::Packet<()>,&alloc::alloc::Global>>
; Function Attrs: nounwind nonlazybind
define internal fastcc void @"_ZN4core3ptr108drop_in_place$LT$alloc..sync..Weak$LT$std..thread..Packet$LT$$LP$$RP$$GT$$C$$RF$alloc..alloc..Global$GT$$GT$17h9a7aa76d8a13cd75E"(ptr nocapture readonly align 8 %_1) unnamed_addr #3 !dbg !2007 {
start:
; call <alloc::sync::Weak<T,A> as core::ops::drop::Drop>::drop
  call fastcc void @"_ZN72_$LT$alloc..sync..Weak$LT$T$C$A$GT$$u20$as$u20$core..ops..drop..Drop$GT$4drop17h2ed1df324949a9f8E"(ptr align 8 %_1) #27, !dbg !2008
  ret void, !dbg !2008
}

; core::ptr::drop_in_place<alloc::boxed::Box<dyn core::error::Error+core::marker::Send+core::marker::Sync>>
; Function Attrs: nounwind nonlazybind
define internal fastcc void @"_ZN4core3ptr118drop_in_place$LT$alloc..boxed..Box$LT$dyn$u20$core..error..Error$u2b$core..marker..Send$u2b$core..marker..Sync$GT$$GT$17h5ba156a20b8dcfe2E"(ptr nocapture readonly align 8 %_1) unnamed_addr #3 !dbg !2009 {
start:
  %_6.0 = load ptr, ptr %_1, align 8, !dbg !2010, !noundef !16
  %i = getelementptr inbounds { ptr, ptr }, ptr %_1, i32 0, i32 1, !dbg !2010
  %_6.1 = load ptr, ptr %i, align 8, !dbg !2010, !nonnull !16, !align !483, !noundef !16
  %i1 = load ptr, ptr %_6.1, align 8, !dbg !2010, !invariant.load !16, !nonnull !16
  call void %i1(ptr align 1 %_6.0) #27, !dbg !2010
  %_1.val = load ptr, ptr %_1, align 8, !dbg !2010, !nonnull !16, !noundef !16
  %0 = getelementptr i8, ptr %_1, i64 8, !dbg !2010
  %_1.val2 = load ptr, ptr %0, align 8, !dbg !2010, !nonnull !16, !align !483, !noundef !16
; call <alloc::boxed::Box<T,A> as core::ops::drop::Drop>::drop
  call fastcc void @"_ZN72_$LT$alloc..boxed..Box$LT$T$C$A$GT$$u20$as$u20$core..ops..drop..Drop$GT$4drop17h35f7d8894b71c861E"(ptr %_1.val, ptr %_1.val2) #27, !dbg !2010
  ret void, !dbg !2010
}

; core::ptr::drop_in_place<std::thread::Builder::spawn_unchecked_::MaybeDangling<RUSTSEC_2020_0142::main::{{closure}}>>
; Function Attrs: mustprogress nofree norecurse nosync nounwind nonlazybind willreturn memory(none)
define internal fastcc void @"_ZN4core3ptr134drop_in_place$LT$std..thread..Builder..spawn_unchecked_..MaybeDangling$LT$RUSTSEC_2020_0142..main..$u7b$$u7b$closure$u7d$$u7d$$GT$$GT$17h1fde174fcf80d604E"(ptr nocapture align 8 %_1) unnamed_addr #0 !dbg !2011 {
start:
  ret void, !dbg !2012
}

; core::ptr::drop_in_place<std::thread::Builder::spawn_unchecked_<RUSTSEC_2020_0142::main::{{closure}},()>::{{closure}}>
; Function Attrs: nounwind nonlazybind
define internal void @"_ZN4core3ptr159drop_in_place$LT$std..thread..Builder..spawn_unchecked_$LT$RUSTSEC_2020_0142..main..$u7b$$u7b$closure$u7d$$u7d$$C$$LP$$RP$$GT$..$u7b$$u7b$closure$u7d$$u7d$$GT$17h719a7a36a8a9de9bE"(ptr align 8 %_1) unnamed_addr #3 !dbg !2013 {
start:
; call core::ptr::drop_in_place<std::thread::Thread>
  call fastcc void @"_ZN4core3ptr40drop_in_place$LT$std..thread..Thread$GT$17he6dbe1407530fadaE"(ptr align 8 %_1) #27, !dbg !2014
  %i = getelementptr inbounds %"{closure@std::thread::Builder::spawn_unchecked_<'_, '_, {closure@data/RUSTSEC_2020_0142.rs:58:28: 58:35}, ()>::{closure#1}}", ptr %_1, i32 0, i32 2, !dbg !2014
  %i1 = load ptr, ptr %i, align 8, !dbg !2015, !noundef !16
  %i2 = ptrtoint ptr %i1 to i64, !dbg !2015
  %i3 = icmp ne i64 %i2, 0, !dbg !2015
  br i1 %i3, label %codeRepl.i, label %"_ZN4core3ptr129drop_in_place$LT$core..option..Option$LT$alloc..sync..Arc$LT$std..sync..mutex..Mutex$LT$alloc..vec..Vec$LT$u8$GT$$GT$$GT$$GT$$GT$17h068803038d83c16bE.18.exit", !dbg !2015

codeRepl.i:                                       ; preds = %start
; call core::ptr::drop_in_place<core::option::Option<alloc::sync::Arc<std::sync::mutex::Mutex<alloc::vec::Vec<u8>>>>>.18.bb2
  call fastcc void @"_ZN4core3ptr129drop_in_place$LT$core..option..Option$LT$alloc..sync..Arc$LT$std..sync..mutex..Mutex$LT$alloc..vec..Vec$LT$u8$GT$$GT$$GT$$GT$$GT$17h068803038d83c16bE.18.bb2"(ptr %i), !dbg !2015
  br label %"_ZN4core3ptr129drop_in_place$LT$core..option..Option$LT$alloc..sync..Arc$LT$std..sync..mutex..Mutex$LT$alloc..vec..Vec$LT$u8$GT$$GT$$GT$$GT$$GT$17h068803038d83c16bE.18.exit"

"_ZN4core3ptr129drop_in_place$LT$core..option..Option$LT$alloc..sync..Arc$LT$std..sync..mutex..Mutex$LT$alloc..vec..Vec$LT$u8$GT$$GT$$GT$$GT$$GT$17h068803038d83c16bE.18.exit": ; preds = %codeRepl.i, %start
  %i5 = getelementptr inbounds %"{closure@std::thread::Builder::spawn_unchecked_<'_, '_, {closure@data/RUSTSEC_2020_0142.rs:58:28: 58:35}, ()>::{closure#1}}", ptr %_1, i32 0, i32 1, !dbg !2014
; call core::ptr::drop_in_place<alloc::sync::Arc<std::thread::Packet<()>>>
  call fastcc void @"_ZN4core3ptr80drop_in_place$LT$alloc..sync..Arc$LT$std..thread..Packet$LT$$LP$$RP$$GT$$GT$$GT$17h7786af121b5ab59aE"(ptr align 8 %i5) #27, !dbg !2014
  ret void, !dbg !2014
}

; core::ptr::drop_in_place<core::cell::UnsafeCell<core::option::Option<core::result::Result<(),alloc::boxed::Box<dyn core::any::Any+core::marker::Send>>>>>
; Function Attrs: nounwind nonlazybind
define internal fastcc void @"_ZN4core3ptr188drop_in_place$LT$core..cell..UnsafeCell$LT$core..option..Option$LT$core..result..Result$LT$$LP$$RP$$C$alloc..boxed..Box$LT$dyn$u20$core..any..Any$u2b$core..marker..Send$GT$$GT$$GT$$GT$$GT$17h7b5858ad3974c6acE"(ptr nocapture readonly align 8 %_1) unnamed_addr #3 !dbg !2017 {
start:
  %_2.i = load i64, ptr %_1, align 8, !dbg !2018, !range !109, !noundef !16
  %i = icmp ne i64 %_2.i, 0, !dbg !2018
  br i1 %i, label %codeRepl.i, label %"_ZN4core3ptr158drop_in_place$LT$core..option..Option$LT$core..result..Result$LT$$LP$$RP$$C$alloc..boxed..Box$LT$dyn$u20$core..any..Any$u2b$core..marker..Send$GT$$GT$$GT$$GT$17hf9f2e9e54158bb9dE.16.exit", !dbg !2018

codeRepl.i:                                       ; preds = %start
; call core::ptr::drop_in_place<core::option::Option<core::result::Result<(),alloc::boxed::Box<dyn core::any::Any+core::marker::Send>>>>.16.bb2
  call fastcc void @"_ZN4core3ptr158drop_in_place$LT$core..option..Option$LT$core..result..Result$LT$$LP$$RP$$C$alloc..boxed..Box$LT$dyn$u20$core..any..Any$u2b$core..marker..Send$GT$$GT$$GT$$GT$17hf9f2e9e54158bb9dE.16.bb2"(ptr %_1), !dbg !2018
  br label %"_ZN4core3ptr158drop_in_place$LT$core..option..Option$LT$core..result..Result$LT$$LP$$RP$$C$alloc..boxed..Box$LT$dyn$u20$core..any..Any$u2b$core..marker..Send$GT$$GT$$GT$$GT$17hf9f2e9e54158bb9dE.16.exit"

"_ZN4core3ptr158drop_in_place$LT$core..option..Option$LT$core..result..Result$LT$$LP$$RP$$C$alloc..boxed..Box$LT$dyn$u20$core..any..Any$u2b$core..marker..Send$GT$$GT$$GT$$GT$17hf9f2e9e54158bb9dE.16.exit": ; preds = %codeRepl.i, %start
  ret void, !dbg !2020
}

; core::ptr::drop_in_place<usize>
; Function Attrs: inlinehint mustprogress nofree norecurse nosync nounwind nonlazybind willreturn memory(none)
define internal void @"_ZN4core3ptr26drop_in_place$LT$usize$GT$17h065097eab7b6fafcE"(ptr nocapture align 8 %_1) unnamed_addr #5 !dbg !2021 {
start:
  ret void, !dbg !2022
}

; core::ptr::drop_in_place<std::thread::Thread>
; Function Attrs: nounwind nonlazybind
define internal fastcc void @"_ZN4core3ptr40drop_in_place$LT$std..thread..Thread$GT$17he6dbe1407530fadaE"(ptr align 8 %_1) unnamed_addr #3 !dbg !2023 {
start:
; call core::ptr::drop_in_place<core::pin::Pin<alloc::sync::Arc<std::thread::Inner>>>
  call fastcc void @"_ZN4core3ptr85drop_in_place$LT$core..pin..Pin$LT$alloc..sync..Arc$LT$std..thread..Inner$GT$$GT$$GT$17he6f438a159bacc66E"(ptr align 8 %_1) #27, !dbg !2024
  ret void, !dbg !2024
}

; core::ptr::drop_in_place<std::io::error::Error>
; Function Attrs: nounwind nonlazybind
define internal void @"_ZN4core3ptr42drop_in_place$LT$std..io..error..Error$GT$17he4aabe759e287c74E"(ptr nocapture readonly align 8 %_1) unnamed_addr #3 !dbg !2025 {
start:
  %_1.val = load ptr, ptr %_1, align 8, !dbg !2026, !nonnull !16, !noundef !16
; call core::ptr::drop_in_place<std::io::error::repr_bitpacked::Repr>
  call fastcc void @"_ZN4core3ptr57drop_in_place$LT$std..io..error..repr_bitpacked..Repr$GT$17hb15cc94696de2eefE"(ptr %_1.val) #27, !dbg !2026
  ret void, !dbg !2026
}

; core::ptr::drop_in_place<std::io::error::Custom>
; Function Attrs: nounwind nonlazybind
define internal fastcc void @"_ZN4core3ptr43drop_in_place$LT$std..io..error..Custom$GT$17h12ebaf34bdd53319E"(ptr nocapture readonly align 8 %_1) unnamed_addr #3 !dbg !2027 {
start:
; call core::ptr::drop_in_place<alloc::boxed::Box<dyn core::error::Error+core::marker::Send+core::marker::Sync>>
  call fastcc void @"_ZN4core3ptr118drop_in_place$LT$alloc..boxed..Box$LT$dyn$u20$core..error..Error$u2b$core..marker..Send$u2b$core..marker..Sync$GT$$GT$17h5ba156a20b8dcfe2E"(ptr align 8 %_1) #27, !dbg !2028
  ret void, !dbg !2028
}

; core::ptr::drop_in_place<alloc::ffi::c_str::CString>
; Function Attrs: nounwind nonlazybind
define internal fastcc void @"_ZN4core3ptr47drop_in_place$LT$alloc..ffi..c_str..CString$GT$17hdb87108837685088E"(ptr nocapture readonly align 8 %_1) unnamed_addr #3 !dbg !2029 {
start:
  %_1.val = load ptr, ptr %_1, align 8, !dbg !2030, !nonnull !16, !align !582, !noundef !16
; call <alloc::ffi::c_str::CString as core::ops::drop::Drop>::drop
  call fastcc void @"_ZN68_$LT$alloc..ffi..c_str..CString$u20$as$u20$core..ops..drop..Drop$GT$4drop17hf5f7e1b08b40f343E"(ptr %_1.val) #27, !dbg !2030
  %_1.val1 = load ptr, ptr %_1, align 8, !dbg !2030, !nonnull !16, !noundef !16
  %0 = getelementptr i8, ptr %_1, i64 8, !dbg !2030
  %_1.val2 = load i64, ptr %0, align 8, !dbg !2030, !noundef !16
; call core::ptr::drop_in_place<alloc::boxed::Box<[u8]>>
  call fastcc void @"_ZN4core3ptr58drop_in_place$LT$alloc..boxed..Box$LT$$u5b$u8$u5d$$GT$$GT$17hf63d48d8e32e480fE"(ptr %_1.val1, i64 %_1.val2) #27, !dbg !2030
  ret void, !dbg !2030
}

; core::ptr::drop_in_place<alloc::ffi::c_str::NulError>
; Function Attrs: nounwind nonlazybind
define internal void @"_ZN4core3ptr48drop_in_place$LT$alloc..ffi..c_str..NulError$GT$17hd55b6ecaa4d1877eE"(ptr nocapture readonly align 8 %_1) unnamed_addr #3 !dbg !2031 {
start:
  %_2.i.i.i = alloca %"core::option::Option<(core::ptr::non_null::NonNull<u8>, core::alloc::layout::Layout)>", align 8
  call void @llvm.lifetime.start.p0(i64 24, ptr %_2.i.i.i), !dbg !2032
; call alloc::raw_vec::RawVec<T,A>::current_memory
  call fastcc void @"_ZN5alloc7raw_vec19RawVec$LT$T$C$A$GT$14current_memory17h1edcec48d4eaf7d7E"(ptr noalias align 8 %_2.i.i.i, ptr align 8 %_1) #27, !dbg !2032
  %i = getelementptr inbounds %"core::option::Option<(core::ptr::non_null::NonNull<u8>, core::alloc::layout::Layout)>", ptr %_2.i.i.i, i32 0, i32 1, !dbg !2043
  %i1 = load i64, ptr %i, align 8, !dbg !2043, !range !788, !noundef !16
  %i2 = icmp eq i64 %i1, 0, !dbg !2043
  %_4.i.i.i = select i1 %i2, i64 0, i64 1, !dbg !2043
  %i3 = icmp eq i64 %_4.i.i.i, 1, !dbg !2043
  br i1 %i3, label %codeRepl.i, label %"_ZN4core3ptr46drop_in_place$LT$alloc..vec..Vec$LT$u8$GT$$GT$17h15fb8116c8a7de65E.13.exit", !dbg !2043

codeRepl.i:                                       ; preds = %start
; call core::ptr::drop_in_place<alloc::vec::Vec<u8>>.13.codeRepl.i
  call fastcc void @"_ZN4core3ptr46drop_in_place$LT$alloc..vec..Vec$LT$u8$GT$$GT$17h15fb8116c8a7de65E.13.codeRepl.i"(ptr %_2.i.i.i), !dbg !2044
  br label %"_ZN4core3ptr46drop_in_place$LT$alloc..vec..Vec$LT$u8$GT$$GT$17h15fb8116c8a7de65E.13.exit"

"_ZN4core3ptr46drop_in_place$LT$alloc..vec..Vec$LT$u8$GT$$GT$17h15fb8116c8a7de65E.13.exit": ; preds = %codeRepl.i, %start
  call void @llvm.lifetime.end.p0(i64 24, ptr %_2.i.i.i), !dbg !2045
  ret void, !dbg !2046
}

; core::ptr::drop_in_place<std::thread::scoped::ScopeData>
; Function Attrs: nounwind nonlazybind
define internal fastcc void @"_ZN4core3ptr51drop_in_place$LT$std..thread..scoped..ScopeData$GT$17h80919b7fcbb87021E"(ptr align 8 %_1) unnamed_addr #3 !dbg !2047 {
start:
; call core::ptr::drop_in_place<std::thread::Thread>
  call fastcc void @"_ZN4core3ptr40drop_in_place$LT$std..thread..Thread$GT$17he6dbe1407530fadaE"(ptr align 8 %_1) #27, !dbg !2048
  ret void, !dbg !2048
}

; core::ptr::drop_in_place<std::thread::Packet<()>>
; Function Attrs: nounwind nonlazybind
define internal fastcc void @"_ZN4core3ptr56drop_in_place$LT$std..thread..Packet$LT$$LP$$RP$$GT$$GT$17h76bbc117547332b0E"(ptr align 8 %_1) unnamed_addr #3 !dbg !2049 {
start:
; call <std::thread::Packet<T> as core::ops::drop::Drop>::drop
  call fastcc void @"_ZN70_$LT$std..thread..Packet$LT$T$GT$$u20$as$u20$core..ops..drop..Drop$GT$4drop17h2c3cf3996dee0469E"(ptr align 8 %_1) #27, !dbg !2050
  %i = load ptr, ptr %_1, align 8, !dbg !2051, !noundef !16
  %i1 = ptrtoint ptr %i to i64, !dbg !2051
  %i2 = icmp ne i64 %i1, 0, !dbg !2051
  br i1 %i2, label %codeRepl.i, label %"_ZN4core3ptr103drop_in_place$LT$core..option..Option$LT$alloc..sync..Arc$LT$std..thread..scoped..ScopeData$GT$$GT$$GT$17h05821b3f4794f3afE.19.exit", !dbg !2051

codeRepl.i:                                       ; preds = %start
; call core::ptr::drop_in_place<core::option::Option<alloc::sync::Arc<std::thread::scoped::ScopeData>>>.19.bb2
  call fastcc void @"_ZN4core3ptr103drop_in_place$LT$core..option..Option$LT$alloc..sync..Arc$LT$std..thread..scoped..ScopeData$GT$$GT$$GT$17h05821b3f4794f3afE.19.bb2"(ptr %_1), !dbg !2051
  br label %"_ZN4core3ptr103drop_in_place$LT$core..option..Option$LT$alloc..sync..Arc$LT$std..thread..scoped..ScopeData$GT$$GT$$GT$17h05821b3f4794f3afE.19.exit"

"_ZN4core3ptr103drop_in_place$LT$core..option..Option$LT$alloc..sync..Arc$LT$std..thread..scoped..ScopeData$GT$$GT$$GT$17h05821b3f4794f3afE.19.exit": ; preds = %codeRepl.i, %start
  %i3 = getelementptr inbounds %"std::thread::Packet<'_, ()>", ptr %_1, i32 0, i32 1, !dbg !2050
; call core::ptr::drop_in_place<core::cell::UnsafeCell<core::option::Option<core::result::Result<(),alloc::boxed::Box<dyn core::any::Any+core::marker::Send>>>>>
  call fastcc void @"_ZN4core3ptr188drop_in_place$LT$core..cell..UnsafeCell$LT$core..option..Option$LT$core..result..Result$LT$$LP$$RP$$C$alloc..boxed..Box$LT$dyn$u20$core..any..Any$u2b$core..marker..Send$GT$$GT$$GT$$GT$$GT$17h7b5858ad3974c6acE"(ptr align 8 %i3) #27, !dbg !2050
  ret void, !dbg !2050
}

; core::ptr::drop_in_place<std::io::error::repr_bitpacked::Repr>
; Function Attrs: nounwind nonlazybind
define internal fastcc void @"_ZN4core3ptr57drop_in_place$LT$std..io..error..repr_bitpacked..Repr$GT$17hb15cc94696de2eefE"(ptr %_1.0.val) unnamed_addr #3 !dbg !2054 {
start:
  %0 = icmp ne ptr %_1.0.val, null
  call void @llvm.assume(i1 %0)
; call <std::io::error::repr_bitpacked::Repr as core::ops::drop::Drop>::drop
  call fastcc void @"_ZN78_$LT$std..io..error..repr_bitpacked..Repr$u20$as$u20$core..ops..drop..Drop$GT$4drop17hfc1c367d31ed3294E"(ptr %_1.0.val) #27, !dbg !2055
  ret void, !dbg !2055
}

; core::ptr::drop_in_place<alloc::boxed::Box<[u8]>>
; Function Attrs: nounwind nonlazybind
define internal fastcc void @"_ZN4core3ptr58drop_in_place$LT$alloc..boxed..Box$LT$$u5b$u8$u5d$$GT$$GT$17hf63d48d8e32e480fE"(ptr %_1.0.val, i64 %_1.8.val) unnamed_addr #3 !dbg !2056 {
start:
  %0 = icmp ne ptr %_1.0.val, null
  call void @llvm.assume(i1 %0)
; call <alloc::boxed::Box<T,A> as core::ops::drop::Drop>::drop
  call fastcc void @"_ZN72_$LT$alloc..boxed..Box$LT$T$C$A$GT$$u20$as$u20$core..ops..drop..Drop$GT$4drop17h8d598bb2586614b7E"(ptr %_1.0.val, i64 %_1.8.val) #27, !dbg !2057
  ret void, !dbg !2057
}

; core::ptr::drop_in_place<alloc::sync::Arc<std::thread::Inner>>
; Function Attrs: nounwind nonlazybind
define internal fastcc void @"_ZN4core3ptr63drop_in_place$LT$alloc..sync..Arc$LT$std..thread..Inner$GT$$GT$17h208b9d3381988ce9E"(ptr align 8 %_1) unnamed_addr #3 !dbg !2058 {
start:
; call <alloc::sync::Arc<T,A> as core::ops::drop::Drop>::drop
  call fastcc void @"_ZN71_$LT$alloc..sync..Arc$LT$T$C$A$GT$$u20$as$u20$core..ops..drop..Drop$GT$4drop17hde270c2e20f93e94E"(ptr align 8 %_1) #27, !dbg !2059
  ret void, !dbg !2059
}

; core::ptr::drop_in_place<alloc::boxed::Box<std::io::error::Custom>>
; Function Attrs: nounwind nonlazybind
define internal fastcc void @"_ZN4core3ptr68drop_in_place$LT$alloc..boxed..Box$LT$std..io..error..Custom$GT$$GT$17h4bac2fc1d4f520fdE"(ptr nocapture readonly align 8 %_1) unnamed_addr #3 !dbg !2060 {
start:
  %_6 = load ptr, ptr %_1, align 8, !dbg !2061, !noundef !16
; call core::ptr::drop_in_place<std::io::error::Custom>
  call fastcc void @"_ZN4core3ptr43drop_in_place$LT$std..io..error..Custom$GT$17h12ebaf34bdd53319E"(ptr align 8 %_6) #27, !dbg !2061
  %_1.val = load ptr, ptr %_1, align 8, !dbg !2061, !nonnull !16, !noundef !16
; call <alloc::boxed::Box<T,A> as core::ops::drop::Drop>::drop
  call fastcc void @"_ZN72_$LT$alloc..boxed..Box$LT$T$C$A$GT$$u20$as$u20$core..ops..drop..Drop$GT$4drop17h92762f41dba24165E"(ptr %_1.val) #27, !dbg !2061
  ret void, !dbg !2061
}

; core::ptr::drop_in_place<alloc::boxed::Box<RUSTSEC_2020_0142::RcLike>>
; Function Attrs: nounwind nonlazybind
define internal fastcc void @"_ZN4core3ptr71drop_in_place$LT$alloc..boxed..Box$LT$RUSTSEC_2020_0142..RcLike$GT$$GT$17he5b9cb1737e982adE"(ptr %_1.0.val) unnamed_addr #3 !dbg !2062 {
start:
  %0 = icmp ne ptr %_1.0.val, null
  call void @llvm.assume(i1 %0)
; call <alloc::boxed::Box<T,A> as core::ops::drop::Drop>::drop
  call fastcc void @"_ZN72_$LT$alloc..boxed..Box$LT$T$C$A$GT$$u20$as$u20$core..ops..drop..Drop$GT$4drop17h98da87d69f351965E"(ptr %_1.0.val) #27, !dbg !2063
  ret void, !dbg !2063
}

; core::ptr::drop_in_place<alloc::sync::Arc<std::thread::scoped::ScopeData>>
; Function Attrs: nounwind nonlazybind
define internal fastcc void @"_ZN4core3ptr75drop_in_place$LT$alloc..sync..Arc$LT$std..thread..scoped..ScopeData$GT$$GT$17h0002f355e668e30bE"(ptr align 8 %_1) unnamed_addr #3 !dbg !2064 {
start:
; call <alloc::sync::Arc<T,A> as core::ops::drop::Drop>::drop
  call fastcc void @"_ZN71_$LT$alloc..sync..Arc$LT$T$C$A$GT$$u20$as$u20$core..ops..drop..Drop$GT$4drop17h2559eabecff76c10E"(ptr align 8 %_1) #27, !dbg !2065
  ret void, !dbg !2065
}

; core::ptr::drop_in_place<core::cell::UnsafeCell<alloc::vec::Vec<u8>>>
; Function Attrs: nounwind nonlazybind
define internal fastcc void @"_ZN4core3ptr76drop_in_place$LT$core..cell..UnsafeCell$LT$alloc..vec..Vec$LT$u8$GT$$GT$$GT$17he346e41cd6208153E"(ptr nocapture readonly align 8 %_1) unnamed_addr #3 !dbg !2066 {
start:
  %_2.i.i.i = alloca %"core::option::Option<(core::ptr::non_null::NonNull<u8>, core::alloc::layout::Layout)>", align 8
  call void @llvm.lifetime.start.p0(i64 24, ptr %_2.i.i.i), !dbg !2067
; call alloc::raw_vec::RawVec<T,A>::current_memory
  call fastcc void @"_ZN5alloc7raw_vec19RawVec$LT$T$C$A$GT$14current_memory17h1edcec48d4eaf7d7E"(ptr noalias align 8 %_2.i.i.i, ptr align 8 %_1) #27, !dbg !2067
  %i = getelementptr inbounds %"core::option::Option<(core::ptr::non_null::NonNull<u8>, core::alloc::layout::Layout)>", ptr %_2.i.i.i, i32 0, i32 1, !dbg !2071
  %i1 = load i64, ptr %i, align 8, !dbg !2071, !range !788, !noundef !16
  %i2 = icmp eq i64 %i1, 0, !dbg !2071
  %_4.i.i.i = select i1 %i2, i64 0, i64 1, !dbg !2071
  %i3 = icmp eq i64 %_4.i.i.i, 1, !dbg !2071
  br i1 %i3, label %codeRepl.i, label %"_ZN4core3ptr46drop_in_place$LT$alloc..vec..Vec$LT$u8$GT$$GT$17h15fb8116c8a7de65E.13.exit", !dbg !2071

codeRepl.i:                                       ; preds = %start
; call core::ptr::drop_in_place<alloc::vec::Vec<u8>>.13.codeRepl.i
  call fastcc void @"_ZN4core3ptr46drop_in_place$LT$alloc..vec..Vec$LT$u8$GT$$GT$17h15fb8116c8a7de65E.13.codeRepl.i"(ptr %_2.i.i.i), !dbg !2072
  br label %"_ZN4core3ptr46drop_in_place$LT$alloc..vec..Vec$LT$u8$GT$$GT$17h15fb8116c8a7de65E.13.exit"

"_ZN4core3ptr46drop_in_place$LT$alloc..vec..Vec$LT$u8$GT$$GT$17h15fb8116c8a7de65E.13.exit": ; preds = %codeRepl.i, %start
  call void @llvm.lifetime.end.p0(i64 24, ptr %_2.i.i.i), !dbg !2073
  ret void, !dbg !2074
}

; core::ptr::drop_in_place<std::sync::mutex::Mutex<alloc::vec::Vec<u8>>>
; Function Attrs: nounwind nonlazybind
define internal fastcc void @"_ZN4core3ptr77drop_in_place$LT$std..sync..mutex..Mutex$LT$alloc..vec..Vec$LT$u8$GT$$GT$$GT$17h4be849303d5fdf3bE"(ptr nocapture readonly align 8 %_1) unnamed_addr #3 !dbg !2075 {
start:
  %i = getelementptr inbounds %"std::sync::mutex::Mutex<alloc::vec::Vec<u8>>", ptr %_1, i32 0, i32 3, !dbg !2076
; call core::ptr::drop_in_place<core::cell::UnsafeCell<alloc::vec::Vec<u8>>>
  call fastcc void @"_ZN4core3ptr76drop_in_place$LT$core..cell..UnsafeCell$LT$alloc..vec..Vec$LT$u8$GT$$GT$$GT$17he346e41cd6208153E"(ptr align 8 %i) #27, !dbg !2076
  ret void, !dbg !2076
}

; core::ptr::drop_in_place<alloc::sync::Arc<std::thread::Packet<()>>>
; Function Attrs: nounwind nonlazybind
define internal fastcc void @"_ZN4core3ptr80drop_in_place$LT$alloc..sync..Arc$LT$std..thread..Packet$LT$$LP$$RP$$GT$$GT$$GT$17h7786af121b5ab59aE"(ptr align 8 %_1) unnamed_addr #3 !dbg !2077 {
start:
; call <alloc::sync::Arc<T,A> as core::ops::drop::Drop>::drop
  call fastcc void @"_ZN71_$LT$alloc..sync..Arc$LT$T$C$A$GT$$u20$as$u20$core..ops..drop..Drop$GT$4drop17hc2358d3c0192619cE"(ptr align 8 %_1) #27, !dbg !2078
  ret void, !dbg !2078
}

; core::ptr::drop_in_place<core::pin::Pin<alloc::sync::Arc<std::thread::Inner>>>
; Function Attrs: nounwind nonlazybind
define internal fastcc void @"_ZN4core3ptr85drop_in_place$LT$core..pin..Pin$LT$alloc..sync..Arc$LT$std..thread..Inner$GT$$GT$$GT$17he6f438a159bacc66E"(ptr align 8 %_1) unnamed_addr #3 !dbg !2079 {
start:
; call core::ptr::drop_in_place<alloc::sync::Arc<std::thread::Inner>>
  call fastcc void @"_ZN4core3ptr63drop_in_place$LT$alloc..sync..Arc$LT$std..thread..Inner$GT$$GT$17h208b9d3381988ce9E"(ptr align 8 %_1) #27, !dbg !2080
  ret void, !dbg !2080
}

; core::ptr::drop_in_place<alloc::boxed::Box<dyn core::any::Any+core::marker::Send>>
; Function Attrs: nounwind nonlazybind
