; ModuleID = 'SAFE_RUSTSEC_2020_0116.e3e4980609ae97fc-cgu.0'
source_filename = "SAFE_RUSTSEC_2020_0116.e3e4980609ae97fc-cgu.0"
target datalayout = "e-m:o-p270:32:32-p271:32:32-p272:64:64-i64:64-f80:128-n8:16:32:64-S128"
target triple = "x86_64-apple-macosx10.12.0"

%"core::sync::atomic::AtomicUsize" = type { i64 }
%"core::ptr::metadata::PtrRepr<[u8]>" = type { [2 x i64] }
%"core::ptr::metadata::PtrComponents<std::sys::unix::locks::pthread_mutex::AllocatedMutex>" = type { ptr, {} }
%"core::ptr::metadata::PtrRepr<std::sys::unix::locks::pthread_mutex::AllocatedMutex>" = type { [1 x i64] }
%"core::result::Result<usize, std::io::error::Error>" = type { i64, [1 x i64] }
%"core::result::Result<usize, std::io::error::Error>::Ok" = type { [1 x i64], i64 }
%"core::result::Result<usize, std::io::error::Error>::Err" = type { [1 x i64], ptr }
%"core::ptr::metadata::PtrComponents<()>" = type { ptr, {} }
%"core::ptr::metadata::PtrRepr<()>" = type { [1 x i64] }
%"std::io::error::ErrorData<alloc::boxed::Box<std::io::error::Custom>>::Os" = type { [1 x i32], i32 }
%"std::io::error::ErrorData<alloc::boxed::Box<std::io::error::Custom>>::Simple" = type { [1 x i8], i8 }
%"std::io::error::ErrorData<alloc::boxed::Box<std::io::error::Custom>>::SimpleMessage" = type { [1 x i64], ptr }
%"std::io::error::ErrorData<alloc::boxed::Box<std::io::error::Custom>>::Custom" = type { [1 x i64], ptr }
%"std::io::error::ErrorData<&std::io::error::Custom>::Os" = type { [1 x i32], i32 }
%"std::io::error::ErrorData<&std::io::error::Custom>::Simple" = type { [1 x i8], i8 }
%"std::io::error::ErrorData<&std::io::error::Custom>::SimpleMessage" = type { [1 x i64], ptr }
%"std::io::error::ErrorData<&std::io::error::Custom>::Custom" = type { [1 x i64], ptr }
%"std::io::error::ErrorData<&std::io::error::Custom>" = type { i8, [15 x i8] }
%"std::io::error::SimpleMessage" = type { { ptr, i64 }, i8, [7 x i8] }
%"std::io::error::Custom" = type { { ptr, ptr }, i8, [7 x i8] }
%"core::sync::atomic::AtomicBool" = type { i8 }
%"core::sync::atomic::AtomicPtr<std::sys::unix::locks::pthread_mutex::AllocatedMutex>" = type { ptr }
%"core::cell::UnsafeCell<PinSlab<core::cell::Cell<i32>>>" = type { %"PinSlab<core::cell::Cell<i32>>" }
%"PinSlab<core::cell::Cell<i32>>" = type { %"alloc::vec::Vec<core::cell::Cell<i32>>" }
%"alloc::vec::Vec<core::cell::Cell<i32>>" = type { { i64, ptr }, i64 }
%"std::sync::poison::Flag" = type { %"core::sync::atomic::AtomicBool" }
%"std::sys::unix::locks::pthread_mutex::Mutex" = type { %"std::sys_common::lazy_box::LazyBox<std::sys::unix::locks::pthread_mutex::AllocatedMutex>" }
%"std::sys_common::lazy_box::LazyBox<std::sys::unix::locks::pthread_mutex::AllocatedMutex>" = type { %"core::sync::atomic::AtomicPtr<std::sys::unix::locks::pthread_mutex::AllocatedMutex>", %"core::marker::PhantomData<std::sys::unix::locks::pthread_mutex::AllocatedMutex>" }
%"core::marker::PhantomData<std::sys::unix::locks::pthread_mutex::AllocatedMutex>" = type {}
%"std::sync::mutex::Mutex<PinSlab<core::cell::Cell<i32>>>" = type { %"std::sys::unix::locks::pthread_mutex::Mutex", %"std::sync::poison::Flag", [7 x i8], %"core::cell::UnsafeCell<PinSlab<core::cell::Cell<i32>>>" }
%"core::result::Result<std::sync::mutex::MutexGuard<'_, PinSlab<core::cell::Cell<i32>>>, std::sync::poison::PoisonError<std::sync::mutex::MutexGuard<'_, PinSlab<core::cell::Cell<i32>>>>>::Ok" = type { [1 x i64], { ptr, i8 } }
%"core::result::Result<std::sync::mutex::MutexGuard<'_, PinSlab<core::cell::Cell<i32>>>, std::sync::poison::PoisonError<std::sync::mutex::MutexGuard<'_, PinSlab<core::cell::Cell<i32>>>>>::Err" = type { [1 x i64], { ptr, i8 } }
%"core::option::Option<core::result::Result<(), alloc::boxed::Box<dyn core::any::Any + core::marker::Send>>>" = type { i64, [2 x i64] }
%"std::thread::JoinInner<'_, ()>" = type { ptr, ptr, i64 }
%"alloc::sync::ArcInner<std::thread::Packet<'_, ()>>" = type { %"core::sync::atomic::AtomicUsize", %"core::sync::atomic::AtomicUsize", %"std::thread::Packet<'_, ()>" }
%"std::thread::Packet<'_, ()>" = type { ptr, %"core::cell::UnsafeCell<core::option::Option<core::result::Result<(), alloc::boxed::Box<dyn core::any::Any + core::marker::Send>>>>", %"core::marker::PhantomData<core::option::Option<&std::thread::scoped::ScopeData>>" }
%"core::cell::UnsafeCell<core::option::Option<core::result::Result<(), alloc::boxed::Box<dyn core::any::Any + core::marker::Send>>>>" = type { %"core::option::Option<core::result::Result<(), alloc::boxed::Box<dyn core::any::Any + core::marker::Send>>>" }
%"core::marker::PhantomData<core::option::Option<&std::thread::scoped::ScopeData>>" = type {}
%"core::option::Option<core::result::Result<(), alloc::boxed::Box<dyn core::any::Any + core::marker::Send>>>::Some" = type { [1 x i64], { ptr, ptr } }
%"core::option::Option<alloc::string::String>" = type { i64, [2 x i64] }
%"std::thread::Builder" = type { { i64, i64 }, %"core::option::Option<alloc::string::String>" }
%"core::result::Result<std::thread::JoinHandle<()>, std::io::error::Error>" = type { ptr, [2 x i64] }
%"core::result::Result<std::thread::JoinInner<'_, ()>, std::io::error::Error>" = type { ptr, [2 x i64] }
%"core::ops::control_flow::ControlFlow<core::result::Result<core::convert::Infallible, std::io::error::Error>, std::thread::JoinInner<'_, ()>>" = type { ptr, [2 x i64] }
%"core::result::Result<std::thread::JoinInner<'_, ()>, std::io::error::Error>::Err" = type { [1 x i64], ptr }
%"core::ops::control_flow::ControlFlow<core::result::Result<core::convert::Infallible, std::io::error::Error>, std::thread::JoinInner<'_, ()>>::Break" = type { [1 x i64], ptr }
%"core::result::Result<std::thread::JoinHandle<()>, std::io::error::Error>::Err" = type { [1 x i64], ptr }
%"alloc::ffi::c_str::NulError" = type { %"alloc::vec::Vec<u8>", i64 }
%"alloc::vec::Vec<u8>" = type { { i64, ptr }, i64 }
%"core::result::Result<alloc::ffi::c_str::CString, alloc::ffi::c_str::NulError>" = type { i64, [3 x i64] }
%"alloc::string::String" = type { %"alloc::vec::Vec<u8>" }
%"core::result::Result<std::sys::unix::thread::Thread, std::io::error::Error>" = type { i64, [1 x i64] }
%"core::ops::control_flow::ControlFlow<core::result::Result<core::convert::Infallible, std::io::error::Error>, std::sys::unix::thread::Thread>" = type { i64, [1 x i64] }
%"{closure@std::thread::Builder::spawn_unchecked_<'_, '_, {closure@data/SAFE-RUSTSEC-2020-0116.rs:19:32: 19:39}, ()>::{closure#1}}" = type { ptr, ptr, ptr, ptr }
%"core::result::Result<alloc::ffi::c_str::CString, alloc::ffi::c_str::NulError>::Ok" = type { [1 x i64], { ptr, i64 } }
%"alloc::sync::ArcInner<std::thread::scoped::ScopeData>" = type { %"core::sync::atomic::AtomicUsize", %"core::sync::atomic::AtomicUsize", %"std::thread::scoped::ScopeData" }
%"std::thread::scoped::ScopeData" = type { ptr, %"core::sync::atomic::AtomicUsize", %"core::sync::atomic::AtomicBool", [7 x i8] }
%"core::result::Result<std::sys::unix::thread::Thread, std::io::error::Error>::Ok" = type { [1 x i64], i64 }
%"core::ops::control_flow::ControlFlow<core::result::Result<core::convert::Infallible, std::io::error::Error>, std::sys::unix::thread::Thread>::Continue" = type { [1 x i64], i64 }
%"core::result::Result<std::sys::unix::thread::Thread, std::io::error::Error>::Err" = type { [1 x i64], ptr }
%"core::ops::control_flow::ControlFlow<core::result::Result<core::convert::Infallible, std::io::error::Error>, std::sys::unix::thread::Thread>::Break" = type { [1 x i64], ptr }
%"core::option::Option<core::ops::range::Range<usize>>" = type { i64, [2 x i64] }
%"std::panicking::try::Data<core::panic::unwind_safe::AssertUnwindSafe<{closure@std::thread::Builder::spawn_unchecked_<'_, '_, {closure@data/SAFE-RUSTSEC-2020-0116.rs:19:32: 19:39}, ()>::{closure#1}::{closure#0}}>, ()>" = type { [2 x i64] }
%"std::panicking::try::Data<core::panic::unwind_safe::AssertUnwindSafe<{closure@<std::thread::Packet<'_, ()> as core::ops::drop::Drop>::drop::{closure#0}}>, ()>" = type { [2 x i64] }
%"core::fmt::builders::DebugList<'_, '_>" = type { %"core::fmt::builders::DebugInner<'_, '_>" }
%"core::fmt::builders::DebugInner<'_, '_>" = type { ptr, i8, i8, [6 x i8] }
%"core::fmt::Formatter<'_>" = type { { i64, i64 }, { i64, i64 }, { ptr, ptr }, i32, i32, i8, [7 x i8] }
%"core::fmt::Arguments<'_>" = type { { ptr, i64 }, { ptr, i64 }, { ptr, i64 } }
%"core::option::Option<(core::ptr::non_null::NonNull<u8>, core::alloc::layout::Layout)>" = type { [1 x i64], i64, [1 x i64] }
%"std::sync::mutex::Mutex<alloc::vec::Vec<u8>>" = type { %"std::sys::unix::locks::pthread_mutex::Mutex", %"std::sync::poison::Flag", [7 x i8], %"core::cell::UnsafeCell<alloc::vec::Vec<u8>>" }
%"core::cell::UnsafeCell<alloc::vec::Vec<u8>>" = type { %"alloc::vec::Vec<u8>" }
%"alloc::sync::ArcInner<std::sync::mutex::Mutex<PinSlab<core::cell::Cell<i32>>>>" = type { %"core::sync::atomic::AtomicUsize", %"core::sync::atomic::AtomicUsize", %"std::sync::mutex::Mutex<PinSlab<core::cell::Cell<i32>>>" }
%"alloc::sync::ArcInner<std::sync::mutex::Mutex<alloc::vec::Vec<u8>>>" = type { %"core::sync::atomic::AtomicUsize", %"core::sync::atomic::AtomicUsize", %"std::sync::mutex::Mutex<alloc::vec::Vec<u8>>" }
%"alloc::sync::ArcInner<std::thread::Inner>" = type { %"core::sync::atomic::AtomicUsize", %"core::sync::atomic::AtomicUsize", %"std::thread::Inner" }
%"std::thread::Inner" = type { i64, { ptr, i64 }, %"std::sys::unix::thread_parking::darwin::Parker" }
%"std::sys::unix::thread_parking::darwin::Parker" = type { ptr, %"core::sync::atomic::AtomicI8", [7 x i8] }
%"core::sync::atomic::AtomicI8" = type { i8 }
%"core::ptr::metadata::PtrRepr<[core::cell::Cell<i32>]>" = type { [2 x i64] }
%"std::sys::unix::stdio::Stderr" = type { {} }
%"core::fmt::builders::DebugStruct<'_, '_>" = type { ptr, i8, i8, [6 x i8] }
%"std::io::error::ErrorData<alloc::boxed::Box<std::io::error::Custom>>" = type { i8, [15 x i8] }
%"core::result::Result<std::sync::mutex::MutexGuard<'_, PinSlab<core::cell::Cell<i32>>>, std::sync::poison::PoisonError<std::sync::mutex::MutexGuard<'_, PinSlab<core::cell::Cell<i32>>>>>" = type { i64, [2 x i64] }
%"std::thread::JoinHandle<()>" = type { %"std::thread::JoinInner<'_, ()>" }

@alloc_8d68fcbc011419193bd208f22e2789d1 = private unnamed_addr constant <{ [28 x i8] }> <{ [28 x i8] c"failed to write whole buffer" }>, align 1
@alloc_626cc8bfd6c94d404aa777557e31db63 = private unnamed_addr constant <{ ptr, [9 x i8], [7 x i8] }> <{ ptr @alloc_8d68fcbc011419193bd208f22e2789d1, [9 x i8] c"\1C\00\00\00\00\00\00\00\17", [7 x i8] undef }>, align 8
@alloc_2f83dfc9a60946d6dd4382ae2c85abff = private unnamed_addr constant <{ [73 x i8] }> <{ [73 x i8] c"/rustc/07dca489ac2d933c78d3c5158e3f43beefeb02ce/library/std/src/io/mod.rs" }>, align 1
@alloc_4281a0c14125330c5d3c45e00517e107 = private unnamed_addr constant <{ ptr, [16 x i8] }> <{ ptr @alloc_2f83dfc9a60946d6dd4382ae2c85abff, [16 x i8] c"I\00\00\00\00\00\00\00\8D\06\00\00$\00\00\00" }>, align 8
@vtable.0 = private unnamed_addr constant <{ ptr, [16 x i8], ptr, ptr, ptr }> <{ ptr @"_ZN4core3ptr92drop_in_place$LT$std..io..Write..write_fmt..Adapter$LT$std..sys..unix..stdio..Stderr$GT$$GT$17h60f6f2af5f3ab2d4E", [16 x i8] c"\10\00\00\00\00\00\00\00\08\00\00\00\00\00\00\00", ptr @"_ZN80_$LT$std..io..Write..write_fmt..Adapter$LT$T$GT$$u20$as$u20$core..fmt..Write$GT$9write_str17h27c7de9b75c5a76bE", ptr @_ZN4core3fmt5Write10write_char17hca6676bb476b3032E, ptr @_ZN4core3fmt5Write9write_fmt17h2214d48118ea778eE }>, align 8
@alloc_118e5dd62e18907a47aec3e2be501119 = private unnamed_addr constant <{ [15 x i8] }> <{ [15 x i8] c"formatter error" }>, align 1
@alloc_5d9af7a776dc0d9eecd628aaf786bef9 = private unnamed_addr constant <{ ptr, [9 x i8], [7 x i8] }> <{ ptr @alloc_118e5dd62e18907a47aec3e2be501119, [9 x i8] c"\0F\00\00\00\00\00\00\00(", [7 x i8] undef }>, align 8
@vtable.1 = private unnamed_addr constant <{ ptr, [16 x i8], ptr, ptr, ptr }> <{ ptr @"_ZN4core3ptr26drop_in_place$LT$usize$GT$17h939c4064a0041d5fE", [16 x i8] c"\08\00\00\00\00\00\00\00\08\00\00\00\00\00\00\00", ptr @"_ZN4core3ops8function6FnOnce40call_once$u7b$$u7b$vtable.shim$u7d$$u7d$17h92237a4898bed3f6E", ptr @"_ZN3std2rt10lang_start28_$u7b$$u7b$closure$u7d$$u7d$17h507a30a8d97e8affE", ptr @"_ZN3std2rt10lang_start28_$u7b$$u7b$closure$u7d$$u7d$17h507a30a8d97e8affE" }>, align 8
@alloc_5f55955de67e57c79064b537689facea = private unnamed_addr constant <{ [43 x i8] }> <{ [43 x i8] c"called `Option::unwrap()` on a `None` value" }>, align 1
@alloc_33b1e69a422a81942b7149db811cc384 = private unnamed_addr constant <{ [77 x i8] }> <{ [77 x i8] c"/rustc/07dca489ac2d933c78d3c5158e3f43beefeb02ce/library/std/src/thread/mod.rs" }>, align 1
@alloc_210632c49b2fd4ef0dc8e7c88d1b4c5b = private unnamed_addr constant <{ ptr, [16 x i8] }> <{ ptr @alloc_33b1e69a422a81942b7149db811cc384, [16 x i8] c"M\00\00\00\00\00\00\00\ED\05\00\00(\00\00\00" }>, align 8
@alloc_75b83b2c75f3b36b94a7518a66ad8875 = private unnamed_addr constant <{ ptr, [16 x i8] }> <{ ptr @alloc_33b1e69a422a81942b7149db811cc384, [16 x i8] c"M\00\00\00\00\00\00\00\ED\05\00\00I\00\00\00" }>, align 8
@alloc_e3605bf48dd8479a638909176cc37fce = private unnamed_addr constant <{ [22 x i8] }> <{ [22 x i8] c"failed to spawn thread" }>, align 1
@alloc_1f8c62d57f163807c7029893ad26ce72 = private unnamed_addr constant <{ ptr, [16 x i8] }> <{ ptr @alloc_33b1e69a422a81942b7149db811cc384, [16 x i8] c"M\00\00\00\00\00\00\00\AC\02\00\00\1D\00\00\00" }>, align 8
@alloc_498705839b3ae85466bce6e7ebfe4996 = private unnamed_addr constant <{ [47 x i8] }> <{ [47 x i8] c"thread name may not contain interior null bytes" }>, align 1
@alloc_10ce3643ab05b89124ccab86e25db141 = private unnamed_addr constant <{ ptr, [16 x i8] }> <{ ptr @alloc_33b1e69a422a81942b7149db811cc384, [16 x i8] c"M\00\00\00\00\00\00\00\DC\01\00\00 \00\00\00" }>, align 8
@vtable.2 = private unnamed_addr constant <{ ptr, [16 x i8], ptr }> <{ ptr @"_ZN4core3ptr164drop_in_place$LT$std..thread..Builder..spawn_unchecked_$LT$SAFE_RUSTSEC_2020_0116..main..$u7b$$u7b$closure$u7d$$u7d$$C$$LP$$RP$$GT$..$u7b$$u7b$closure$u7d$$u7d$$GT$17hbddd1f16c44af89aE", [16 x i8] c" \00\00\00\00\00\00\00\08\00\00\00\00\00\00\00", ptr @"_ZN4core3ops8function6FnOnce40call_once$u7b$$u7b$vtable.shim$u7d$$u7d$17hd0b07e447cbcefe9E" }>, align 8
@_ZN3std9panicking11panic_count18GLOBAL_PANIC_COUNT17hca5345081bf4881cE = external global %"core::sync::atomic::AtomicUsize"
@vtable.3 = private unnamed_addr constant <{ ptr, [16 x i8], ptr }> <{ ptr @"_ZN4core3ptr26drop_in_place$LT$usize$GT$17h939c4064a0041d5fE", [16 x i8] c"\08\00\00\00\00\00\00\00\08\00\00\00\00\00\00\00", ptr @"_ZN42_$LT$$RF$T$u20$as$u20$core..fmt..Debug$GT$3fmt17ha475a0539b65b617E" }>, align 8
@alloc_91c7fa63c3cfeaa3c795652d5cf060e4 = private unnamed_addr constant <{ [12 x i8] }> <{ [12 x i8] c"invalid args" }>, align 1
@alloc_af99043bc04c419363a7f04d23183506 = private unnamed_addr constant <{ ptr, [8 x i8] }> <{ ptr @alloc_91c7fa63c3cfeaa3c795652d5cf060e4, [8 x i8] c"\0C\00\00\00\00\00\00\00" }>, align 8
@alloc_513570631223a12912d85da2bec3b15a = private unnamed_addr constant <{}> zeroinitializer, align 8
@alloc_4243f84a3a879718e5490fe547b0ab9c = private unnamed_addr constant <{ [75 x i8] }> <{ [75 x i8] c"/rustc/07dca489ac2d933c78d3c5158e3f43beefeb02ce/library/core/src/fmt/mod.rs" }>, align 1
@alloc_5f330cd7dff757941d785f386d839300 = private unnamed_addr constant <{ ptr, [16 x i8] }> <{ ptr @alloc_4243f84a3a879718e5490fe547b0ab9c, [16 x i8] c"K\00\00\00\00\00\00\00M\01\00\00\0D\00\00\00" }>, align 8
@alloc_87aade1e32141a008cc1d76d37ad88ac = private unnamed_addr constant <{ [80 x i8] }> <{ [80 x i8] c"/rustc/07dca489ac2d933c78d3c5158e3f43beefeb02ce/library/core/src/char/methods.rs" }>, align 1
@alloc_6a0114d2661e84bef3991f7200e47da8 = private unnamed_addr constant <{ ptr, [16 x i8] }> <{ ptr @alloc_87aade1e32141a008cc1d76d37ad88ac, [16 x i8] c"P\00\00\00\00\00\00\00\05\07\00\00\0D\00\00\00" }>, align 8
@alloc_6b031f9bca8204235732c7c365d04a1d = private unnamed_addr constant <{ [18 x i8] }> <{ [18 x i8] c"encode_utf8: need " }>, align 1
@alloc_28d13efb0f9a95ccb5d02ec33dd195cf = private unnamed_addr constant <{ [19 x i8] }> <{ [19 x i8] c" bytes to encode U+" }>, align 1
@alloc_0d928972d2befd736e581c7fcc5a2f9a = private unnamed_addr constant <{ [21 x i8] }> <{ [21 x i8] c", but the buffer has " }>, align 1
@alloc_d51214f097f67314513b76e97e13aa6b = private unnamed_addr constant <{ ptr, [8 x i8], ptr, [8 x i8], ptr, [8 x i8] }> <{ ptr @alloc_6b031f9bca8204235732c7c365d04a1d, [8 x i8] c"\12\00\00\00\00\00\00\00", ptr @alloc_28d13efb0f9a95ccb5d02ec33dd195cf, [8 x i8] c"\13\00\00\00\00\00\00\00", ptr @alloc_0d928972d2befd736e581c7fcc5a2f9a, [8 x i8] c"\15\00\00\00\00\00\00\00" }>, align 8
@alloc_15e56ccbce15945ea86b75a3c6d59ec8 = private unnamed_addr constant <{ ptr, [16 x i8] }> <{ ptr @alloc_87aade1e32141a008cc1d76d37ad88ac, [16 x i8] c"P\00\00\00\00\00\00\00\FE\06\00\00\0E\00\00\00" }>, align 8
@alloc_9cd20c3e415f4d39f0ceb012cb758628 = private unnamed_addr constant <{ [40 x i8] }> <{ [40 x i8] c"there is no such thing as a release load" }>, align 1
@alloc_cf8f91dd8bc9347b20052f6ccc905cd7 = private unnamed_addr constant <{ ptr, [8 x i8] }> <{ ptr @alloc_9cd20c3e415f4d39f0ceb012cb758628, [8 x i8] c"(\00\00\00\00\00\00\00" }>, align 8
@alloc_6c138c94c234ed7dfd455fcb63eead43 = private unnamed_addr constant <{ [79 x i8] }> <{ [79 x i8] c"/rustc/07dca489ac2d933c78d3c5158e3f43beefeb02ce/library/core/src/sync/atomic.rs" }>, align 1
@alloc_4c32346d01eeb3c0619dc95e0468893e = private unnamed_addr constant <{ ptr, [16 x i8] }> <{ ptr @alloc_6c138c94c234ed7dfd455fcb63eead43, [16 x i8] c"O\00\00\00\00\00\00\00\DB\0C\00\00\18\00\00\00" }>, align 8
@alloc_96ab912d0054b46da785b206a96c9a45 = private unnamed_addr constant <{ [49 x i8] }> <{ [49 x i8] c"there is no such thing as an acquire-release load" }>, align 1
@alloc_7e8e9a1d4bc7d0bbec692f0a50681e22 = private unnamed_addr constant <{ ptr, [8 x i8] }> <{ ptr @alloc_96ab912d0054b46da785b206a96c9a45, [8 x i8] c"1\00\00\00\00\00\00\00" }>, align 8
@alloc_93c532d79ae5a1fe4b07989efd8a35e4 = private unnamed_addr constant <{ ptr, [16 x i8] }> <{ ptr @alloc_6c138c94c234ed7dfd455fcb63eead43, [16 x i8] c"O\00\00\00\00\00\00\00\DC\0C\00\00\17\00\00\00" }>, align 8
@alloc_bf39103a6db665396aab4632362d9353 = private unnamed_addr constant <{ [42 x i8] }> <{ [42 x i8] c"there is no such thing as an acquire store" }>, align 1
@alloc_47c752ba42fbab56d43a37cfd56e4899 = private unnamed_addr constant <{ ptr, [8 x i8] }> <{ ptr @alloc_bf39103a6db665396aab4632362d9353, [8 x i8] c"*\00\00\00\00\00\00\00" }>, align 8
@alloc_cb63d255000c7e9fed7db8f9c4b60326 = private unnamed_addr constant <{ ptr, [16 x i8] }> <{ ptr @alloc_6c138c94c234ed7dfd455fcb63eead43, [16 x i8] c"O\00\00\00\00\00\00\00\CC\0C\00\00\18\00\00\00" }>, align 8
@alloc_00c0bce0fa6327f8ec8e69d6d765d508 = private unnamed_addr constant <{ [50 x i8] }> <{ [50 x i8] c"there is no such thing as an acquire-release store" }>, align 1
@alloc_f8dbac861f87e25e445761cc4af66745 = private unnamed_addr constant <{ ptr, [8 x i8] }> <{ ptr @alloc_00c0bce0fa6327f8ec8e69d6d765d508, [8 x i8] c"2\00\00\00\00\00\00\00" }>, align 8
@alloc_2061bd2e099bb1065f735aed396f79a4 = private unnamed_addr constant <{ ptr, [16 x i8] }> <{ ptr @alloc_6c138c94c234ed7dfd455fcb63eead43, [16 x i8] c"O\00\00\00\00\00\00\00\CD\0C\00\00\17\00\00\00" }>, align 8
@alloc_5a43f8d94dd4505c1dba43832ce73af8 = private unnamed_addr constant <{ [52 x i8] }> <{ [52 x i8] c"there is no such thing as a release failure ordering" }>, align 1
@alloc_04ab601c54c6e0a22ff11d72dc7f4511 = private unnamed_addr constant <{ ptr, [8 x i8] }> <{ ptr @alloc_5a43f8d94dd4505c1dba43832ce73af8, [8 x i8] c"4\00\00\00\00\00\00\00" }>, align 8
@alloc_826fa8dc4bf9d95988bea67cf29fdc26 = private unnamed_addr constant <{ ptr, [16 x i8] }> <{ ptr @alloc_6c138c94c234ed7dfd455fcb63eead43, [16 x i8] c"O\00\00\00\00\00\00\000\0D\00\00\1D\00\00\00" }>, align 8
@alloc_7adef5546d83b439c7829602020737c6 = private unnamed_addr constant <{ [61 x i8] }> <{ [61 x i8] c"there is no such thing as an acquire-release failure ordering" }>, align 1
@alloc_dd7d8f77c173bf31726eae321f955bec = private unnamed_addr constant <{ ptr, [8 x i8] }> <{ ptr @alloc_7adef5546d83b439c7829602020737c6, [8 x i8] c"=\00\00\00\00\00\00\00" }>, align 8
@alloc_69680bf1a9adc0c1931d0dbd2195eaef = private unnamed_addr constant <{ ptr, [16 x i8] }> <{ ptr @alloc_6c138c94c234ed7dfd455fcb63eead43, [16 x i8] c"O\00\00\00\00\00\00\00/\0D\00\00\1C\00\00\00" }>, align 8
@alloc_a65db75132b92a882fd01eb367d64c4a = private unnamed_addr constant <{ [80 x i8] }> <{ [80 x i8] c"/rustc/07dca489ac2d933c78d3c5158e3f43beefeb02ce/library/core/src/slice/memchr.rs" }>, align 1
@alloc_5bc1b291dae9b898876d4e4c4a53a140 = private unnamed_addr constant <{ ptr, [16 x i8] }> <{ ptr @alloc_a65db75132b92a882fd01eb367d64c4a, [16 x i8] c"P\00\00\00\00\00\00\00+\00\00\00\0C\00\00\00" }>, align 8
@vtable.4 = private unnamed_addr constant <{ ptr, [16 x i8], ptr }> <{ ptr @"_ZN4core3ptr48drop_in_place$LT$alloc..ffi..c_str..NulError$GT$17hfbb21b6797d7dde3E", [16 x i8] c" \00\00\00\00\00\00\00\08\00\00\00\00\00\00\00", ptr @"_ZN64_$LT$alloc..ffi..c_str..NulError$u20$as$u20$core..fmt..Debug$GT$3fmt17ha0e8ad16afccb9dbE" }>, align 8
@vtable.5 = private unnamed_addr constant <{ ptr, [16 x i8], ptr }> <{ ptr @"_ZN4core3ptr42drop_in_place$LT$std..io..error..Error$GT$17hf10971cd02fbdd39E", [16 x i8] c"\08\00\00\00\00\00\00\00\08\00\00\00\00\00\00\00", ptr @"_ZN58_$LT$std..io..error..Error$u20$as$u20$core..fmt..Debug$GT$3fmt17hebd0cc014ce90354E" }>, align 8
@alloc_00ae4b301f7fab8ac9617c03fcbd7274 = private unnamed_addr constant <{ [43 x i8] }> <{ [43 x i8] c"called `Result::unwrap()` on an `Err` value" }>, align 1
@vtable.6 = private unnamed_addr constant <{ ptr, [16 x i8], ptr }> <{ ptr @"_ZN4core3ptr91drop_in_place$LT$alloc..boxed..Box$LT$dyn$u20$core..any..Any$u2b$core..marker..Send$GT$$GT$17hadf7a9e5b1b4939eE", [16 x i8] c"\10\00\00\00\00\00\00\00\08\00\00\00\00\00\00\00", ptr @"_ZN67_$LT$alloc..boxed..Box$LT$T$C$A$GT$$u20$as$u20$core..fmt..Debug$GT$3fmt17h2e81bc908d08d8fbE" }>, align 8
@vtable.7 = private unnamed_addr constant <{ ptr, [16 x i8], ptr }> <{ ptr @"_ZN4core3ptr161drop_in_place$LT$std..sync..poison..PoisonError$LT$std..sync..mutex..MutexGuard$LT$SAFE_RUSTSEC_2020_0116..PinSlab$LT$core..cell..Cell$LT$i32$GT$$GT$$GT$$GT$$GT$17he6e13851cfd370a5E", [16 x i8] c"\10\00\00\00\00\00\00\00\08\00\00\00\00\00\00\00", ptr @"_ZN76_$LT$std..sync..poison..PoisonError$LT$T$GT$$u20$as$u20$core..fmt..Debug$GT$3fmt17h6be8056ff1bd343bE" }>, align 8
@__rust_no_alloc_shim_is_unstable = external global i8
@alloc_49c0eff15ce41ce22a2d8c8b146a94ef = private unnamed_addr constant <{ [8 x i8] }> <{ [8 x i8] c"NulError" }>, align 1
@vtable.8 = private unnamed_addr constant <{ ptr, [16 x i8], ptr }> <{ ptr @"_ZN4core3ptr26drop_in_place$LT$usize$GT$17h939c4064a0041d5fE", [16 x i8] c"\08\00\00\00\00\00\00\00\08\00\00\00\00\00\00\00", ptr @"_ZN4core3fmt3num52_$LT$impl$u20$core..fmt..Debug$u20$for$u20$usize$GT$3fmt17he0ac9809a087b55cE" }>, align 8
@vtable.9 = private unnamed_addr constant <{ ptr, [16 x i8], ptr }> <{ ptr @"_ZN4core3ptr26drop_in_place$LT$usize$GT$17h939c4064a0041d5fE", [16 x i8] c"\08\00\00\00\00\00\00\00\08\00\00\00\00\00\00\00", ptr @"_ZN42_$LT$$RF$T$u20$as$u20$core..fmt..Debug$GT$3fmt17h22624cf4458a0836E" }>, align 8
@alloc_3b99cf3889855522042186bfbc89cd01 = private unnamed_addr constant <{ [52 x i8] }> <{ [52 x i8] c"fatal runtime error: thread result panicked on drop\0A" }>, align 1
@alloc_2ca7775364e940040d1ca01e1c1e4d62 = private unnamed_addr constant <{ ptr, [8 x i8] }> <{ ptr @alloc_3b99cf3889855522042186bfbc89cd01, [8 x i8] c"4\00\00\00\00\00\00\00" }>, align 8
@alloc_8e2410b80645266732854088d21653bc = private unnamed_addr constant <{ [11 x i8] }> <{ [11 x i8] c"PoisonError" }>, align 1
@alloc_bfa60392419e95fe780d289b8a5d6da7 = private unnamed_addr constant <{ [30 x i8] }> <{ [30 x i8] c"data/SAFE-RUSTSEC-2020-0116.rs" }>, align 1
@alloc_db0ef472232dcfbaff48ab6b7a8aaf62 = private unnamed_addr constant <{ ptr, [16 x i8] }> <{ ptr @alloc_bfa60392419e95fe780d289b8a5d6da7, [16 x i8] c"\1E\00\00\00\00\00\00\00\18\00\00\00\1D\00\00\00" }>, align 8
@alloc_560340c9e2f34764ea1b76dd76ce7530 = private unnamed_addr constant <{ ptr, [16 x i8] }> <{ ptr @alloc_bfa60392419e95fe780d289b8a5d6da7, [16 x i8] c"\1E\00\00\00\00\00\00\00\19\00\00\00\0F\00\00\00" }>, align 8
@alloc_c5a3e5decae8812fe41f8ceb78fc462f = private unnamed_addr constant <{ ptr, [16 x i8] }> <{ ptr @alloc_bfa60392419e95fe780d289b8a5d6da7, [16 x i8] c"\1E\00\00\00\00\00\00\00\1C\00\00\00\13\00\00\00" }>, align 8
@alloc_32f32915f62497d48a95f694f40d34d7 = private unnamed_addr constant <{ ptr, [16 x i8] }> <{ ptr @alloc_bfa60392419e95fe780d289b8a5d6da7, [16 x i8] c"\1E\00\00\00\00\00\00\00\14\00\00\00'\00\00\00" }>, align 8
@alloc_0269347838c2826e619adfe92320408c = private unnamed_addr constant <{ ptr, [16 x i8] }> <{ ptr @alloc_bfa60392419e95fe780d289b8a5d6da7, [16 x i8] c"\1E\00\00\00\00\00\00\00\15\00\00\00\13\00\00\00" }>, align 8

; <std::thread::Builder::spawn_unchecked_::MaybeDangling<T> as core::ops::drop::Drop>::drop
; Function Attrs: nounwind
define internal fastcc void @"_ZN104_$LT$std..thread..Builder..spawn_unchecked_..MaybeDangling$LT$T$GT$$u20$as$u20$core..ops..drop..Drop$GT$4drop17h7ade9643b50a370aE"(ptr align 8 %self) unnamed_addr #0 !dbg !7 {
start:
; call core::ptr::drop_in_place<SAFE_RUSTSEC_2020_0116::main::{{closure}}>
  call fastcc void @"_ZN4core3ptr78drop_in_place$LT$SAFE_RUSTSEC_2020_0116..main..$u7b$$u7b$closure$u7d$$u7d$$GT$17hb69a9a9ec89df80eE"(ptr align 8 %self) #30, !dbg !16
  ret void, !dbg !27
}

; <core::ops::range::Range<usize> as core::slice::index::SliceIndex<[T]>>::index_mut
; Function Attrs: inlinehint nounwind
define internal fastcc { ptr, i64 } @"_ZN106_$LT$core..ops..range..Range$LT$usize$GT$$u20$as$u20$core..slice..index..SliceIndex$LT$$u5b$T$u5d$$GT$$GT$9index_mut17had77882a4e0aeb23E"(i64 %self.0, i64 %self.1, ptr align 1 %slice.0, i64 %slice.1, ptr align 8 %arg) unnamed_addr #1 !dbg !28 {
start:
  %_24 = alloca { ptr, i64 }, align 8
  %_23 = alloca %"core::ptr::metadata::PtrRepr<[u8]>", align 8
  %_3 = icmp ugt i64 %self.0, %self.1, !dbg !33
  br i1 %_3, label %bb1, label %bb2, !dbg !33

bb2:                                              ; preds = %start
  %_9 = icmp ugt i64 %self.1, %slice.1, !dbg !34
  br i1 %_9, label %bb3, label %bb4, !dbg !34

bb1:                                              ; preds = %start
; call core::slice::index::slice_index_order_fail
  call void @_ZN4core5slice5index22slice_index_order_fail17h3236aed2d4ea8483E(i64 %self.0, i64 %self.1, ptr align 8 %arg) #31, !dbg !35
  unreachable

bb4:                                              ; preds = %bb2
  %new_len = sub nuw i64 %self.1, %self.0, !dbg !36
  %data = getelementptr inbounds i8, ptr %slice.0, i64 %self.0, !dbg !42
  store ptr %data, ptr %_24, align 8, !dbg !52
  %i = getelementptr inbounds { ptr, i64 }, ptr %_24, i32 0, i32 1, !dbg !52
  store i64 %new_len, ptr %i, align 8, !dbg !52
  store ptr %data, ptr %_23, align 8, !dbg !63
  %i4 = getelementptr inbounds { ptr, i64 }, ptr %_23, i32 0, i32 1, !dbg !63
  store i64 %new_len, ptr %i4, align 8, !dbg !63
  %i6 = insertvalue { ptr, i64 } poison, ptr %data, 0, !dbg !64
  %i7 = insertvalue { ptr, i64 } %i6, i64 %new_len, 1, !dbg !64
  ret { ptr, i64 } %i7, !dbg !64

bb3:                                              ; preds = %bb2
; call core::slice::index::slice_end_index_len_fail
  call void @_ZN4core5slice5index24slice_end_index_len_fail17h9f0fa500c3890a27E(i64 %self.1, i64 %slice.1, ptr align 8 %arg) #31, !dbg !65
  unreachable
}

; <core::panic::unwind_safe::AssertUnwindSafe<F> as core::ops::function::FnOnce<()>>::call_once
; Function Attrs: inlinehint nounwind
define internal fastcc void @"_ZN115_$LT$core..panic..unwind_safe..AssertUnwindSafe$LT$F$GT$$u20$as$u20$core..ops..function..FnOnce$LT$$LP$$RP$$GT$$GT$9call_once17h74c2387fc1a3a8ebE"(ptr %self) unnamed_addr #1 !dbg !66 {
start:
; call std::thread::Builder::spawn_unchecked_::{{closure}}::{{closure}}
  call fastcc void @"_ZN3std6thread7Builder16spawn_unchecked_28_$u7b$$u7b$closure$u7d$$u7d$28_$u7b$$u7b$closure$u7d$$u7d$17h092cb50209e8e619E"(ptr %self) #30, !dbg !71
  ret void, !dbg !72
}

; <core::panic::unwind_safe::AssertUnwindSafe<F> as core::ops::function::FnOnce<()>>::call_once
; Function Attrs: inlinehint nounwind
define internal fastcc void @"_ZN115_$LT$core..panic..unwind_safe..AssertUnwindSafe$LT$F$GT$$u20$as$u20$core..ops..function..FnOnce$LT$$LP$$RP$$GT$$GT$9call_once17he3970fcae4a74d6cE"(ptr align 8 %self) unnamed_addr #1 !dbg !73 {
start:
; call core::ops::function::FnOnce::call_once
  call fastcc void @_ZN4core3ops8function6FnOnce9call_once17h8b463785b7c1daefE(ptr align 8 %self) #30, !dbg !74
  ret void, !dbg !75
}

; std::sys_common::lazy_box::LazyBox<T>::initialize
; Function Attrs: cold nounwind
define internal fastcc ptr @"_ZN3std10sys_common8lazy_box16LazyBox$LT$T$GT$10initialize17h773b049e9f4ac0a2E"(ptr nocapture align 8 %self) unnamed_addr #2 !dbg !76 {
start:
  %_31 = alloca ptr, align 8
  %_30 = alloca ptr, align 8
  %_25 = alloca %"core::ptr::metadata::PtrComponents<std::sys::unix::locks::pthread_mutex::AllocatedMutex>", align 8
  %_24 = alloca %"core::ptr::metadata::PtrRepr<std::sys::unix::locks::pthread_mutex::AllocatedMutex>", align 8
  %leaked = alloca ptr, align 8
  %_17 = alloca ptr, align 8
  %b = alloca ptr, align 8
  %_9 = alloca ptr, align 8
  %_3 = alloca { i64, ptr }, align 8
  %_0 = alloca ptr, align 8
; call <std::sys::unix::locks::pthread_mutex::AllocatedMutex as std::sys_common::lazy_box::LazyInit>::init
  %b1 = call align 8 ptr @"_ZN108_$LT$std..sys..unix..locks..pthread_mutex..AllocatedMutex$u20$as$u20$std..sys_common..lazy_box..LazyInit$GT$4init17h1188917c1d87ccd9E"() #30, !dbg !81
  store ptr %b1, ptr %b, align 8, !dbg !82
  store ptr %b1, ptr %_17, align 8, !dbg !93
  store ptr %b1, ptr %leaked, align 8, !dbg !108
  store ptr null, ptr %_25, align 8, !dbg !122
  call void @llvm.memcpy.p0.p0.i64(ptr align 8 %_24, ptr align 8 %_25, i64 8, i1 false), !dbg !131
  %current = load ptr, ptr %_24, align 8, !dbg !131, !noundef !15
; call core::sync::atomic::atomic_compare_exchange
  %i = call fastcc { i64, ptr } @_ZN4core4sync6atomic23atomic_compare_exchange17h4e46dcf2633c0122E(ptr %self, ptr %current, ptr %b1, i8 3, i8 2) #30, !dbg !132
  store { i64, ptr } %i, ptr %_3, align 8, !dbg !132
  %_6 = load i64, ptr %_3, align 8, !dbg !141, !range !142, !noundef !15
  %i4 = icmp ne i64 %_6, 0, !dbg !143
  br i1 %i4, label %bb1, label %Flow, !dbg !143

Flow:                                             ; preds = %bb1, %start
  %0 = phi ptr [ %ptr, %bb1 ], [ undef, %start ]
  %1 = phi i1 [ false, %bb1 ], [ true, %start ], !dbg !143
  br i1 %1, label %bb3, label %bb5, !dbg !143

bb3:                                              ; preds = %Flow
  store ptr %b1, ptr %_0, align 8, !dbg !144
  br label %bb5, !dbg !144

bb1:                                              ; preds = %start
  %i5 = getelementptr inbounds { i64, ptr }, ptr %_3, i32 0, i32 1, !dbg !145
  %ptr = load ptr, ptr %i5, align 8, !dbg !145, !noundef !15
  store ptr %b1, ptr %_31, align 8, !dbg !146
  store ptr %b1, ptr %_30, align 8, !dbg !168
  store ptr %b1, ptr %_9, align 8, !dbg !169
; call <std::sys::unix::locks::pthread_mutex::AllocatedMutex as std::sys_common::lazy_box::LazyInit>::cancel_init
  call void @"_ZN108_$LT$std..sys..unix..locks..pthread_mutex..AllocatedMutex$u20$as$u20$std..sys_common..lazy_box..LazyInit$GT$11cancel_init17h0036b6b60396e515E"(ptr align 8 %b1) #30, !dbg !170
  store ptr %ptr, ptr %_0, align 8, !dbg !171
  br label %Flow, !dbg !172

bb5:                                              ; preds = %bb3, %Flow
  %i9 = phi ptr [ %0, %Flow ], [ %b1, %bb3 ], !dbg !173
  ret ptr %i9, !dbg !173
}

; std::sys_common::lazy_box::LazyBox<T>::get_pointer
; Function Attrs: inlinehint nounwind
define internal fastcc ptr @"_ZN3std10sys_common8lazy_box16LazyBox$LT$T$GT$11get_pointer17h27336f70a406d400E"(ptr nocapture align 8 %self) unnamed_addr #1 !dbg !174 {
start:
  %_0 = alloca ptr, align 8
; call core::sync::atomic::atomic_load
  %ptr = call fastcc ptr @_ZN4core4sync6atomic11atomic_load17hf0c380524e307fa1E(ptr %self, i8 2) #30, !dbg !175
  %_10 = ptrtoint ptr %ptr to i64, !dbg !180
  %i = icmp ne i64 %_10, 0, !dbg !194
  br i1 %i, label %bb2, label %Flow, !dbg !194

Flow:                                             ; preds = %bb2, %start
  %0 = phi i1 [ false, %bb2 ], [ true, %start ], !dbg !194
  br i1 %0, label %bb1, label %bb3, !dbg !194

bb1:                                              ; preds = %Flow
; call std::sys_common::lazy_box::LazyBox<T>::initialize
  %i1 = call fastcc ptr @"_ZN3std10sys_common8lazy_box16LazyBox$LT$T$GT$10initialize17h773b049e9f4ac0a2E"(ptr align 8 %self) #30, !dbg !195
  store ptr %i1, ptr %_0, align 8, !dbg !195
  br label %bb3, !dbg !195

bb2:                                              ; preds = %start
  store ptr %ptr, ptr %_0, align 8, !dbg !196
  br label %Flow, !dbg !197

bb3:                                              ; preds = %bb1, %Flow
  %i2 = phi ptr [ %ptr, %Flow ], [ %i1, %bb1 ], !dbg !198
  ret ptr %i2, !dbg !198
}

; std::sys_common::backtrace::__rust_begin_short_backtrace
; Function Attrs: noinline nounwind
define internal fastcc void @_ZN3std10sys_common9backtrace28__rust_begin_short_backtrace17h182728ced7341149E(ptr nocapture readonly %f) unnamed_addr #3 !dbg !199 {
start:
; call core::ops::function::FnOnce::call_once
  call fastcc void @_ZN4core3ops8function6FnOnce9call_once17h603ea8c84fce9c07E(ptr %f) #30, !dbg !202
  call void asm sideeffect "", "~{memory}"(), !dbg !203, !srcloc !210
  ret void, !dbg !211
}

; std::sys_common::backtrace::__rust_begin_short_backtrace
; Function Attrs: noinline nounwind
define internal fastcc void @_ZN3std10sys_common9backtrace28__rust_begin_short_backtrace17h5df54eb2e93d1f16E(ptr %f) unnamed_addr #3 !dbg !212 {
start:
; call SAFE_RUSTSEC_2020_0116::main::{{closure}}
  call fastcc void @"_ZN22SAFE_RUSTSEC_2020_01164main28_$u7b$$u7b$closure$u7d$$u7d$17h63142acf63e31a78E"(ptr %f) #30, !dbg !213
  call void asm sideeffect "", "~{memory}"(), !dbg !214, !srcloc !210
  ret void, !dbg !219
}

; std::io::Write::write_all
; Function Attrs: nounwind
define internal fastcc ptr @_ZN3std2io5Write9write_all17hd93f47dfb7dd14edE(ptr align 1 %self, ptr align 1 %arg, i64 %arg5) unnamed_addr #0 personality ptr @rust_eh_personality !dbg !220 {
start:
  %_41 = alloca { ptr, i64 }, align 8
  %_40 = alloca %"core::ptr::metadata::PtrRepr<[u8]>", align 8
  %_34 = alloca %"core::ptr::metadata::PtrRepr<[u8]>", align 8
  %_22 = alloca ptr, align 8
  %_21 = alloca ptr, align 8
  %e = alloca ptr, align 8
  %_7 = alloca ptr, align 8
  %_4 = alloca %"core::result::Result<usize, std::io::error::Error>", align 8
  %_0 = alloca ptr, align 8
  %buf = alloca { ptr, i64 }, align 8
  store ptr %arg, ptr %buf, align 8
  %i = getelementptr inbounds { ptr, i64 }, ptr %buf, i32 0, i32 1
  store i64 %arg5, ptr %i, align 8
  br label %bb1, !dbg !224

bb1:                                              ; preds = %bb16, %start
  %self.12 = phi i64 [ %_5.136, %bb16 ], [ %arg5, %start ]
  %self.01 = phi ptr [ %_5.034, %bb16 ], [ %arg, %start ]
  %i7 = icmp eq i64 %self.12, 0, !dbg !225
  br i1 %i7, label %bb2, label %bb3, !dbg !225

bb2:                                              ; preds = %bb1
  store ptr null, ptr %_0, align 8, !dbg !226
  br label %bb14, !dbg !227

bb3:                                              ; preds = %bb1
; call <std::sys::unix::stdio::Stderr as std::io::Write>::write
  call void @"_ZN64_$LT$std..sys..unix..stdio..Stderr$u20$as$u20$std..io..Write$GT$5write17h79c4d312e595bc94E"(ptr sret(%"core::result::Result<usize, std::io::error::Error>") align 8 %_4, ptr align 1 %self, ptr align 1 %self.01, i64 %self.12) #30, !dbg !228
  %_6 = load i64, ptr %_4, align 8, !dbg !228, !range !142, !noundef !15
  %i9 = icmp eq i64 %_6, 0, !dbg !229
  br i1 %i9, label %bb5, label %bb9, !dbg !229

bb14:                                             ; preds = %bb7, %bb12, %bb2
  %i10 = phi ptr [ @alloc_626cc8bfd6c94d404aa777557e31db63, %bb7 ], [ %e4, %bb12 ], [ null, %bb2 ], !dbg !227
  ret ptr %i10, !dbg !227

bb5:                                              ; preds = %bb3
  %i11 = getelementptr inbounds %"core::result::Result<usize, std::io::error::Error>::Ok", ptr %_4, i32 0, i32 1, !dbg !229
  %i12 = load i64, ptr %i11, align 8, !dbg !229, !noundef !15
  %i13 = icmp eq i64 %i12, 0, !dbg !229
  br i1 %i13, label %bb7, label %bb8, !dbg !229

bb9:                                              ; preds = %bb3
  %i14 = getelementptr inbounds %"core::result::Result<usize, std::io::error::Error>::Err", ptr %_4, i32 0, i32 1, !dbg !230
  store ptr %i14, ptr %e, align 8, !dbg !230
  %i14.val = load ptr, ptr %i14, align 8, !dbg !231, !nonnull !15, !noundef !15
; call std::io::error::Error::is_interrupted
  %_13 = call fastcc zeroext i1 @_ZN3std2io5error5Error14is_interrupted17hd41411d6e5197455E(ptr %i14.val) #30, !dbg !231
  br i1 %_13, label %bb9.bb19_crit_edge, label %bb12, !dbg !231

bb9.bb19_crit_edge:                               ; preds = %bb9
  %_18.pre = load i64, ptr %_4, align 8, !dbg !232, !range !142
  br label %bb19, !dbg !231

bb7:                                              ; preds = %bb5
  store ptr @alloc_626cc8bfd6c94d404aa777557e31db63, ptr %_22, align 8, !dbg !233
  store ptr @alloc_626cc8bfd6c94d404aa777557e31db63, ptr %_21, align 8, !dbg !252
  store ptr @alloc_626cc8bfd6c94d404aa777557e31db63, ptr %_7, align 8, !dbg !253
  store ptr @alloc_626cc8bfd6c94d404aa777557e31db63, ptr %_0, align 8, !dbg !254
  br label %bb14, !dbg !255

bb8:                                              ; preds = %bb5
  %_27 = icmp ugt i64 %i12, %self.12, !dbg !258
  br i1 %_27, label %bb23, label %bb24, !dbg !258

bb24:                                             ; preds = %bb8
  store ptr %self.01, ptr %_34, align 8, !dbg !268
  %i20 = getelementptr inbounds { ptr, i64 }, ptr %_34, i32 0, i32 1, !dbg !268
  store i64 %self.12, ptr %i20, align 8, !dbg !268
  %new_len = sub nuw i64 %self.12, %i12, !dbg !284
  %data = getelementptr inbounds i8, ptr %self.01, i64 %i12, !dbg !289
  store ptr %data, ptr %_41, align 8, !dbg !296
  %i22 = getelementptr inbounds { ptr, i64 }, ptr %_41, i32 0, i32 1, !dbg !296
  store i64 %new_len, ptr %i22, align 8, !dbg !296
  store ptr %data, ptr %_40, align 8, !dbg !304
  %i26 = getelementptr inbounds { ptr, i64 }, ptr %_40, i32 0, i32 1, !dbg !304
  store i64 %new_len, ptr %i26, align 8, !dbg !304
  store ptr %data, ptr %buf, align 8, !dbg !305
  store i64 %new_len, ptr %i, align 8, !dbg !305
  br label %bb19, !dbg !306

bb23:                                             ; preds = %bb8
; call core::slice::index::slice_start_index_len_fail
  call void @_ZN4core5slice5index26slice_start_index_len_fail17h351789050da2256fE(i64 %i12, i64 %self.12, ptr align 8 @alloc_4281a0c14125330c5d3c45e00517e107) #31, !dbg !307
  unreachable, !dbg !307

bb19:                                             ; preds = %bb9.bb19_crit_edge, %bb24
  %_18 = phi i64 [ %_18.pre, %bb9.bb19_crit_edge ], [ 0, %bb24 ], !dbg !232
  %_5.136 = phi i64 [ %self.12, %bb9.bb19_crit_edge ], [ %new_len, %bb24 ]
  %_5.034 = phi ptr [ %self.01, %bb9.bb19_crit_edge ], [ %data, %bb24 ]
  %i29 = icmp eq i64 %_18, 1, !dbg !232
  br i1 %i29, label %bb18, label %bb16, !dbg !232

bb12:                                             ; preds = %bb9
  %e4 = load ptr, ptr %i14, align 8, !dbg !308, !nonnull !15, !noundef !15
  store ptr %e4, ptr %_0, align 8, !dbg !309
  br label %bb14, !dbg !255

bb16:                                             ; preds = %bb18, %bb19
  br label %bb1, !dbg !224

bb18:                                             ; preds = %bb19
  %i31 = getelementptr inbounds %"core::result::Result<usize, std::io::error::Error>::Err", ptr %_4, i32 0, i32 1, !dbg !232
; call core::ptr::drop_in_place<std::io::error::Error>
  call void @"_ZN4core3ptr42drop_in_place$LT$std..io..error..Error$GT$17hf10971cd02fbdd39E"(ptr align 8 %i31) #30, !dbg !232
  br label %bb16, !dbg !232
}

; std::io::Write::write_fmt
; Function Attrs: nounwind
define internal fastcc ptr @_ZN3std2io5Write9write_fmt17h715bccfa2ae5b984E(ptr align 1 %self, ptr align 8 %fmt) unnamed_addr #0 personality ptr @rust_eh_personality !dbg !311 {
start:
  %_16 = alloca ptr, align 8
  %_15 = alloca ptr, align 8
  %_12 = alloca i8, align 1
  %_10 = alloca ptr, align 8
  %_4 = alloca i8, align 1
  %output = alloca { ptr, ptr }, align 8
  %_0 = alloca ptr, align 8
  store i8 1, ptr %_12, align 1, !dbg !312
  store ptr %self, ptr %output, align 8, !dbg !312
  %i = getelementptr inbounds { ptr, ptr }, ptr %output, i32 0, i32 1, !dbg !312
  store ptr null, ptr %i, align 8, !dbg !312
; call core::fmt::write
  %i2 = call zeroext i1 @_ZN4core3fmt5write17h30346430340bc336E(ptr align 1 %output, ptr align 8 @vtable.0, ptr align 8 %fmt) #30, !dbg !313
  %i3 = zext i1 %i2 to i8, !dbg !313
  store i8 %i3, ptr %_4, align 1, !dbg !313
  br i1 %i2, label %bb2, label %Flow27, !dbg !315

Flow27:                                           ; preds = %Flow26, %start
  %0 = phi i1 [ %3, %Flow26 ], [ undef, %start ]
  %1 = phi ptr [ %4, %Flow26 ], [ undef, %start ]
  %2 = phi i1 [ false, %Flow26 ], [ true, %start ], !dbg !315
  br i1 %2, label %bb4, label %bb12, !dbg !315

bb4:                                              ; preds = %Flow27
  store ptr null, ptr %_0, align 8, !dbg !316
  br label %bb12, !dbg !317

bb2:                                              ; preds = %start
  %i8 = load ptr, ptr %i, align 8, !dbg !318, !noundef !15
  %i9 = ptrtoint ptr %i8 to i64, !dbg !318
  %i10 = icmp eq i64 %i9, 0, !dbg !318
  br i1 %i10, label %bb6, label %Flow25, !dbg !328

Flow26:                                           ; preds = %bb5, %Flow25
  %3 = phi i1 [ false, %bb5 ], [ true, %Flow25 ]
  %4 = phi ptr [ %i8, %bb5 ], [ @alloc_5d9af7a776dc0d9eecd628aaf786bef9, %Flow25 ]
  br label %Flow27, !dbg !328

bb12:                                             ; preds = %bb4, %Flow27
  %i18 = phi ptr [ %1, %Flow27 ], [ null, %bb4 ]
  %i11 = phi i1 [ %0, %Flow27 ], [ true, %bb4 ], !dbg !329
  br i1 %i11, label %bb11, label %bb10, !dbg !329

bb6:                                              ; preds = %bb2
  store ptr @alloc_5d9af7a776dc0d9eecd628aaf786bef9, ptr %_16, align 8, !dbg !330
  store ptr @alloc_5d9af7a776dc0d9eecd628aaf786bef9, ptr %_15, align 8, !dbg !343
  store ptr @alloc_5d9af7a776dc0d9eecd628aaf786bef9, ptr %_10, align 8, !dbg !344
  store ptr @alloc_5d9af7a776dc0d9eecd628aaf786bef9, ptr %_0, align 8, !dbg !345
  br label %Flow25, !dbg !346

Flow25:                                           ; preds = %bb6, %bb2
  %5 = phi i1 [ false, %bb6 ], [ true, %bb2 ], !dbg !328
  br i1 %5, label %bb5, label %Flow26, !dbg !328

bb5:                                              ; preds = %Flow25
  store i8 0, ptr %_12, align 1, !dbg !347
  store ptr %i8, ptr %_0, align 8, !dbg !347
  br label %Flow26, !dbg !346

Flow:                                             ; preds = %codeRepl.i, %bb11
  br label %bb10, !dbg !348

bb10:                                             ; preds = %bb12, %Flow
  ret ptr %i18, !dbg !351

bb11:                                             ; preds = %bb12
  %i20 = load ptr, ptr %i, align 8, !dbg !348, !noundef !15
  %i21 = ptrtoint ptr %i20 to i64, !dbg !348
  %i22 = icmp ne i64 %i21, 0, !dbg !348
  br i1 %i22, label %codeRepl.i, label %Flow, !dbg !348

codeRepl.i:                                       ; preds = %bb11
; call core::ptr::drop_in_place<core::result::Result<(),std::io::error::Error>>.13.bb2
  call fastcc void @"_ZN4core3ptr81drop_in_place$LT$core..result..Result$LT$$LP$$RP$$C$std..io..error..Error$GT$$GT$17h56e924c45d7789d9E.13.bb2"(ptr %i), !dbg !348
  br label %Flow
}

; std::io::error::repr_bitpacked::decode_repr
; Function Attrs: inlinehint mustprogress nofree nosync nounwind willreturn memory(argmem: write, inaccessiblemem: readwrite)
define internal fastcc void @_ZN3std2io5error14repr_bitpacked11decode_repr17h1e9a9e11a62c93fbE(ptr noalias nocapture writeonly align 8 %_0, ptr %ptr) unnamed_addr #4 personality ptr @rust_eh_personality !dbg !352 {
start:
  %i = alloca ptr, align 8
  %_51 = alloca %"core::ptr::metadata::PtrComponents<()>", align 8
  %_50 = alloca %"core::ptr::metadata::PtrRepr<()>", align 8
  %_26 = alloca i8, align 1
  %_24 = alloca ptr, align 8
  %self1 = alloca ptr, align 8
  %self = alloca i8, align 1
  %bits = alloca i64, align 8
  store i8 1, ptr %_26, align 1, !dbg !353
  %i3 = ptrtoint ptr %ptr to i64, !dbg !354
  store i64 %i3, ptr %bits, align 8, !dbg !354
  %_5 = and i64 %i3, 3, !dbg !359
  switch i64 %_5, label %start.unreachabledefault [
    i64 2, label %bb2
    i64 3, label %bb3
    i64 0, label %bb5
    i64 1, label %bb6
  ], !dbg !361

start.unreachabledefault:                         ; preds = %start
  unreachable

bb2:                                              ; preds = %start
  %_8 = ashr i64 %i3, 32, !dbg !362
  %code = trunc i64 %_8 to i32, !dbg !362
  %i4 = getelementptr inbounds %"std::io::error::ErrorData<alloc::boxed::Box<std::io::error::Custom>>::Os", ptr %_0, i32 0, i32 1, !dbg !363
  store i32 %code, ptr %i4, align 4, !dbg !363
  store i8 0, ptr %_0, align 8, !dbg !363
  br label %bb9, !dbg !365

bb3:                                              ; preds = %start
  %_12 = lshr i64 %i3, 32, !dbg !366
  %kind_bits = trunc i64 %_12 to i32, !dbg !366
; call std::io::error::repr_bitpacked::kind_from_prim
  %i5 = call fastcc i8 @_ZN3std2io5error14repr_bitpacked14kind_from_prim17hcd405e430b14e5d4E(i32 %kind_bits) #30, !dbg !367, !range !369
  store i8 %i5, ptr %self, align 1, !dbg !367
  %i7 = icmp eq i8 %i5, 41, !dbg !370
  %_28 = select i1 %i7, i64 0, i64 1, !dbg !370
  %_53 = icmp eq i64 %_28, 1, !dbg !377
  call void @llvm.assume(i1 %_53), !dbg !377
  %i8 = getelementptr inbounds %"std::io::error::ErrorData<alloc::boxed::Box<std::io::error::Custom>>::Simple", ptr %_0, i32 0, i32 1, !dbg !378
  store i8 %i5, ptr %i8, align 1, !dbg !378
  store i8 1, ptr %_0, align 8, !dbg !378
  br label %bb9, !dbg !380

bb5:                                              ; preds = %start
  store ptr %ptr, ptr %self1, align 8, !dbg !381
  %i9 = getelementptr inbounds %"std::io::error::ErrorData<alloc::boxed::Box<std::io::error::Custom>>::SimpleMessage", ptr %_0, i32 0, i32 1, !dbg !390
  store ptr %ptr, ptr %i9, align 8, !dbg !390
  store i8 2, ptr %_0, align 8, !dbg !390
  br label %bb9, !dbg !391

bb6:                                              ; preds = %start
  %i10 = getelementptr i8, ptr %ptr, i64 -1, !dbg !392
  store ptr %i10, ptr %i, align 8, !dbg !392
  store ptr %i10, ptr %_51, align 8, !dbg !403
  call void @llvm.memcpy.p0.p0.i64(ptr align 8 %_50, ptr align 8 %_51, i64 8, i1 false), !dbg !411
  %self2 = load ptr, ptr %_50, align 8, !dbg !411, !noundef !15
  store i8 0, ptr %_26, align 1, !dbg !412
  store ptr %self2, ptr %_24, align 8, !dbg !412
; call <std::io::error::repr_bitpacked::Repr as core::ops::drop::Drop>::drop::{{closure}}
  %_22 = call fastcc align 8 ptr @"_ZN78_$LT$std..io..error..repr_bitpacked..Repr$u20$as$u20$core..ops..drop..Drop$GT$4drop28_$u7b$$u7b$closure$u7d$$u7d$17h8350c551288c811bE"(ptr %self2) #30, !dbg !412
  %i12 = getelementptr inbounds %"std::io::error::ErrorData<alloc::boxed::Box<std::io::error::Custom>>::Custom", ptr %_0, i32 0, i32 1, !dbg !414
  store ptr %_22, ptr %i12, align 8, !dbg !414
  store i8 3, ptr %_0, align 8, !dbg !414
  br label %bb9, !dbg !415

bb9:                                              ; preds = %bb2, %bb3, %bb5, %bb6
  ret void, !dbg !416
}

; std::io::error::repr_bitpacked::decode_repr
; Function Attrs: inlinehint mustprogress nofree nosync nounwind willreturn memory(argmem: write, inaccessiblemem: readwrite)
define internal fastcc void @_ZN3std2io5error14repr_bitpacked11decode_repr17h655627aa1a8dcba9E(ptr noalias nocapture writeonly align 8 %_0, ptr %ptr) unnamed_addr #4 personality ptr @rust_eh_personality !dbg !417 {
start:
  %i = alloca ptr, align 8
  %_51 = alloca %"core::ptr::metadata::PtrComponents<()>", align 8
  %_50 = alloca %"core::ptr::metadata::PtrRepr<()>", align 8
  %_26 = alloca i8, align 1
  %_24 = alloca ptr, align 8
  %self1 = alloca ptr, align 8
  %self = alloca i8, align 1
  %bits = alloca i64, align 8
  store i8 1, ptr %_26, align 1, !dbg !418
  %i3 = ptrtoint ptr %ptr to i64, !dbg !419
  store i64 %i3, ptr %bits, align 8, !dbg !419
  %_5 = and i64 %i3, 3, !dbg !424
  switch i64 %_5, label %start.unreachabledefault [
    i64 2, label %bb2
    i64 3, label %bb3
    i64 0, label %bb5
    i64 1, label %bb6
  ], !dbg !426

start.unreachabledefault:                         ; preds = %start
  unreachable

bb2:                                              ; preds = %start
  %_8 = ashr i64 %i3, 32, !dbg !427
  %code = trunc i64 %_8 to i32, !dbg !427
  %i4 = getelementptr inbounds %"std::io::error::ErrorData<&std::io::error::Custom>::Os", ptr %_0, i32 0, i32 1, !dbg !428
  store i32 %code, ptr %i4, align 4, !dbg !428
  store i8 0, ptr %_0, align 8, !dbg !428
  br label %bb9, !dbg !430

bb3:                                              ; preds = %start
  %_12 = lshr i64 %i3, 32, !dbg !431
  %kind_bits = trunc i64 %_12 to i32, !dbg !431
; call std::io::error::repr_bitpacked::kind_from_prim
  %i5 = call fastcc i8 @_ZN3std2io5error14repr_bitpacked14kind_from_prim17hcd405e430b14e5d4E(i32 %kind_bits) #30, !dbg !432, !range !369
  store i8 %i5, ptr %self, align 1, !dbg !432
  %i7 = icmp eq i8 %i5, 41, !dbg !434
  %_28 = select i1 %i7, i64 0, i64 1, !dbg !434
  %_53 = icmp eq i64 %_28, 1, !dbg !438
  call void @llvm.assume(i1 %_53), !dbg !438
  %i8 = getelementptr inbounds %"std::io::error::ErrorData<&std::io::error::Custom>::Simple", ptr %_0, i32 0, i32 1, !dbg !439
  store i8 %i5, ptr %i8, align 1, !dbg !439
  store i8 1, ptr %_0, align 8, !dbg !439
  br label %bb9, !dbg !441

bb5:                                              ; preds = %start
  store ptr %ptr, ptr %self1, align 8, !dbg !442
  %i9 = getelementptr inbounds %"std::io::error::ErrorData<&std::io::error::Custom>::SimpleMessage", ptr %_0, i32 0, i32 1, !dbg !451
  store ptr %ptr, ptr %i9, align 8, !dbg !451
  store i8 2, ptr %_0, align 8, !dbg !451
  br label %bb9, !dbg !452

bb6:                                              ; preds = %start
  %i10 = getelementptr i8, ptr %ptr, i64 -1, !dbg !453
  store ptr %i10, ptr %i, align 8, !dbg !453
  store ptr %i10, ptr %_51, align 8, !dbg !464
  call void @llvm.memcpy.p0.p0.i64(ptr align 8 %_50, ptr align 8 %_51, i64 8, i1 false), !dbg !472
  %self2 = load ptr, ptr %_50, align 8, !dbg !472, !noundef !15
  store i8 0, ptr %_26, align 1, !dbg !473
  store ptr %self2, ptr %_24, align 8, !dbg !473
; call std::io::error::repr_bitpacked::Repr::data::{{closure}}
  %_22 = call fastcc align 8 ptr @"_ZN3std2io5error14repr_bitpacked4Repr4data28_$u7b$$u7b$closure$u7d$$u7d$17h17705ec970b174eaE"(ptr %self2) #30, !dbg !473
  %i12 = getelementptr inbounds %"std::io::error::ErrorData<&std::io::error::Custom>::Custom", ptr %_0, i32 0, i32 1, !dbg !475
  store ptr %_22, ptr %i12, align 8, !dbg !475
  store i8 3, ptr %_0, align 8, !dbg !475
  br label %bb9, !dbg !476

bb9:                                              ; preds = %bb2, %bb3, %bb5, %bb6
  ret void, !dbg !477
}

; std::io::error::repr_bitpacked::kind_from_prim
; Function Attrs: inlinehint mustprogress nofree norecurse nosync nounwind willreturn memory(none)
define internal fastcc i8 @_ZN3std2io5error14repr_bitpacked14kind_from_prim17hcd405e430b14e5d4E(i32 %arg) unnamed_addr #5 !dbg !478 {
start:
  %_0 = alloca i8, align 1
  %ek = alloca i32, align 4
  store i32 %arg, ptr %ek, align 4
  %i = icmp ne i32 %arg, 0, !dbg !479
  br i1 %i, label %bb2, label %Flow162, !dbg !479

Flow162:                                          ; preds = %Flow161, %start
  %0 = phi i8 [ %41, %Flow161 ], [ undef, %start ]
  %1 = phi i1 [ false, %Flow161 ], [ true, %start ], !dbg !479
  br i1 %1, label %bb1, label %bb83, !dbg !479

bb1:                                              ; preds = %Flow162
  store i8 0, ptr %_0, align 1, !dbg !480
  br label %bb83, !dbg !479

bb2:                                              ; preds = %start
  %i41 = icmp ne i32 %arg, 1, !dbg !479
  br i1 %i41, label %bb4, label %Flow160, !dbg !479

Flow83:                                           ; preds = %bb81, %Flow
  %2 = phi i8 [ 40, %bb81 ], [ 41, %Flow ]
  br label %Flow84, !dbg !479

Flow85:                                           ; preds = %bb79, %Flow84
  %3 = phi i8 [ 38, %bb79 ], [ %118, %Flow84 ]
  br label %Flow86, !dbg !479

Flow87:                                           ; preds = %bb77, %Flow86
  %4 = phi i8 [ 36, %bb77 ], [ %116, %Flow86 ]
  br label %Flow88, !dbg !479

Flow89:                                           ; preds = %bb75, %Flow88
  %5 = phi i8 [ 37, %bb75 ], [ %114, %Flow88 ]
  br label %Flow90, !dbg !479

Flow91:                                           ; preds = %bb73, %Flow90
  %6 = phi i8 [ 39, %bb73 ], [ %112, %Flow90 ]
  br label %Flow92, !dbg !479

Flow93:                                           ; preds = %bb71, %Flow92
  %7 = phi i8 [ 35, %bb71 ], [ %110, %Flow92 ]
  br label %Flow94, !dbg !479

Flow95:                                           ; preds = %bb69, %Flow94
  %8 = phi i8 [ 34, %bb69 ], [ %108, %Flow94 ]
  br label %Flow96, !dbg !479

Flow97:                                           ; preds = %bb67, %Flow96
  %9 = phi i8 [ 33, %bb67 ], [ %106, %Flow96 ]
  br label %Flow98, !dbg !479

Flow99:                                           ; preds = %bb65, %Flow98
  %10 = phi i8 [ 32, %bb65 ], [ %104, %Flow98 ]
  br label %Flow100, !dbg !479

Flow101:                                          ; preds = %bb63, %Flow100
  %11 = phi i8 [ 31, %bb63 ], [ %102, %Flow100 ]
  br label %Flow102, !dbg !479

Flow103:                                          ; preds = %bb61, %Flow102
  %12 = phi i8 [ 30, %bb61 ], [ %100, %Flow102 ]
  br label %Flow104, !dbg !479

Flow105:                                          ; preds = %bb59, %Flow104
  %13 = phi i8 [ 29, %bb59 ], [ %98, %Flow104 ]
  br label %Flow106, !dbg !479

Flow107:                                          ; preds = %bb57, %Flow106
  %14 = phi i8 [ 28, %bb57 ], [ %96, %Flow106 ]
  br label %Flow108, !dbg !479

Flow109:                                          ; preds = %bb55, %Flow108
  %15 = phi i8 [ 27, %bb55 ], [ %94, %Flow108 ]
  br label %Flow110, !dbg !479

Flow111:                                          ; preds = %bb53, %Flow110
  %16 = phi i8 [ 26, %bb53 ], [ %92, %Flow110 ]
  br label %Flow112, !dbg !479

Flow113:                                          ; preds = %bb51, %Flow112
  %17 = phi i8 [ 25, %bb51 ], [ %90, %Flow112 ]
  br label %Flow114, !dbg !479

Flow115:                                          ; preds = %bb49, %Flow114
  %18 = phi i8 [ 24, %bb49 ], [ %88, %Flow114 ]
  br label %Flow116, !dbg !479

Flow117:                                          ; preds = %bb47, %Flow116
  %19 = phi i8 [ 23, %bb47 ], [ %86, %Flow116 ]
  br label %Flow118, !dbg !479

Flow119:                                          ; preds = %bb45, %Flow118
  %20 = phi i8 [ 22, %bb45 ], [ %84, %Flow118 ]
  br label %Flow120, !dbg !479

Flow121:                                          ; preds = %bb43, %Flow120
  %21 = phi i8 [ 21, %bb43 ], [ %82, %Flow120 ]
  br label %Flow122, !dbg !479

Flow123:                                          ; preds = %bb41, %Flow122
  %22 = phi i8 [ 20, %bb41 ], [ %80, %Flow122 ]
  br label %Flow124, !dbg !479

Flow125:                                          ; preds = %bb39, %Flow124
  %23 = phi i8 [ 19, %bb39 ], [ %78, %Flow124 ]
  br label %Flow126, !dbg !479

Flow127:                                          ; preds = %bb37, %Flow126
  %24 = phi i8 [ 18, %bb37 ], [ %76, %Flow126 ]
  br label %Flow128, !dbg !479

Flow129:                                          ; preds = %bb35, %Flow128
  %25 = phi i8 [ 17, %bb35 ], [ %74, %Flow128 ]
  br label %Flow130, !dbg !479

Flow131:                                          ; preds = %bb33, %Flow130
  %26 = phi i8 [ 16, %bb33 ], [ %72, %Flow130 ]
  br label %Flow132, !dbg !479

Flow133:                                          ; preds = %bb31, %Flow132
  %27 = phi i8 [ 15, %bb31 ], [ %70, %Flow132 ]
  br label %Flow134, !dbg !479

Flow135:                                          ; preds = %bb29, %Flow134
  %28 = phi i8 [ 14, %bb29 ], [ %68, %Flow134 ]
  br label %Flow136, !dbg !479

Flow137:                                          ; preds = %bb27, %Flow136
  %29 = phi i8 [ 13, %bb27 ], [ %66, %Flow136 ]
  br label %Flow138, !dbg !479

Flow139:                                          ; preds = %bb25, %Flow138
  %30 = phi i8 [ 12, %bb25 ], [ %64, %Flow138 ]
  br label %Flow140, !dbg !479

Flow141:                                          ; preds = %bb23, %Flow140
  %31 = phi i8 [ 11, %bb23 ], [ %62, %Flow140 ]
  br label %Flow142, !dbg !479

Flow143:                                          ; preds = %bb21, %Flow142
  %32 = phi i8 [ 10, %bb21 ], [ %60, %Flow142 ]
  br label %Flow144, !dbg !479

Flow145:                                          ; preds = %bb19, %Flow144
  %33 = phi i8 [ 9, %bb19 ], [ %58, %Flow144 ]
  br label %Flow146, !dbg !479

Flow147:                                          ; preds = %bb17, %Flow146
  %34 = phi i8 [ 8, %bb17 ], [ %56, %Flow146 ]
  br label %Flow148, !dbg !479

Flow149:                                          ; preds = %bb15, %Flow148
  %35 = phi i8 [ 7, %bb15 ], [ %54, %Flow148 ]
  br label %Flow150, !dbg !479

Flow151:                                          ; preds = %bb13, %Flow150
  %36 = phi i8 [ 6, %bb13 ], [ %52, %Flow150 ]
  br label %Flow152, !dbg !479

Flow153:                                          ; preds = %bb11, %Flow152
  %37 = phi i8 [ 5, %bb11 ], [ %50, %Flow152 ]
  br label %Flow154, !dbg !479

Flow155:                                          ; preds = %bb9, %Flow154
  %38 = phi i8 [ 4, %bb9 ], [ %48, %Flow154 ]
  br label %Flow156, !dbg !479

Flow157:                                          ; preds = %bb7, %Flow156
  %39 = phi i8 [ 3, %bb7 ], [ %46, %Flow156 ]
  br label %Flow158, !dbg !479

Flow159:                                          ; preds = %bb5, %Flow158
  %40 = phi i8 [ 2, %bb5 ], [ %44, %Flow158 ]
  br label %Flow160, !dbg !479

Flow161:                                          ; preds = %bb3, %Flow160
  %41 = phi i8 [ 1, %bb3 ], [ %42, %Flow160 ]
  br label %Flow162, !dbg !479

bb83:                                             ; preds = %bb1, %Flow162
  %i42 = phi i8 [ %0, %Flow162 ], [ 0, %bb1 ], !dbg !482
  ret i8 %i42, !dbg !482

Flow160:                                          ; preds = %Flow159, %bb2
  %42 = phi i8 [ %40, %Flow159 ], [ undef, %bb2 ]
  %43 = phi i1 [ false, %Flow159 ], [ true, %bb2 ], !dbg !479
  br i1 %43, label %bb3, label %Flow161, !dbg !479

bb3:                                              ; preds = %Flow160
  store i8 1, ptr %_0, align 1, !dbg !483
  br label %Flow161, !dbg !479

bb4:                                              ; preds = %bb2
  %i43 = icmp ne i32 %arg, 2, !dbg !479
  br i1 %i43, label %bb6, label %Flow158, !dbg !479

Flow158:                                          ; preds = %Flow157, %bb4
  %44 = phi i8 [ %39, %Flow157 ], [ undef, %bb4 ]
  %45 = phi i1 [ false, %Flow157 ], [ true, %bb4 ], !dbg !479
  br i1 %45, label %bb5, label %Flow159, !dbg !479

bb5:                                              ; preds = %Flow158
  store i8 2, ptr %_0, align 1, !dbg !485
  br label %Flow159, !dbg !479

bb6:                                              ; preds = %bb4
  %i44 = icmp ne i32 %arg, 3, !dbg !479
  br i1 %i44, label %bb8, label %Flow156, !dbg !479

Flow156:                                          ; preds = %Flow155, %bb6
  %46 = phi i8 [ %38, %Flow155 ], [ undef, %bb6 ]
  %47 = phi i1 [ false, %Flow155 ], [ true, %bb6 ], !dbg !479
  br i1 %47, label %bb7, label %Flow157, !dbg !479

bb7:                                              ; preds = %Flow156
  store i8 3, ptr %_0, align 1, !dbg !487
  br label %Flow157, !dbg !479

bb8:                                              ; preds = %bb6
  %i45 = icmp ne i32 %arg, 4, !dbg !479
  br i1 %i45, label %bb10, label %Flow154, !dbg !479

Flow154:                                          ; preds = %Flow153, %bb8
  %48 = phi i8 [ %37, %Flow153 ], [ undef, %bb8 ]
  %49 = phi i1 [ false, %Flow153 ], [ true, %bb8 ], !dbg !479
  br i1 %49, label %bb9, label %Flow155, !dbg !479

bb9:                                              ; preds = %Flow154
  store i8 4, ptr %_0, align 1, !dbg !489
  br label %Flow155, !dbg !479

bb10:                                             ; preds = %bb8
  %i46 = icmp ne i32 %arg, 5, !dbg !479
  br i1 %i46, label %bb12, label %Flow152, !dbg !479

Flow152:                                          ; preds = %Flow151, %bb10
  %50 = phi i8 [ %36, %Flow151 ], [ undef, %bb10 ]
  %51 = phi i1 [ false, %Flow151 ], [ true, %bb10 ], !dbg !479
  br i1 %51, label %bb11, label %Flow153, !dbg !479

bb11:                                             ; preds = %Flow152
  store i8 5, ptr %_0, align 1, !dbg !491
  br label %Flow153, !dbg !479

bb12:                                             ; preds = %bb10
  %i47 = icmp ne i32 %arg, 6, !dbg !479
  br i1 %i47, label %bb14, label %Flow150, !dbg !479

Flow150:                                          ; preds = %Flow149, %bb12
  %52 = phi i8 [ %35, %Flow149 ], [ undef, %bb12 ]
  %53 = phi i1 [ false, %Flow149 ], [ true, %bb12 ], !dbg !479
  br i1 %53, label %bb13, label %Flow151, !dbg !479

bb13:                                             ; preds = %Flow150
  store i8 6, ptr %_0, align 1, !dbg !493
  br label %Flow151, !dbg !479

bb14:                                             ; preds = %bb12
  %i48 = icmp ne i32 %arg, 7, !dbg !479
  br i1 %i48, label %bb16, label %Flow148, !dbg !479

Flow148:                                          ; preds = %Flow147, %bb14
  %54 = phi i8 [ %34, %Flow147 ], [ undef, %bb14 ]
  %55 = phi i1 [ false, %Flow147 ], [ true, %bb14 ], !dbg !479
  br i1 %55, label %bb15, label %Flow149, !dbg !479

bb15:                                             ; preds = %Flow148
  store i8 7, ptr %_0, align 1, !dbg !495
  br label %Flow149, !dbg !479

bb16:                                             ; preds = %bb14
  %i49 = icmp ne i32 %arg, 8, !dbg !479
  br i1 %i49, label %bb18, label %Flow146, !dbg !479

Flow146:                                          ; preds = %Flow145, %bb16
  %56 = phi i8 [ %33, %Flow145 ], [ undef, %bb16 ]
  %57 = phi i1 [ false, %Flow145 ], [ true, %bb16 ], !dbg !479
  br i1 %57, label %bb17, label %Flow147, !dbg !479

bb17:                                             ; preds = %Flow146
  store i8 8, ptr %_0, align 1, !dbg !497
  br label %Flow147, !dbg !479

bb18:                                             ; preds = %bb16
  %i50 = icmp ne i32 %arg, 9, !dbg !479
  br i1 %i50, label %bb20, label %Flow144, !dbg !479

Flow144:                                          ; preds = %Flow143, %bb18
  %58 = phi i8 [ %32, %Flow143 ], [ undef, %bb18 ]
  %59 = phi i1 [ false, %Flow143 ], [ true, %bb18 ], !dbg !479
  br i1 %59, label %bb19, label %Flow145, !dbg !479

bb19:                                             ; preds = %Flow144
  store i8 9, ptr %_0, align 1, !dbg !499
  br label %Flow145, !dbg !479

bb20:                                             ; preds = %bb18
  %i51 = icmp ne i32 %arg, 10, !dbg !479
  br i1 %i51, label %bb22, label %Flow142, !dbg !479

Flow142:                                          ; preds = %Flow141, %bb20
  %60 = phi i8 [ %31, %Flow141 ], [ undef, %bb20 ]
  %61 = phi i1 [ false, %Flow141 ], [ true, %bb20 ], !dbg !479
  br i1 %61, label %bb21, label %Flow143, !dbg !479

bb21:                                             ; preds = %Flow142
  store i8 10, ptr %_0, align 1, !dbg !501
  br label %Flow143, !dbg !479

bb22:                                             ; preds = %bb20
  %i52 = icmp ne i32 %arg, 11, !dbg !479
  br i1 %i52, label %bb24, label %Flow140, !dbg !479

Flow140:                                          ; preds = %Flow139, %bb22
  %62 = phi i8 [ %30, %Flow139 ], [ undef, %bb22 ]
  %63 = phi i1 [ false, %Flow139 ], [ true, %bb22 ], !dbg !479
  br i1 %63, label %bb23, label %Flow141, !dbg !479

bb23:                                             ; preds = %Flow140
  store i8 11, ptr %_0, align 1, !dbg !503
  br label %Flow141, !dbg !479

bb24:                                             ; preds = %bb22
  %i53 = icmp ne i32 %arg, 12, !dbg !479
  br i1 %i53, label %bb26, label %Flow138, !dbg !479

Flow138:                                          ; preds = %Flow137, %bb24
  %64 = phi i8 [ %29, %Flow137 ], [ undef, %bb24 ]
  %65 = phi i1 [ false, %Flow137 ], [ true, %bb24 ], !dbg !479
  br i1 %65, label %bb25, label %Flow139, !dbg !479

bb25:                                             ; preds = %Flow138
  store i8 12, ptr %_0, align 1, !dbg !505
  br label %Flow139, !dbg !479

bb26:                                             ; preds = %bb24
  %i54 = icmp ne i32 %arg, 13, !dbg !479
  br i1 %i54, label %bb28, label %Flow136, !dbg !479

Flow136:                                          ; preds = %Flow135, %bb26
  %66 = phi i8 [ %28, %Flow135 ], [ undef, %bb26 ]
  %67 = phi i1 [ false, %Flow135 ], [ true, %bb26 ], !dbg !479
  br i1 %67, label %bb27, label %Flow137, !dbg !479

bb27:                                             ; preds = %Flow136
  store i8 13, ptr %_0, align 1, !dbg !507
  br label %Flow137, !dbg !479

bb28:                                             ; preds = %bb26
  %i55 = icmp ne i32 %arg, 14, !dbg !479
  br i1 %i55, label %bb30, label %Flow134, !dbg !479

Flow134:                                          ; preds = %Flow133, %bb28
  %68 = phi i8 [ %27, %Flow133 ], [ undef, %bb28 ]
  %69 = phi i1 [ false, %Flow133 ], [ true, %bb28 ], !dbg !479
  br i1 %69, label %bb29, label %Flow135, !dbg !479

bb29:                                             ; preds = %Flow134
  store i8 14, ptr %_0, align 1, !dbg !509
  br label %Flow135, !dbg !479

bb30:                                             ; preds = %bb28
  %i56 = icmp ne i32 %arg, 15, !dbg !479
  br i1 %i56, label %bb32, label %Flow132, !dbg !479

Flow132:                                          ; preds = %Flow131, %bb30
  %70 = phi i8 [ %26, %Flow131 ], [ undef, %bb30 ]
  %71 = phi i1 [ false, %Flow131 ], [ true, %bb30 ], !dbg !479
  br i1 %71, label %bb31, label %Flow133, !dbg !479

bb31:                                             ; preds = %Flow132
  store i8 15, ptr %_0, align 1, !dbg !511
  br label %Flow133, !dbg !479

bb32:                                             ; preds = %bb30
  %i57 = icmp ne i32 %arg, 16, !dbg !479
  br i1 %i57, label %bb34, label %Flow130, !dbg !479

Flow130:                                          ; preds = %Flow129, %bb32
  %72 = phi i8 [ %25, %Flow129 ], [ undef, %bb32 ]
  %73 = phi i1 [ false, %Flow129 ], [ true, %bb32 ], !dbg !479
  br i1 %73, label %bb33, label %Flow131, !dbg !479

bb33:                                             ; preds = %Flow130
  store i8 16, ptr %_0, align 1, !dbg !513
  br label %Flow131, !dbg !479

bb34:                                             ; preds = %bb32
  %i58 = icmp ne i32 %arg, 17, !dbg !479
  br i1 %i58, label %bb36, label %Flow128, !dbg !479

Flow128:                                          ; preds = %Flow127, %bb34
  %74 = phi i8 [ %24, %Flow127 ], [ undef, %bb34 ]
  %75 = phi i1 [ false, %Flow127 ], [ true, %bb34 ], !dbg !479
  br i1 %75, label %bb35, label %Flow129, !dbg !479

bb35:                                             ; preds = %Flow128
  store i8 17, ptr %_0, align 1, !dbg !515
  br label %Flow129, !dbg !479

bb36:                                             ; preds = %bb34
  %i59 = icmp ne i32 %arg, 18, !dbg !479
  br i1 %i59, label %bb38, label %Flow126, !dbg !479

Flow126:                                          ; preds = %Flow125, %bb36
  %76 = phi i8 [ %23, %Flow125 ], [ undef, %bb36 ]
  %77 = phi i1 [ false, %Flow125 ], [ true, %bb36 ], !dbg !479
  br i1 %77, label %bb37, label %Flow127, !dbg !479

bb37:                                             ; preds = %Flow126
  store i8 18, ptr %_0, align 1, !dbg !517
  br label %Flow127, !dbg !479

bb38:                                             ; preds = %bb36
  %i60 = icmp ne i32 %arg, 19, !dbg !479
  br i1 %i60, label %bb40, label %Flow124, !dbg !479

Flow124:                                          ; preds = %Flow123, %bb38
  %78 = phi i8 [ %22, %Flow123 ], [ undef, %bb38 ]
  %79 = phi i1 [ false, %Flow123 ], [ true, %bb38 ], !dbg !479
  br i1 %79, label %bb39, label %Flow125, !dbg !479

bb39:                                             ; preds = %Flow124
  store i8 19, ptr %_0, align 1, !dbg !519
  br label %Flow125, !dbg !479

bb40:                                             ; preds = %bb38
  %i61 = icmp ne i32 %arg, 20, !dbg !479
  br i1 %i61, label %bb42, label %Flow122, !dbg !479

Flow122:                                          ; preds = %Flow121, %bb40
  %80 = phi i8 [ %21, %Flow121 ], [ undef, %bb40 ]
  %81 = phi i1 [ false, %Flow121 ], [ true, %bb40 ], !dbg !479
  br i1 %81, label %bb41, label %Flow123, !dbg !479

bb41:                                             ; preds = %Flow122
  store i8 20, ptr %_0, align 1, !dbg !521
  br label %Flow123, !dbg !479

bb42:                                             ; preds = %bb40
  %i62 = icmp ne i32 %arg, 21, !dbg !479
  br i1 %i62, label %bb44, label %Flow120, !dbg !479

Flow120:                                          ; preds = %Flow119, %bb42
  %82 = phi i8 [ %20, %Flow119 ], [ undef, %bb42 ]
  %83 = phi i1 [ false, %Flow119 ], [ true, %bb42 ], !dbg !479
  br i1 %83, label %bb43, label %Flow121, !dbg !479

bb43:                                             ; preds = %Flow120
  store i8 21, ptr %_0, align 1, !dbg !523
  br label %Flow121, !dbg !479

bb44:                                             ; preds = %bb42
  %i63 = icmp ne i32 %arg, 22, !dbg !479
  br i1 %i63, label %bb46, label %Flow118, !dbg !479

Flow118:                                          ; preds = %Flow117, %bb44
  %84 = phi i8 [ %19, %Flow117 ], [ undef, %bb44 ]
  %85 = phi i1 [ false, %Flow117 ], [ true, %bb44 ], !dbg !479
  br i1 %85, label %bb45, label %Flow119, !dbg !479

bb45:                                             ; preds = %Flow118
  store i8 22, ptr %_0, align 1, !dbg !525
  br label %Flow119, !dbg !479

bb46:                                             ; preds = %bb44
  %i64 = icmp ne i32 %arg, 23, !dbg !479
  br i1 %i64, label %bb48, label %Flow116, !dbg !479

Flow116:                                          ; preds = %Flow115, %bb46
  %86 = phi i8 [ %18, %Flow115 ], [ undef, %bb46 ]
  %87 = phi i1 [ false, %Flow115 ], [ true, %bb46 ], !dbg !479
  br i1 %87, label %bb47, label %Flow117, !dbg !479

bb47:                                             ; preds = %Flow116
  store i8 23, ptr %_0, align 1, !dbg !527
  br label %Flow117, !dbg !479

bb48:                                             ; preds = %bb46
  %i65 = icmp ne i32 %arg, 24, !dbg !479
  br i1 %i65, label %bb50, label %Flow114, !dbg !479

Flow114:                                          ; preds = %Flow113, %bb48
  %88 = phi i8 [ %17, %Flow113 ], [ undef, %bb48 ]
  %89 = phi i1 [ false, %Flow113 ], [ true, %bb48 ], !dbg !479
  br i1 %89, label %bb49, label %Flow115, !dbg !479

bb49:                                             ; preds = %Flow114
  store i8 24, ptr %_0, align 1, !dbg !529
  br label %Flow115, !dbg !479

bb50:                                             ; preds = %bb48
  %i66 = icmp ne i32 %arg, 25, !dbg !479
  br i1 %i66, label %bb52, label %Flow112, !dbg !479

Flow112:                                          ; preds = %Flow111, %bb50
  %90 = phi i8 [ %16, %Flow111 ], [ undef, %bb50 ]
  %91 = phi i1 [ false, %Flow111 ], [ true, %bb50 ], !dbg !479
  br i1 %91, label %bb51, label %Flow113, !dbg !479

bb51:                                             ; preds = %Flow112
  store i8 25, ptr %_0, align 1, !dbg !531
  br label %Flow113, !dbg !479

bb52:                                             ; preds = %bb50
  %i67 = icmp ne i32 %arg, 26, !dbg !479
  br i1 %i67, label %bb54, label %Flow110, !dbg !479

Flow110:                                          ; preds = %Flow109, %bb52
  %92 = phi i8 [ %15, %Flow109 ], [ undef, %bb52 ]
  %93 = phi i1 [ false, %Flow109 ], [ true, %bb52 ], !dbg !479
  br i1 %93, label %bb53, label %Flow111, !dbg !479

bb53:                                             ; preds = %Flow110
  store i8 26, ptr %_0, align 1, !dbg !533
  br label %Flow111, !dbg !479

bb54:                                             ; preds = %bb52
  %i68 = icmp ne i32 %arg, 27, !dbg !479
  br i1 %i68, label %bb56, label %Flow108, !dbg !479

Flow108:                                          ; preds = %Flow107, %bb54
  %94 = phi i8 [ %14, %Flow107 ], [ undef, %bb54 ]
  %95 = phi i1 [ false, %Flow107 ], [ true, %bb54 ], !dbg !479
  br i1 %95, label %bb55, label %Flow109, !dbg !479

bb55:                                             ; preds = %Flow108
  store i8 27, ptr %_0, align 1, !dbg !535
  br label %Flow109, !dbg !479

bb56:                                             ; preds = %bb54
  %i69 = icmp ne i32 %arg, 28, !dbg !479
  br i1 %i69, label %bb58, label %Flow106, !dbg !479

Flow106:                                          ; preds = %Flow105, %bb56
  %96 = phi i8 [ %13, %Flow105 ], [ undef, %bb56 ]
  %97 = phi i1 [ false, %Flow105 ], [ true, %bb56 ], !dbg !479
  br i1 %97, label %bb57, label %Flow107, !dbg !479

bb57:                                             ; preds = %Flow106
  store i8 28, ptr %_0, align 1, !dbg !537
  br label %Flow107, !dbg !479

bb58:                                             ; preds = %bb56
  %i70 = icmp ne i32 %arg, 29, !dbg !479
  br i1 %i70, label %bb60, label %Flow104, !dbg !479

Flow104:                                          ; preds = %Flow103, %bb58
  %98 = phi i8 [ %12, %Flow103 ], [ undef, %bb58 ]
  %99 = phi i1 [ false, %Flow103 ], [ true, %bb58 ], !dbg !479
  br i1 %99, label %bb59, label %Flow105, !dbg !479

bb59:                                             ; preds = %Flow104
  store i8 29, ptr %_0, align 1, !dbg !539
  br label %Flow105, !dbg !479

bb60:                                             ; preds = %bb58
  %i71 = icmp ne i32 %arg, 30, !dbg !479
  br i1 %i71, label %bb62, label %Flow102, !dbg !479

Flow102:                                          ; preds = %Flow101, %bb60
  %100 = phi i8 [ %11, %Flow101 ], [ undef, %bb60 ]
  %101 = phi i1 [ false, %Flow101 ], [ true, %bb60 ], !dbg !479
  br i1 %101, label %bb61, label %Flow103, !dbg !479

bb61:                                             ; preds = %Flow102
  store i8 30, ptr %_0, align 1, !dbg !541
  br label %Flow103, !dbg !479

bb62:                                             ; preds = %bb60
  %i72 = icmp ne i32 %arg, 31, !dbg !479
  br i1 %i72, label %bb64, label %Flow100, !dbg !479

Flow100:                                          ; preds = %Flow99, %bb62
  %102 = phi i8 [ %10, %Flow99 ], [ undef, %bb62 ]
  %103 = phi i1 [ false, %Flow99 ], [ true, %bb62 ], !dbg !479
  br i1 %103, label %bb63, label %Flow101, !dbg !479

bb63:                                             ; preds = %Flow100
  store i8 31, ptr %_0, align 1, !dbg !543
  br label %Flow101, !dbg !479

bb64:                                             ; preds = %bb62
  %i73 = icmp ne i32 %arg, 32, !dbg !479
  br i1 %i73, label %bb66, label %Flow98, !dbg !479

Flow98:                                           ; preds = %Flow97, %bb64
  %104 = phi i8 [ %9, %Flow97 ], [ undef, %bb64 ]
  %105 = phi i1 [ false, %Flow97 ], [ true, %bb64 ], !dbg !479
  br i1 %105, label %bb65, label %Flow99, !dbg !479

bb65:                                             ; preds = %Flow98
  store i8 32, ptr %_0, align 1, !dbg !545
  br label %Flow99, !dbg !479

bb66:                                             ; preds = %bb64
  %i74 = icmp ne i32 %arg, 33, !dbg !479
  br i1 %i74, label %bb68, label %Flow96, !dbg !479

Flow96:                                           ; preds = %Flow95, %bb66
  %106 = phi i8 [ %8, %Flow95 ], [ undef, %bb66 ]
  %107 = phi i1 [ false, %Flow95 ], [ true, %bb66 ], !dbg !479
  br i1 %107, label %bb67, label %Flow97, !dbg !479

bb67:                                             ; preds = %Flow96
  store i8 33, ptr %_0, align 1, !dbg !547
  br label %Flow97, !dbg !479

bb68:                                             ; preds = %bb66
  %i75 = icmp ne i32 %arg, 34, !dbg !479
  br i1 %i75, label %bb70, label %Flow94, !dbg !479

Flow94:                                           ; preds = %Flow93, %bb68
  %108 = phi i8 [ %7, %Flow93 ], [ undef, %bb68 ]
  %109 = phi i1 [ false, %Flow93 ], [ true, %bb68 ], !dbg !479
  br i1 %109, label %bb69, label %Flow95, !dbg !479

bb69:                                             ; preds = %Flow94
  store i8 34, ptr %_0, align 1, !dbg !549
  br label %Flow95, !dbg !479

bb70:                                             ; preds = %bb68
  %i76 = icmp ne i32 %arg, 35, !dbg !479
  br i1 %i76, label %bb72, label %Flow92, !dbg !479

Flow92:                                           ; preds = %Flow91, %bb70
  %110 = phi i8 [ %6, %Flow91 ], [ undef, %bb70 ]
  %111 = phi i1 [ false, %Flow91 ], [ true, %bb70 ], !dbg !479
  br i1 %111, label %bb71, label %Flow93, !dbg !479

bb71:                                             ; preds = %Flow92
  store i8 35, ptr %_0, align 1, !dbg !551
  br label %Flow93, !dbg !479

bb72:                                             ; preds = %bb70
  %i77 = icmp ne i32 %arg, 39, !dbg !479
  br i1 %i77, label %bb74, label %Flow90, !dbg !479

Flow90:                                           ; preds = %Flow89, %bb72
  %112 = phi i8 [ %5, %Flow89 ], [ undef, %bb72 ]
  %113 = phi i1 [ false, %Flow89 ], [ true, %bb72 ], !dbg !479
  br i1 %113, label %bb73, label %Flow91, !dbg !479

bb73:                                             ; preds = %Flow90
  store i8 39, ptr %_0, align 1, !dbg !553
  br label %Flow91, !dbg !479

bb74:                                             ; preds = %bb72
  %i78 = icmp ne i32 %arg, 37, !dbg !479
  br i1 %i78, label %bb76, label %Flow88, !dbg !479

Flow88:                                           ; preds = %Flow87, %bb74
  %114 = phi i8 [ %4, %Flow87 ], [ undef, %bb74 ]
  %115 = phi i1 [ false, %Flow87 ], [ true, %bb74 ], !dbg !479
  br i1 %115, label %bb75, label %Flow89, !dbg !479

bb75:                                             ; preds = %Flow88
  store i8 37, ptr %_0, align 1, !dbg !555
  br label %Flow89, !dbg !479

bb76:                                             ; preds = %bb74
  %i79 = icmp ne i32 %arg, 36, !dbg !479
  br i1 %i79, label %bb78, label %Flow86, !dbg !479

Flow86:                                           ; preds = %Flow85, %bb76
  %116 = phi i8 [ %3, %Flow85 ], [ undef, %bb76 ]
  %117 = phi i1 [ false, %Flow85 ], [ true, %bb76 ], !dbg !479
  br i1 %117, label %bb77, label %Flow87, !dbg !479

bb77:                                             ; preds = %Flow86
  store i8 36, ptr %_0, align 1, !dbg !557
  br label %Flow87, !dbg !479

bb78:                                             ; preds = %bb76
  %i80 = icmp ne i32 %arg, 38, !dbg !479
  br i1 %i80, label %bb80, label %Flow84, !dbg !479

Flow84:                                           ; preds = %Flow83, %bb78
  %118 = phi i8 [ %2, %Flow83 ], [ undef, %bb78 ]
  %119 = phi i1 [ false, %Flow83 ], [ true, %bb78 ], !dbg !479
  br i1 %119, label %bb79, label %Flow85, !dbg !479

bb79:                                             ; preds = %Flow84
  store i8 38, ptr %_0, align 1, !dbg !559
  br label %Flow85, !dbg !479

bb80:                                             ; preds = %bb78
  %i81 = icmp ne i32 %arg, 40, !dbg !479
  br i1 %i81, label %bb82, label %Flow, !dbg !479

Flow:                                             ; preds = %bb82, %bb80
  %120 = phi i1 [ false, %bb82 ], [ true, %bb80 ], !dbg !479
  br i1 %120, label %bb81, label %Flow83, !dbg !479

bb81:                                             ; preds = %Flow
  store i8 40, ptr %_0, align 1, !dbg !561
  br label %Flow83, !dbg !479

bb82:                                             ; preds = %bb80
  store i8 41, ptr %_0, align 1, !dbg !479
  br label %Flow, !dbg !479
}

; std::io::error::repr_bitpacked::Repr::data::{{closure}}
; Function Attrs: inlinehint mustprogress nofree norecurse nosync nounwind willreturn memory(none)
define internal fastcc align 8 ptr @"_ZN3std2io5error14repr_bitpacked4Repr4data28_$u7b$$u7b$closure$u7d$$u7d$17h17705ec970b174eaE"(ptr readnone returned %c) unnamed_addr #5 !dbg !563 {
start:
  ret ptr %c, !dbg !566
}

; std::io::error::Error::is_interrupted
; Function Attrs: inlinehint mustprogress nofree nosync nounwind willreturn
define internal fastcc zeroext i1 @_ZN3std2io5error5Error14is_interrupted17hd41411d6e5197455E(ptr %self.0.val) unnamed_addr #6 !dbg !567 {
start:
  %kind = alloca i8, align 1
  %_2 = alloca %"std::io::error::ErrorData<&std::io::error::Custom>", align 8
  %_0 = alloca i8, align 1
  %0 = icmp ne ptr %self.0.val, null
  call void @llvm.assume(i1 %0)
; call std::io::error::repr_bitpacked::decode_repr
  call fastcc void @_ZN3std2io5error14repr_bitpacked11decode_repr17h655627aa1a8dcba9E(ptr noalias align 8 %_2, ptr %self.0.val) #30, !dbg !568
  %i = load i8, ptr %_2, align 8, !dbg !573, !range !574, !noundef !15
  %_4 = zext i8 %i to i64, !dbg !573
  switch i64 %_4, label %bb2 [
    i64 0, label %bb3
    i64 1, label %bb5
    i64 2, label %bb1
    i64 3, label %bb4
  ], !dbg !575

bb2:                                              ; preds = %start
  unreachable, !dbg !573

bb3:                                              ; preds = %start
  %i5 = getelementptr inbounds %"std::io::error::ErrorData<&std::io::error::Custom>::Os", ptr %_2, i32 0, i32 1, !dbg !576
  %code = load i32, ptr %i5, align 4, !dbg !576, !noundef !15
  %i6 = icmp eq i32 %code, 4, !dbg !577
  %i7 = zext i1 %i6 to i8, !dbg !577
  store i8 %i7, ptr %_0, align 1, !dbg !577
  br label %bb6, !dbg !585

bb5:                                              ; preds = %start
  %i8 = getelementptr inbounds %"std::io::error::ErrorData<&std::io::error::Custom>::Simple", ptr %_2, i32 0, i32 1, !dbg !586
  %i9 = load i8, ptr %i8, align 1, !dbg !586, !range !587, !noundef !15
  store i8 %i9, ptr %kind, align 1, !dbg !586
  %__self_tag = zext i8 %i9 to i64, !dbg !588
  %i11 = icmp eq i64 %__self_tag, 35, !dbg !594
  %i12 = zext i1 %i11 to i8, !dbg !594
  store i8 %i12, ptr %_0, align 1, !dbg !594
  br label %bb6, !dbg !597

bb1:                                              ; preds = %start
  %i13 = getelementptr inbounds %"std::io::error::ErrorData<&std::io::error::Custom>::SimpleMessage", ptr %_2, i32 0, i32 1, !dbg !598
  %m = load ptr, ptr %i13, align 8, !dbg !598, !nonnull !15, !align !599, !noundef !15
  %i14 = getelementptr inbounds %"std::io::error::SimpleMessage", ptr %m, i32 0, i32 1, !dbg !600
  %i15 = load i8, ptr %i14, align 8, !dbg !600, !range !587, !noundef !15
  %__self_tag2 = zext i8 %i15 to i64, !dbg !600
  %i16 = icmp eq i64 %__self_tag2, 35, !dbg !604
  %i17 = zext i1 %i16 to i8, !dbg !604
  store i8 %i17, ptr %_0, align 1, !dbg !604
  br label %bb6, !dbg !607

bb4:                                              ; preds = %start
  %i18 = getelementptr inbounds %"std::io::error::ErrorData<&std::io::error::Custom>::Custom", ptr %_2, i32 0, i32 1, !dbg !608
  %c = load ptr, ptr %i18, align 8, !dbg !608, !nonnull !15, !align !599, !noundef !15
  %i19 = getelementptr inbounds %"std::io::error::Custom", ptr %c, i32 0, i32 1, !dbg !609
  %i20 = load i8, ptr %i19, align 8, !dbg !609, !range !587, !noundef !15
  %__self_tag4 = zext i8 %i20 to i64, !dbg !609
  %i21 = icmp eq i64 %__self_tag4, 35, !dbg !613
  %i22 = zext i1 %i21 to i8, !dbg !613
  store i8 %i22, ptr %_0, align 1, !dbg !613
  br label %bb6, !dbg !616

bb6:                                              ; preds = %bb4, %bb1, %bb5, %bb3
  %i23 = phi i1 [ %i21, %bb4 ], [ %i16, %bb1 ], [ %i11, %bb5 ], [ %i6, %bb3 ], !dbg !617
  ret i1 %i23, !dbg !617
}

; std::rt::lang_start
; Function Attrs: nounwind
define hidden i64 @_ZN3std2rt10lang_start17h81bf35c0161a79d4E(ptr %main, i64 %argc, ptr %argv, i8 %sigpipe) unnamed_addr #0 !dbg !618 {
start:
  %_8 = alloca ptr, align 8
  %_5 = alloca i64, align 8
  store ptr %main, ptr %_8, align 8, !dbg !621
; call std::rt::lang_start_internal
  %i = call i64 @_ZN3std2rt19lang_start_internal17hba631f1493ca29caE(ptr align 1 %_8, ptr align 8 @vtable.1, i64 %argc, ptr %argv, i8 %sigpipe) #30, !dbg !622
  store i64 %i, ptr %_5, align 8, !dbg !622
  ret i64 %i, !dbg !623
}

; std::rt::lang_start::{{closure}}
; Function Attrs: inlinehint nounwind
define internal i32 @"_ZN3std2rt10lang_start28_$u7b$$u7b$closure$u7d$$u7d$17h507a30a8d97e8affE"(ptr nocapture readonly align 8 %_1) unnamed_addr #1 !dbg !624 {
start:
  %self = alloca i8, align 1
  %_4 = load ptr, ptr %_1, align 8, !dbg !626, !nonnull !15, !noundef !15
; call std::sys_common::backtrace::__rust_begin_short_backtrace
  call fastcc void @_ZN3std10sys_common9backtrace28__rust_begin_short_backtrace17h182728ced7341149E(ptr %_4) #30, !dbg !627
; call <() as std::process::Termination>::report
  %i = call fastcc i8 @"_ZN54_$LT$$LP$$RP$$u20$as$u20$std..process..Termination$GT$6report17h02724cc7925981b2E"() #30, !dbg !627
  store i8 %i, ptr %self, align 1, !dbg !627
  %_0 = zext i8 %i to i32, !dbg !628
  ret i32 %_0, !dbg !642
}

; std::sync::mutex::Mutex<T>::new
; Function Attrs: inlinehint mustprogress nofree nosync nounwind willreturn memory(argmem: readwrite)
define internal fastcc void @"_ZN3std4sync5mutex14Mutex$LT$T$GT$3new17h819a49ec5d3f1e6cE"(ptr noalias nocapture writeonly align 8 %_0, ptr nocapture readonly align 8 %t) unnamed_addr #7 !dbg !643 {
start:
  %_7 = alloca %"core::sync::atomic::AtomicBool", align 1
  %_6 = alloca %"core::sync::atomic::AtomicPtr<std::sys::unix::locks::pthread_mutex::AllocatedMutex>", align 8
  %_4 = alloca %"core::cell::UnsafeCell<PinSlab<core::cell::Cell<i32>>>", align 8
  %_3 = alloca %"std::sync::poison::Flag", align 1
  %_2 = alloca %"std::sys::unix::locks::pthread_mutex::Mutex", align 8
  store ptr null, ptr %_6, align 8, !dbg !648
  call void @llvm.memcpy.p0.p0.i64(ptr align 8 %_2, ptr align 8 %_6, i64 8, i1 false), !dbg !662
  store i8 0, ptr %_7, align 1, !dbg !663
  call void @llvm.memcpy.p0.p0.i64(ptr align 1 %_3, ptr align 1 %_7, i64 1, i1 false), !dbg !674
  %i1 = getelementptr inbounds %"std::sync::mutex::Mutex<PinSlab<core::cell::Cell<i32>>>", ptr %_0, i32 0, i32 3, !dbg !675
  call void @llvm.memcpy.p0.p0.i64(ptr align 8 %_4, ptr align 8 %t, i64 24, i1 false), !dbg !676
  call void @llvm.memcpy.p0.p0.i64(ptr align 8 %_0, ptr align 8 %_6, i64 8, i1 false), !dbg !675
  %i = getelementptr inbounds %"std::sync::mutex::Mutex<PinSlab<core::cell::Cell<i32>>>", ptr %_0, i32 0, i32 1, !dbg !675
  call void @llvm.memcpy.p0.p0.i64(ptr align 8 %i, ptr align 1 %_7, i64 1, i1 false), !dbg !675
  call void @llvm.memcpy.p0.p0.i64(ptr align 8 %i1, ptr align 8 %_4, i64 24, i1 false), !dbg !675
  ret void, !dbg !683
}

; std::sync::mutex::Mutex<T>::lock
; Function Attrs: nounwind
define internal fastcc void @"_ZN3std4sync5mutex14Mutex$LT$T$GT$4lock17h358ab35378d7c391E"(ptr noalias nocapture writeonly align 8 %_0, ptr align 8 %self) unnamed_addr #0 !dbg !684 {
start:
; call std::sys_common::lazy_box::LazyBox<T>::get_pointer
  %_8 = call fastcc ptr @"_ZN3std10sys_common8lazy_box16LazyBox$LT$T$GT$11get_pointer17h27336f70a406d400E"(ptr align 8 %self) #30, !dbg !685
  %r = call i32 @pthread_mutex_lock(ptr %_8) #30, !dbg !698
; call std::sync::mutex::MutexGuard<T>::new
  call fastcc void @"_ZN3std4sync5mutex19MutexGuard$LT$T$GT$3new17hf4165043e88516bcE"(ptr noalias align 8 %_0, ptr align 8 %self) #30, !dbg !699
  ret void, !dbg !700
}

; std::sync::mutex::MutexGuard<T>::new
; Function Attrs: nounwind
define internal fastcc void @"_ZN3std4sync5mutex19MutexGuard$LT$T$GT$3new17hf4165043e88516bcE"(ptr noalias nocapture writeonly align 8 %_0, ptr align 8 %lock) unnamed_addr #0 !dbg !701 {
start:
  %_4 = alloca ptr, align 8
  %_3 = getelementptr inbounds %"std::sync::mutex::Mutex<PinSlab<core::cell::Cell<i32>>>", ptr %lock, i32 0, i32 1, !dbg !703
; call std::sync::poison::Flag::guard
  %i = call fastcc { i8, i8 } @_ZN3std4sync6poison4Flag5guard17h160f683b257a35b6E(ptr align 1 %_3) #30, !dbg !703
  %i1 = extractvalue { i8, i8 } %i, 0, !dbg !703
  %_2.0 = trunc i8 %i1 to i1, !dbg !703
  %_2.1 = extractvalue { i8, i8 } %i, 1, !dbg !703
  store ptr %lock, ptr %_4, align 8, !dbg !704
; call std::sync::poison::map_result
  call fastcc void @_ZN3std4sync6poison10map_result17hc06b8d6028cad847E(ptr noalias align 8 %_0, i1 zeroext %_2.0, i8 %_2.1, ptr align 8 %lock) #30, !dbg !705
  ret void, !dbg !706
}

; std::sync::mutex::MutexGuard<T>::new::{{closure}}
; Function Attrs: inlinehint mustprogress nofree norecurse nosync nounwind willreturn memory(none)
define internal fastcc { ptr, i8 } @"_ZN3std4sync5mutex19MutexGuard$LT$T$GT$3new28_$u7b$$u7b$closure$u7d$$u7d$17hcfc2e5c57663edb1E"(ptr align 8 %arg, i1 zeroext %guard) unnamed_addr #5 !dbg !707 {
start:
  %_0 = alloca { ptr, i8 }, align 8
  %_1 = alloca ptr, align 8
  store ptr %arg, ptr %_1, align 8
  store ptr %arg, ptr %_0, align 8, !dbg !710
  %i = getelementptr inbounds { ptr, i8 }, ptr %_0, i32 0, i32 1, !dbg !710
  %i1 = zext i1 %guard to i8, !dbg !710
  store i8 %i1, ptr %i, align 8, !dbg !710
  %i7 = insertvalue { ptr, i8 } poison, ptr %arg, 0, !dbg !711
  %i8 = insertvalue { ptr, i8 } %i7, i8 %i1, 1, !dbg !711
  ret { ptr, i8 } %i8, !dbg !711
}

; std::sync::poison::map_result
; Function Attrs: mustprogress nofree norecurse nosync nounwind willreturn memory(argmem: write)
define internal fastcc void @_ZN3std4sync6poison10map_result17hc06b8d6028cad847E(ptr noalias nocapture writeonly align 8 %_0, i1 zeroext %arg, i8 %arg1, ptr align 8 %f) unnamed_addr #8 !dbg !712 {
start:
  %_10 = alloca i8, align 1
  %_8 = alloca { ptr, i8 }, align 8
  %_6 = alloca i8, align 1
  %result = alloca { i8, i8 }, align 1
  %i = zext i1 %arg to i8
  store i8 %i, ptr %result, align 1
  %i2 = getelementptr inbounds { i8, i8 }, ptr %result, i32 0, i32 1
  store i8 %arg1, ptr %i2, align 1
  br i1 %arg, label %bb1, label %Flow, !dbg !713

Flow:                                             ; preds = %bb1, %start
  %0 = phi i1 [ false, %bb1 ], [ true, %start ], !dbg !713
  br i1 %0, label %bb3, label %bb6, !dbg !713

bb3:                                              ; preds = %Flow
  %t = trunc i8 %arg1 to i1, !dbg !714
  %i8 = zext i1 %t to i8, !dbg !715
  store i8 %i8, ptr %_6, align 1, !dbg !715
; call std::sync::mutex::MutexGuard<T>::new::{{closure}}
  %i11 = call fastcc { ptr, i8 } @"_ZN3std4sync5mutex19MutexGuard$LT$T$GT$3new28_$u7b$$u7b$closure$u7d$$u7d$17hcfc2e5c57663edb1E"(ptr align 8 %f, i1 zeroext %t) #30, !dbg !715
  %_5.0 = extractvalue { ptr, i8 } %i11, 0, !dbg !715
  %i12 = extractvalue { ptr, i8 } %i11, 1, !dbg !715
  %_5.1 = trunc i8 %i12 to i1, !dbg !715
  %i13 = getelementptr inbounds %"core::result::Result<std::sync::mutex::MutexGuard<'_, PinSlab<core::cell::Cell<i32>>>, std::sync::poison::PoisonError<std::sync::mutex::MutexGuard<'_, PinSlab<core::cell::Cell<i32>>>>>::Ok", ptr %_0, i32 0, i32 1, !dbg !717
  store ptr %_5.0, ptr %i13, align 8, !dbg !717
  %i14 = getelementptr inbounds { ptr, i8 }, ptr %i13, i32 0, i32 1, !dbg !717
  %i15 = zext i1 %_5.1 to i8, !dbg !717
  store i8 %i15, ptr %i14, align 8, !dbg !717
  store i64 0, ptr %_0, align 8, !dbg !717
  br label %bb6, !dbg !718

bb1:                                              ; preds = %start
  %guard = trunc i8 %arg1 to i1, !dbg !719
  %i18 = zext i1 %guard to i8, !dbg !720
  store i8 %i18, ptr %_10, align 1, !dbg !720
; call std::sync::mutex::MutexGuard<T>::new::{{closure}}
  %i21 = call fastcc { ptr, i8 } @"_ZN3std4sync5mutex19MutexGuard$LT$T$GT$3new28_$u7b$$u7b$closure$u7d$$u7d$17hcfc2e5c57663edb1E"(ptr align 8 %f, i1 zeroext %guard) #30, !dbg !720
  %guard.0 = extractvalue { ptr, i8 } %i21, 0, !dbg !720
  %i22 = extractvalue { ptr, i8 } %i21, 1, !dbg !720
  %guard.1 = trunc i8 %i22 to i1, !dbg !720
  store ptr %guard.0, ptr %_8, align 8, !dbg !722
  %i23 = getelementptr inbounds { ptr, i8 }, ptr %_8, i32 0, i32 1, !dbg !722
  %i24 = zext i1 %guard.1 to i8, !dbg !722
  store i8 %i24, ptr %i23, align 8, !dbg !722
  %i29 = getelementptr inbounds %"core::result::Result<std::sync::mutex::MutexGuard<'_, PinSlab<core::cell::Cell<i32>>>, std::sync::poison::PoisonError<std::sync::mutex::MutexGuard<'_, PinSlab<core::cell::Cell<i32>>>>>::Err", ptr %_0, i32 0, i32 1, !dbg !727
  store ptr %guard.0, ptr %i29, align 8, !dbg !727
  %i30 = getelementptr inbounds { ptr, i8 }, ptr %i29, i32 0, i32 1, !dbg !727
  store i8 %i24, ptr %i30, align 8, !dbg !727
  store i64 1, ptr %_0, align 8, !dbg !727
  br label %Flow, !dbg !728

bb6:                                              ; preds = %bb3, %Flow
  ret void, !dbg !729
}

; std::sync::poison::Flag::guard
; Function Attrs: inlinehint nounwind
define internal fastcc { i8, i8 } @_ZN3std4sync6poison4Flag5guard17h160f683b257a35b6E(ptr nocapture readonly align 1 %self) unnamed_addr #1 !dbg !730 {
start:
  %_4 = alloca i8, align 1
  %ret = alloca i8, align 1
  %_0 = alloca { i8, i8 }, align 1
; call std::panicking::panic_count::count_is_zero
  %_5 = call fastcc zeroext i1 @_ZN3std9panicking11panic_count13count_is_zero17hb319381f95494a90E() #30, !dbg !731
  %_3 = xor i1 %_5, true, !dbg !740
  %i = zext i1 %_3 to i8, !dbg !741
  store i8 %i, ptr %ret, align 1, !dbg !741
; call core::sync::atomic::atomic_load
  %_7 = call fastcc i8 @_ZN4core4sync6atomic11atomic_load17h6919fcb1ea23728cE(ptr %self, i8 0) #30, !dbg !742
  %i1 = icmp ne i8 %_7, 0, !dbg !751
  br i1 %i1, label %bb1, label %Flow, !dbg !751

Flow:                                             ; preds = %bb1, %start
  %0 = phi i1 [ false, %bb1 ], [ true, %start ], !dbg !751
  br i1 %0, label %bb2, label %bb3, !dbg !751

bb2:                                              ; preds = %Flow
  %i4 = getelementptr inbounds { i8, i8 }, ptr %_0, i32 0, i32 1, !dbg !752
  store i8 %i, ptr %i4, align 1, !dbg !752
  store i8 0, ptr %_0, align 1, !dbg !752
  br label %bb3, !dbg !753

bb1:                                              ; preds = %start
  store i8 %i, ptr %_4, align 1, !dbg !754
  %i11 = getelementptr inbounds { i8, i8 }, ptr %_0, i32 0, i32 1, !dbg !758
  store i8 %i, ptr %i11, align 1, !dbg !758
  store i8 1, ptr %_0, align 1, !dbg !758
  br label %Flow, !dbg !753

bb3:                                              ; preds = %bb2, %Flow
  %i13 = phi i1 [ true, %Flow ], [ false, %bb2 ], !dbg !759
  %i17 = zext i1 %i13 to i8, !dbg !759
  %i18 = insertvalue { i8, i8 } poison, i8 %i17, 0, !dbg !759
  %i19 = insertvalue { i8, i8 } %i18, i8 %i, 1, !dbg !759
  ret { i8, i8 } %i19, !dbg !759
}

; std::thread::JoinInner<T>::join
; Function Attrs: nounwind
define internal fastcc { ptr, ptr } @"_ZN3std6thread18JoinInner$LT$T$GT$4join17hf37a981395aecda4E"(ptr align 8 %self) unnamed_addr #0 personality ptr @rust_eh_personality !dbg !760 {
start:
  %src = alloca %"core::option::Option<core::result::Result<(), alloc::boxed::Box<dyn core::any::Any + core::marker::Send>>>", align 8
  %self1 = alloca ptr, align 8
  %result = alloca %"core::option::Option<core::result::Result<(), alloc::boxed::Box<dyn core::any::Any + core::marker::Send>>>", align 8
  %i = getelementptr inbounds %"std::thread::JoinInner<'_, ()>", ptr %self, i32 0, i32 2, !dbg !762
  %_3 = load i64, ptr %i, align 8, !dbg !762, !noundef !15
; call std::sys::unix::thread::Thread::join
  call void @_ZN3std3sys4unix6thread6Thread4join17h85746201e5a6206dE(i64 %_3) #30, !dbg !762
  %this = getelementptr inbounds %"std::thread::JoinInner<'_, ()>", ptr %self, i32 0, i32 1, !dbg !763
; call alloc::sync::Arc<T,A>::is_unique
  %_10 = call fastcc zeroext i1 @"_ZN5alloc4sync16Arc$LT$T$C$A$GT$9is_unique17h12a722097c5aac76E"(ptr align 8 %this) #30, !dbg !764
  %_10.inv = xor i1 %_10, true
  br i1 %_10.inv, label %bb10, label %Flow, !dbg !764

bb10:                                             ; preds = %start
  store ptr null, ptr %self1, align 8, !dbg !771
  br label %Flow, !dbg !772

Flow:                                             ; preds = %bb10, %start
  %0 = phi i1 [ false, %bb10 ], [ true, %start ], !dbg !764
  br i1 %0, label %bb9, label %bb11, !dbg !764

bb9:                                              ; preds = %Flow
  %self2 = load ptr, ptr %this, align 8, !dbg !773, !nonnull !15, !noundef !15
  %_11 = getelementptr inbounds %"alloc::sync::ArcInner<std::thread::Packet<'_, ()>>", ptr %self2, i32 0, i32 2, !dbg !777
  store ptr %_11, ptr %self1, align 8, !dbg !779
  br label %bb11, !dbg !772

bb11:                                             ; preds = %bb9, %Flow
  %val = phi ptr [ null, %Flow ], [ %_11, %bb9 ], !dbg !780
  %i6 = ptrtoint ptr %val to i64, !dbg !780
  %i7 = icmp eq i64 %i6, 0, !dbg !780
  br i1 %i7, label %bb12, label %bb14, !dbg !784

bb12:                                             ; preds = %bb11
; call core::panicking::panic
  call void @_ZN4core9panicking5panic17h4b431f82891b8f60E(ptr align 1 @alloc_5f55955de67e57c79064b537689facea, i64 43, ptr align 8 @alloc_210632c49b2fd4ef0dc8e7c88d1b4c5b) #31, !dbg !785
  unreachable

bb14:                                             ; preds = %bb11
  store i64 0, ptr %src, align 8, !dbg !786
  %i8 = getelementptr inbounds %"std::thread::Packet<'_, ()>", ptr %val, i32 0, i32 1, !dbg !790
  call void @llvm.memcpy.p0.p0.i64(ptr align 8 %result, ptr align 8 %i8, i64 24, i1 false), !dbg !790
  call void @llvm.memcpy.p0.p0.i64(ptr align 8 %i8, ptr align 8 %src, i64 24, i1 false), !dbg !800
  %_19 = load i64, ptr %result, align 8, !dbg !806, !range !142, !noundef !15
  %i10 = icmp eq i64 %_19, 0, !dbg !810
  br i1 %i10, label %bb15, label %bb16, !dbg !810

bb15:                                             ; preds = %bb14
; call core::panicking::panic
  call void @_ZN4core9panicking5panic17h4b431f82891b8f60E(ptr align 1 @alloc_5f55955de67e57c79064b537689facea, i64 43, ptr align 8 @alloc_75b83b2c75f3b36b94a7518a66ad8875) #31, !dbg !811
  unreachable

bb16:                                             ; preds = %bb14
  %i11 = getelementptr inbounds %"core::option::Option<core::result::Result<(), alloc::boxed::Box<dyn core::any::Any + core::marker::Send>>>::Some", ptr %result, i32 0, i32 1, !dbg !812
  %val.0 = load ptr, ptr %i11, align 8, !dbg !812, !align !813, !noundef !15
  %i12 = getelementptr inbounds { ptr, ptr }, ptr %i11, i32 0, i32 1, !dbg !812
  %val.1 = load ptr, ptr %i12, align 8, !dbg !812
; call core::ptr::drop_in_place<std::thread::Thread>
  call fastcc void @"_ZN4core3ptr40drop_in_place$LT$std..thread..Thread$GT$17h5b153a16629d89b5E"(ptr align 8 %self) #30, !dbg !814
; call core::ptr::drop_in_place<alloc::sync::Arc<std::thread::Packet<()>>>
  call fastcc void @"_ZN4core3ptr80drop_in_place$LT$alloc..sync..Arc$LT$std..thread..Packet$LT$$LP$$RP$$GT$$GT$$GT$17hc618d9fd77f45283E"(ptr align 8 %this) #30, !dbg !814
  %i14 = insertvalue { ptr, ptr } poison, ptr %val.0, 0, !dbg !815
  %i15 = insertvalue { ptr, ptr } %i14, ptr %val.1, 1, !dbg !815
  ret { ptr, ptr } %i15, !dbg !815
}

; std::thread::JoinHandle<T>::join
; Function Attrs: nounwind
define internal fastcc { ptr, ptr } @"_ZN3std6thread19JoinHandle$LT$T$GT$4join17h717d60fd152a045bE"(ptr nocapture readonly align 8 %self) unnamed_addr #0 !dbg !816 {
start:
  %_2 = alloca %"std::thread::JoinInner<'_, ()>", align 8
  call void @llvm.memcpy.p0.p0.i64(ptr align 8 %_2, ptr align 8 %self, i64 24, i1 false), !dbg !818
; call std::thread::JoinInner<T>::join
  %i = call fastcc { ptr, ptr } @"_ZN3std6thread18JoinInner$LT$T$GT$4join17hf37a981395aecda4E"(ptr align 8 %_2) #30, !dbg !818
  ret { ptr, ptr } %i, !dbg !819
}

; std::thread::spawn
; Function Attrs: nounwind
define internal fastcc void @_ZN3std6thread5spawn17h5e1aa4707b1c3cfbE(ptr noalias nocapture writeonly align 8 %_0, ptr %arg) unnamed_addr #0 personality ptr @rust_eh_personality !dbg !820 {
start:
  %e.i = alloca ptr, align 8
  %_8 = alloca { i64, i64 }, align 8
  %_7 = alloca %"core::option::Option<alloc::string::String>", align 8
  %self = alloca %"std::thread::Builder", align 8
  %_2 = alloca %"core::result::Result<std::thread::JoinHandle<()>, std::io::error::Error>", align 8
  %f = alloca ptr, align 8
  store ptr %arg, ptr %f, align 8
  store i64 -9223372036854775808, ptr %_7, align 8, !dbg !821
  store i64 0, ptr %_8, align 8, !dbg !826
  %i = getelementptr inbounds %"std::thread::Builder", ptr %self, i32 0, i32 1, !dbg !827
  call void @llvm.memcpy.p0.p0.i64(ptr align 8 %i, ptr align 8 %_7, i64 24, i1 false), !dbg !827
  store i64 0, ptr %self, align 8, !dbg !827
  %i5 = getelementptr inbounds { i64, i64 }, ptr %self, i32 0, i32 1, !dbg !827
  store i64 undef, ptr %i5, align 8, !dbg !827
; call std::thread::Builder::spawn_unchecked
  call fastcc void @_ZN3std6thread7Builder15spawn_unchecked17h306fa9daed0d0418E(ptr noalias align 8 %_2, ptr align 8 %self, ptr %arg) #30, !dbg !828
  call void @llvm.lifetime.start.p0(i64 8, ptr %e.i), !dbg !833
  %i6 = load ptr, ptr %_2, align 8, !dbg !833, !noundef !15
  %i7 = ptrtoint ptr %i6 to i64, !dbg !833
  %i8 = icmp eq i64 %i7, 0, !dbg !833
  %_3.i = select i1 %i8, i64 1, i64 0, !dbg !833
  %i9 = icmp eq i64 %_3.i, 0, !dbg !836
  br i1 %i9, label %bb3.i, label %codeRepl.i, !dbg !836

bb3.i:                                            ; preds = %start
  call void @llvm.memcpy.p0.p0.i64(ptr align 8 %_0, ptr align 8 %_2, i64 24, i1 false), !dbg !837
  call void @llvm.lifetime.end.p0(i64 8, ptr %e.i), !dbg !838
  ret void, !dbg !839

codeRepl.i:                                       ; preds = %start
  %0 = getelementptr i8, ptr %_2, i64 8, !dbg !840
  %_2.val = load ptr, ptr %0, align 8, !dbg !840, !nonnull !15, !noundef !15
; call core::result::Result<T,E>::expect.11.bb1
  call fastcc void @"_ZN4core6result19Result$LT$T$C$E$GT$6expect17hcd4b7312d89098acE.11.bb1"(ptr %_2.val, ptr %e.i, ptr @alloc_e3605bf48dd8479a638909176cc37fce, i64 22, ptr @alloc_1f8c62d57f163807c7029893ad26ce72), !dbg !840
  unreachable
}

; std::thread::Builder::spawn_unchecked
; Function Attrs: nounwind
define internal fastcc void @_ZN3std6thread7Builder15spawn_unchecked17h306fa9daed0d0418E(ptr noalias nocapture writeonly align 8 %_0, ptr nocapture readonly align 8 %self, ptr %f) unnamed_addr #0 !dbg !841 {
start:
  %_12 = alloca ptr, align 8
  %residual = alloca ptr, align 8
  %self1 = alloca %"core::result::Result<std::thread::JoinInner<'_, ()>, std::io::error::Error>", align 8
  %_4 = alloca %"core::ops::control_flow::ControlFlow<core::result::Result<core::convert::Infallible, std::io::error::Error>, std::thread::JoinInner<'_, ()>>", align 8
; call std::thread::Builder::spawn_unchecked_
  call fastcc void @_ZN3std6thread7Builder16spawn_unchecked_17h6876a6f6d2599a51E(ptr noalias align 8 %self1, ptr align 8 %self, ptr %f, ptr null) #30, !dbg !842
  %i = load ptr, ptr %self1, align 8, !dbg !844, !noundef !15
  %i3 = ptrtoint ptr %i to i64, !dbg !844
  %i4 = icmp eq i64 %i3, 0, !dbg !844
  br i1 %i4, label %bb7, label %Flow17, !dbg !849

Flow17:                                           ; preds = %bb7, %start
  %0 = phi i1 [ false, %bb7 ], [ true, %start ], !dbg !849
  br i1 %0, label %bb8, label %bb6, !dbg !849

bb8:                                              ; preds = %Flow17
  call void @llvm.memcpy.p0.p0.i64(ptr align 8 %_4, ptr align 8 %self1, i64 24, i1 false), !dbg !850
  %i9.pre = load ptr, ptr %_4, align 8, !dbg !848
  br label %bb6, !dbg !851

bb7:                                              ; preds = %start
  %i6 = getelementptr inbounds %"core::result::Result<std::thread::JoinInner<'_, ()>, std::io::error::Error>::Err", ptr %self1, i32 0, i32 1, !dbg !852
  %e = load ptr, ptr %i6, align 8, !dbg !852, !nonnull !15, !noundef !15
  store ptr %e, ptr %_12, align 8, !dbg !853
  %i8 = getelementptr inbounds %"core::ops::control_flow::ControlFlow<core::result::Result<core::convert::Infallible, std::io::error::Error>, std::thread::JoinInner<'_, ()>>::Break", ptr %_4, i32 0, i32 1, !dbg !855
  store ptr %e, ptr %i8, align 8, !dbg !855
  store ptr null, ptr %_4, align 8, !dbg !855
  br label %Flow17, !dbg !856

bb6:                                              ; preds = %bb8, %Flow17
  %i9 = phi ptr [ null, %Flow17 ], [ %i9.pre, %bb8 ], !dbg !848
  %i10 = ptrtoint ptr %i9 to i64, !dbg !848
  %i11 = icmp eq i64 %i10, 0, !dbg !848
  br i1 %i11, label %bb4, label %Flow, !dbg !848

Flow:                                             ; preds = %bb4, %bb6
  %1 = phi i1 [ false, %bb4 ], [ true, %bb6 ], !dbg !848
  br i1 %1, label %bb2, label %bb5, !dbg !848

bb2:                                              ; preds = %Flow
  call void @llvm.memcpy.p0.p0.i64(ptr align 8 %_0, ptr align 8 %_4, i64 24, i1 false), !dbg !848
  br label %bb5, !dbg !857

bb4:                                              ; preds = %bb6
  %i13 = getelementptr inbounds %"core::ops::control_flow::ControlFlow<core::result::Result<core::convert::Infallible, std::io::error::Error>, std::thread::JoinInner<'_, ()>>::Break", ptr %_4, i32 0, i32 1, !dbg !858
  %i14 = load ptr, ptr %i13, align 8, !dbg !858, !nonnull !15, !noundef !15
  store ptr %i14, ptr %residual, align 8, !dbg !858
  %i15 = getelementptr inbounds %"core::result::Result<std::thread::JoinHandle<()>, std::io::error::Error>::Err", ptr %_0, i32 0, i32 1, !dbg !859
  store ptr %i14, ptr %i15, align 8, !dbg !859
  store ptr null, ptr %_0, align 8, !dbg !859
  br label %Flow, !dbg !857

bb5:                                              ; preds = %bb2, %Flow
  ret void, !dbg !867
}

; std::thread::Builder::spawn_unchecked_
; Function Attrs: nounwind
define internal fastcc void @_ZN3std6thread7Builder16spawn_unchecked_17h6876a6f6d2599a51E(ptr noalias nocapture writeonly align 8 %_0, ptr nocapture readonly align 8 %self, ptr %arg, ptr %arg29) unnamed_addr #0 personality ptr @rust_eh_personality !dbg !868 {
start:
  %e.i = alloca %"alloc::ffi::c_str::NulError", align 8
  %self.i = alloca ptr, align 8
  %_4.i17 = alloca { ptr, i64 }, align 8
  %layout.i = alloca { i64, i64 }, align 8
  %_100 = alloca ptr, align 8
  %_94 = alloca { ptr, ptr }, align 8
  %_93 = alloca { ptr, ptr }, align 8
  %leaked = alloca ptr, align 8
  %_86 = alloca ptr, align 8
  %b = alloca ptr, align 8
  %_68 = alloca ptr, align 8
  %_67 = alloca ptr, align 8
  %_59 = alloca ptr, align 8
  %_57 = alloca %"core::result::Result<alloc::ffi::c_str::CString, alloc::ffi::c_str::NulError>", align 8
  %x = alloca %"alloc::string::String", align 8
  %_51 = alloca i8, align 1
  %_50 = alloca i8, align 1
  %_49 = alloca i8, align 1
  %_48 = alloca i8, align 1
  %_47 = alloca i8, align 1
  %_46 = alloca i8, align 1
  %_45 = alloca i8, align 1
  %residual = alloca ptr, align 8
  %self5 = alloca %"core::result::Result<std::sys::unix::thread::Thread, std::io::error::Error>", align 8
  %_37 = alloca %"core::ops::control_flow::ControlFlow<core::result::Result<core::convert::Infallible, std::io::error::Error>, std::sys::unix::thread::Thread>", align 8
  %_36 = alloca %"std::thread::JoinInner<'_, ()>", align 8
  %main4 = alloca { ptr, ptr }, align 8
  %_33 = alloca %"{closure@std::thread::Builder::spawn_unchecked_<'_, '_, {closure@data/SAFE-RUSTSEC-2020-0116.rs:19:32: 19:39}, ()>::{closure#1}}", align 8
  %main = alloca %"{closure@std::thread::Builder::spawn_unchecked_<'_, '_, {closure@data/SAFE-RUSTSEC-2020-0116.rs:19:32: 19:39}, ()>::{closure#1}}", align 8
  %f3 = alloca ptr, align 8
  %_21 = alloca ptr, align 8
  %_20 = alloca ptr, align 8
  %output_capture = alloca ptr, align 8
  %their_packet = alloca ptr, align 8
  %value = alloca %"core::option::Option<core::result::Result<(), alloc::boxed::Box<dyn core::any::Any + core::marker::Send>>>", align 8
  %_13 = alloca %"std::thread::Packet<'_, ()>", align 8
  %my_packet = alloca ptr, align 8
  %their_thread = alloca ptr, align 8
  %self2 = alloca %"core::option::Option<alloc::string::String>", align 8
  %_8 = alloca { ptr, i64 }, align 8
  %my_thread = alloca ptr, align 8
  %stack_size1 = alloca i64, align 8
  %stack_size = alloca { i64, i64 }, align 8
  %name = alloca %"core::option::Option<alloc::string::String>", align 8
  %scope_data = alloca ptr, align 8
  %f = alloca ptr, align 8
  store ptr %arg, ptr %f, align 8
  store ptr %arg29, ptr %scope_data, align 8
  store i8 1, ptr %_51, align 1, !dbg !869
  store i8 1, ptr %_50, align 1, !dbg !869
  store i8 1, ptr %_49, align 1, !dbg !870
  %i = getelementptr inbounds %"std::thread::Builder", ptr %self, i32 0, i32 1, !dbg !870
  call void @llvm.memcpy.p0.p0.i64(ptr align 8 %name, ptr align 8 %i, i64 24, i1 false), !dbg !870
  %i30 = load i64, ptr %self, align 8, !dbg !871, !range !142, !noundef !15
  %i31 = getelementptr inbounds { i64, i64 }, ptr %self, i32 0, i32 1, !dbg !871
  %i32 = load i64, ptr %i31, align 8, !dbg !871
  store i64 %i30, ptr %stack_size, align 8, !dbg !871
  %i33 = getelementptr inbounds { i64, i64 }, ptr %stack_size, i32 0, i32 1, !dbg !871
  store i64 %i32, ptr %i33, align 8, !dbg !871
  %i34 = icmp ne i64 %i30, 0, !dbg !872
  br i1 %i34, label %bb37, label %Flow119, !dbg !872

Flow119:                                          ; preds = %bb37, %start
  %0 = phi i1 [ false, %bb37 ], [ true, %start ], !dbg !872
  br i1 %0, label %bb36, label %bb38, !dbg !872

bb36:                                             ; preds = %Flow119
; call core::ops::function::FnOnce::call_once
  %i35 = call fastcc i64 @_ZN4core3ops8function6FnOnce9call_once17hf9d6c4e1c1d3b1f8E() #30, !dbg !877
  store i64 %i35, ptr %stack_size1, align 8, !dbg !877
  br label %bb38, !dbg !877

bb37:                                             ; preds = %start
  store i64 %i32, ptr %stack_size1, align 8, !dbg !878
  br label %Flow119, !dbg !880

bb38:                                             ; preds = %bb36, %Flow119
  %_39 = phi i64 [ %i32, %Flow119 ], [ %i35, %bb36 ]
  store i8 0, ptr %_49, align 1, !dbg !881
  call void @llvm.memcpy.p0.p0.i64(ptr align 8 %self2, ptr align 8 %name, i64 24, i1 false), !dbg !881
  %i37 = load i64, ptr %self2, align 8, !dbg !883, !range !887, !noundef !15
  %i38 = icmp eq i64 %i37, -9223372036854775808, !dbg !883
  br i1 %i38, label %bb39, label %bb40, !dbg !888

bb39:                                             ; preds = %bb38
  store ptr null, ptr %_8, align 8, !dbg !889
  br label %bb41, !dbg !889

bb40:                                             ; preds = %bb38
  call void @llvm.memcpy.p0.p0.i64(ptr align 8 %x, ptr align 8 %name, i64 24, i1 false), !dbg !890
; call <T as alloc::ffi::c_str::CString::new::SpecNewImpl>::spec_new_impl
  call fastcc void @"_ZN66_$LT$T$u20$as$u20$alloc..ffi..c_str..CString..new..SpecNewImpl$GT$13spec_new_impl17hc2af0460cf035aa9E"(ptr noalias align 8 %_57, ptr align 8 %x) #30, !dbg !891
  call void @llvm.lifetime.start.p0(i64 32, ptr %e.i), !dbg !903
  %i39 = load i64, ptr %_57, align 8, !dbg !903, !range !887, !noundef !15
  %i40 = icmp eq i64 %i39, -9223372036854775808, !dbg !903
  br i1 %i40, label %bb3.i20, label %codeRepl.i19, !dbg !906

bb41:                                             ; preds = %bb3.i20, %bb39
  %i43 = phi i64 [ %t.1.i, %bb3.i20 ], [ undef, %bb39 ], !dbg !907
  %i41 = phi ptr [ %t.0.i, %bb3.i20 ], [ null, %bb39 ], !dbg !907
; call std::thread::Thread::new
  %i44 = call ptr @_ZN3std6thread6Thread3new17hea10f76511d1c31bE(ptr align 1 %i41, i64 %i43) #30, !dbg !907
  store ptr %i44, ptr %my_thread, align 8, !dbg !907
; call <alloc::sync::Arc<T,A> as core::clone::Clone>::clone
  %_61 = call fastcc ptr @"_ZN68_$LT$alloc..sync..Arc$LT$T$C$A$GT$$u20$as$u20$core..clone..Clone$GT$5clone17h0ef1fd1e0a18671bE"(ptr align 8 %my_thread) #30, !dbg !908
  store ptr %_61, ptr %_59, align 8, !dbg !908
  store ptr %_61, ptr %their_thread, align 8, !dbg !920
  store i8 1, ptr %_48, align 1, !dbg !921
  store i8 0, ptr %_50, align 1, !dbg !922
  store i64 0, ptr %value, align 8, !dbg !924
  %i46 = getelementptr inbounds %"std::thread::Packet<'_, ()>", ptr %_13, i32 0, i32 1, !dbg !925
  call void @llvm.memcpy.p0.p0.i64(ptr align 8 %i46, ptr align 8 %value, i64 24, i1 false), !dbg !926
  store ptr %arg29, ptr %_13, align 8, !dbg !925
; call alloc::sync::Arc<T>::new
  %i47 = call fastcc ptr @"_ZN5alloc4sync12Arc$LT$T$GT$3new17h36a506ff3d5dd8afE"(ptr align 8 %_13) #30, !dbg !930
  store ptr %i47, ptr %my_packet, align 8, !dbg !930
; call <alloc::sync::Arc<T,A> as core::clone::Clone>::clone
  %i48 = call fastcc ptr @"_ZN68_$LT$alloc..sync..Arc$LT$T$C$A$GT$$u20$as$u20$core..clone..Clone$GT$5clone17h0ef1fd1e0a18671bE"(ptr align 8 %my_packet) #30, !dbg !931
  store ptr %i48, ptr %their_packet, align 8, !dbg !931
  store i8 1, ptr %_47, align 1, !dbg !933
; call std::io::stdio::set_output_capture
  %i49 = call ptr @_ZN3std2io5stdio18set_output_capture17h065a585a611571f7E(ptr null) #30, !dbg !934
  store ptr %i49, ptr %output_capture, align 8, !dbg !934
  store i8 1, ptr %_46, align 1, !dbg !936
  %i51 = ptrtoint ptr %i49 to i64, !dbg !937
  %i52 = icmp ne i64 %i51, 0, !dbg !937
  br i1 %i52, label %bb47, label %Flow118, !dbg !943

bb3.i20:                                          ; preds = %bb40
  %i53 = getelementptr inbounds %"core::result::Result<alloc::ffi::c_str::CString, alloc::ffi::c_str::NulError>::Ok", ptr %_57, i32 0, i32 1, !dbg !944
  %t.0.i = load ptr, ptr %i53, align 8, !dbg !944, !nonnull !15, !align !813, !noundef !15
  %i54 = getelementptr inbounds { ptr, i64 }, ptr %i53, i32 0, i32 1, !dbg !944
  %t.1.i = load i64, ptr %i54, align 8, !dbg !944, !noundef !15
  call void @llvm.lifetime.end.p0(i64 32, ptr %e.i), !dbg !945
  store ptr %t.0.i, ptr %_8, align 8, !dbg !946
  %i55 = getelementptr inbounds { ptr, i64 }, ptr %_8, i32 0, i32 1, !dbg !946
  store i64 %t.1.i, ptr %i55, align 8, !dbg !946
  br label %bb41, !dbg !947

codeRepl.i19:                                     ; preds = %bb40
; call core::result::Result<T,E>::expect.12.bb1
  call fastcc void @"_ZN4core6result19Result$LT$T$C$E$GT$6expect17h667609159cbcc4e6E.12.bb1"(ptr %e.i, ptr %_57, ptr @alloc_498705839b3ae85466bce6e7ebfe4996, i64 47, ptr @alloc_10ce3643ab05b89124ccab86e25db141), !dbg !948
  unreachable

Flow118:                                          ; preds = %bb47, %bb41
  %1 = phi ptr [ %_65, %bb47 ], [ undef, %bb41 ]
  %2 = phi i1 [ false, %bb47 ], [ true, %bb41 ], !dbg !943
  br i1 %2, label %bb46, label %bb45, !dbg !943

bb46:                                             ; preds = %Flow118
  store ptr null, ptr %_21, align 8, !dbg !949
  br label %bb45, !dbg !949

bb47:                                             ; preds = %bb41
; call <alloc::sync::Arc<T,A> as core::clone::Clone>::clone
  %_65 = call fastcc ptr @"_ZN68_$LT$alloc..sync..Arc$LT$T$C$A$GT$$u20$as$u20$core..clone..Clone$GT$5clone17h0ef1fd1e0a18671bE"(ptr align 8 %output_capture) #30, !dbg !950
  store ptr %_65, ptr %_21, align 8, !dbg !952
  br label %Flow118, !dbg !953

bb45:                                             ; preds = %bb46, %Flow118
  %i56 = phi ptr [ %1, %Flow118 ], [ null, %bb46 ], !dbg !954
; call std::io::stdio::set_output_capture
  %i57 = call ptr @_ZN3std2io5stdio18set_output_capture17h065a585a611571f7E(ptr %i56) #30, !dbg !954
  store ptr %i57, ptr %_20, align 8, !dbg !954
  %i59 = ptrtoint ptr %i57 to i64, !dbg !955
  %i60 = icmp ne i64 %i59, 0, !dbg !955
  br i1 %i60, label %codeRepl.i23, label %bb6, !dbg !955

codeRepl.i23:                                     ; preds = %bb45
; call core::ptr::drop_in_place<core::option::Option<alloc::sync::Arc<std::sync::mutex::Mutex<alloc::vec::Vec<u8>>>>>.24.bb2
  call fastcc void @"_ZN4core3ptr129drop_in_place$LT$core..option..Option$LT$alloc..sync..Arc$LT$std..sync..mutex..Mutex$LT$alloc..vec..Vec$LT$u8$GT$$GT$$GT$$GT$$GT$17h9f28c48bc50b6401E.24.bb2"(ptr %_20), !dbg !955
  br label %bb6

bb6:                                              ; preds = %codeRepl.i23, %bb45
  store i8 0, ptr %_51, align 1, !dbg !958
  store ptr %arg, ptr %_68, align 8, !dbg !959
  store ptr %arg, ptr %_67, align 8, !dbg !970
  store ptr %arg, ptr %f3, align 8, !dbg !971
  store i8 0, ptr %_48, align 1, !dbg !972
  store i8 0, ptr %_46, align 1, !dbg !972
  store i8 0, ptr %_47, align 1, !dbg !972
  store i8 1, ptr %_45, align 1, !dbg !972
  store ptr %_61, ptr %main, align 8, !dbg !972
  %i64 = load ptr, ptr %output_capture, align 8, !dbg !972, !noundef !15
  %i65 = getelementptr inbounds %"{closure@std::thread::Builder::spawn_unchecked_<'_, '_, {closure@data/SAFE-RUSTSEC-2020-0116.rs:19:32: 19:39}, ()>::{closure#1}}", ptr %main, i32 0, i32 2, !dbg !972
  store ptr %i64, ptr %i65, align 8, !dbg !972
  %i67 = getelementptr inbounds %"{closure@std::thread::Builder::spawn_unchecked_<'_, '_, {closure@data/SAFE-RUSTSEC-2020-0116.rs:19:32: 19:39}, ()>::{closure#1}}", ptr %main, i32 0, i32 3, !dbg !972
  store ptr %arg, ptr %i67, align 8, !dbg !972
  %i69 = getelementptr inbounds %"{closure@std::thread::Builder::spawn_unchecked_<'_, '_, {closure@data/SAFE-RUSTSEC-2020-0116.rs:19:32: 19:39}, ()>::{closure#1}}", ptr %main, i32 0, i32 1, !dbg !972
  store ptr %i48, ptr %i69, align 8, !dbg !972
  %self8 = load ptr, ptr %my_packet, align 8, !dbg !974, !nonnull !15, !noundef !15
  %i70 = getelementptr inbounds %"alloc::sync::ArcInner<std::thread::Packet<'_, ()>>", ptr %self8, i32 0, i32 2, !dbg !989
  %i71 = load ptr, ptr %i70, align 8, !dbg !989, !noundef !15
  %i72 = ptrtoint ptr %i71 to i64, !dbg !989
  %i73 = icmp eq i64 %i72, 0, !dbg !989
  %_27 = select i1 %i73, i64 0, i64 1, !dbg !989
  %i74 = icmp eq i64 %_27, 1, !dbg !989
  br i1 %i74, label %bb7, label %bb9, !dbg !989

bb7:                                              ; preds = %bb6
  %_30 = getelementptr inbounds %"alloc::sync::ArcInner<std::thread::scoped::ScopeData>", ptr %i71, i32 0, i32 2, !dbg !990
; call std::thread::scoped::ScopeData::increment_num_running_threads
  call void @_ZN3std6thread6scoped9ScopeData29increment_num_running_threads17h3feb1e087ca97cebE(ptr align 8 %_30) #30, !dbg !990
  br label %bb9, !dbg !991

bb9:                                              ; preds = %bb7, %bb6
  store i8 0, ptr %_45, align 1, !dbg !992
  call void @llvm.memcpy.p0.p0.i64(ptr align 8 %_33, ptr align 8 %main, i64 32, i1 false), !dbg !992
  call void @llvm.lifetime.start.p0(i64 8, ptr %self.i), !dbg !993
  call void @llvm.lifetime.start.p0(i64 16, ptr %_4.i17), !dbg !993
  call void @llvm.lifetime.start.p0(i64 16, ptr %layout.i), !dbg !993
  %i76 = getelementptr inbounds { i64, i64 }, ptr %layout.i, i32 0, i32 1, !dbg !993
  store i64 32, ptr %i76, align 8, !dbg !993
  store i64 8, ptr %layout.i, align 8, !dbg !993
; call alloc::alloc::Global::alloc_impl
  %i80 = call fastcc { ptr, i64 } @_ZN5alloc5alloc6Global10alloc_impl17hdb69425ee4df2eddE(i64 8, i64 32, i1 zeroext false) #30, !dbg !1011
  store { ptr, i64 } %i80, ptr %_4.i17, align 8, !dbg !1011
  %i81 = load ptr, ptr %_4.i17, align 8, !dbg !1017, !noundef !15
  %i82 = ptrtoint ptr %i81 to i64, !dbg !1017
  %i83 = icmp eq i64 %i82, 0, !dbg !1017
  %_5.i = select i1 %i83, i64 1, i64 0, !dbg !1017
  %i84 = icmp eq i64 %_5.i, 0, !dbg !1018
  br i1 %i84, label %bb3.i, label %codeRepl.i, !dbg !1018

bb3.i:                                            ; preds = %bb9
  store ptr %i81, ptr %self.i, align 8, !dbg !1019
  call void @llvm.lifetime.end.p0(i64 8, ptr %self.i), !dbg !1032
  call void @llvm.lifetime.end.p0(i64 16, ptr %_4.i17), !dbg !1032
  call void @llvm.lifetime.end.p0(i64 16, ptr %layout.i), !dbg !1032
  call void @llvm.memcpy.p0.p0.i64(ptr align 8 %i81, ptr align 8 %main, i64 32, i1 false), !dbg !1033
  store ptr %i81, ptr %b, align 8, !dbg !1034
  store ptr %i81, ptr %_86, align 8, !dbg !1043
  store ptr %i81, ptr %leaked, align 8, !dbg !1055
  store ptr %i81, ptr %_94, align 8, !dbg !1063
  %i85 = getelementptr inbounds { ptr, ptr }, ptr %_94, i32 0, i32 1, !dbg !1063
  store ptr @vtable.2, ptr %i85, align 8, !dbg !1063
  store ptr %i81, ptr %_93, align 8, !dbg !1080
  %i89 = getelementptr inbounds { ptr, ptr }, ptr %_93, i32 0, i32 1, !dbg !1080
  store ptr @vtable.2, ptr %i89, align 8, !dbg !1080
  store ptr %i81, ptr %main4, align 8, !dbg !1081
  %i93 = getelementptr inbounds { ptr, ptr }, ptr %main4, i32 0, i32 1, !dbg !1081
  store ptr @vtable.2, ptr %i93, align 8, !dbg !1081
; call std::sys::unix::thread::Thread::new
  call void @_ZN3std3sys4unix6thread6Thread3new17h355f164341fcc5b0E(ptr sret(%"core::result::Result<std::sys::unix::thread::Thread, std::io::error::Error>") align 8 %self5, i64 %_39, ptr align 1 %i81, ptr align 8 @vtable.2) #30, !dbg !1082
  %_97 = load i64, ptr %self5, align 8, !dbg !1085, !range !142, !noundef !15
  %i97 = icmp ne i64 %_97, 0, !dbg !1088
  br i1 %i97, label %bb50, label %Flow117, !dbg !1088

codeRepl.i:                                       ; preds = %bb9
  %layout.i.val = load i64, ptr %layout.i, align 8, !dbg !1089, !range !1090, !noundef !15
  %3 = getelementptr i8, ptr %layout.i, i64 8, !dbg !1089
  %layout.i.val120 = load i64, ptr %3, align 8, !dbg !1089, !noundef !15
; call alloc::alloc::exchange_malloc.8.bb1
  call fastcc void @_ZN5alloc5alloc15exchange_malloc17h4042950d41e1a0b3E.8.bb1(i64 %layout.i.val, i64 %layout.i.val120), !dbg !1089
  unreachable

Flow117:                                          ; preds = %bb50, %bb3.i
  %4 = phi ptr [ %e, %bb50 ], [ undef, %bb3.i ]
  %5 = phi i64 [ %8, %bb50 ], [ undef, %bb3.i ]
  %6 = phi i1 [ false, %bb50 ], [ true, %bb3.i ], !dbg !1088
  br i1 %6, label %bb51, label %bb49, !dbg !1088

bb51:                                             ; preds = %Flow117
  %i98 = getelementptr inbounds %"core::result::Result<std::sys::unix::thread::Thread, std::io::error::Error>::Ok", ptr %self5, i32 0, i32 1, !dbg !1091
  %v = load i64, ptr %i98, align 8, !dbg !1091, !noundef !15
  %i99 = getelementptr inbounds %"core::ops::control_flow::ControlFlow<core::result::Result<core::convert::Infallible, std::io::error::Error>, std::sys::unix::thread::Thread>::Continue", ptr %_37, i32 0, i32 1, !dbg !1092
  store i64 %v, ptr %i99, align 8, !dbg !1092
  store i64 0, ptr %_37, align 8, !dbg !1092
  %7 = inttoptr i64 %v to ptr, !dbg !1094
  br label %bb49, !dbg !1094

bb50:                                             ; preds = %bb3.i
  %i100 = getelementptr inbounds %"core::result::Result<std::sys::unix::thread::Thread, std::io::error::Error>::Err", ptr %self5, i32 0, i32 1, !dbg !1095
  %e = load ptr, ptr %i100, align 8, !dbg !1095, !nonnull !15, !noundef !15
  store ptr %e, ptr %_100, align 8, !dbg !1096
  %i102 = getelementptr inbounds %"core::ops::control_flow::ControlFlow<core::result::Result<core::convert::Infallible, std::io::error::Error>, std::sys::unix::thread::Thread>::Break", ptr %_37, i32 0, i32 1, !dbg !1098
  store ptr %e, ptr %i102, align 8, !dbg !1098
  store i64 1, ptr %_37, align 8, !dbg !1098
  %8 = ptrtoint ptr %e to i64, !dbg !1099
  br label %Flow117, !dbg !1099

bb49:                                             ; preds = %bb51, %Flow117
  %val = phi i64 [ %5, %Flow117 ], [ %v, %bb51 ]
  %i108 = phi ptr [ %4, %Flow117 ], [ %7, %bb51 ]
  %_40 = phi i64 [ 1, %Flow117 ], [ 0, %bb51 ], !dbg !1082
  %i103 = icmp ne i64 %_40, 0, !dbg !1082
  br i1 %i103, label %bb14, label %Flow, !dbg !1082

Flow:                                             ; preds = %bb14, %bb49
  %9 = phi i1 [ false, %bb14 ], [ true, %bb49 ], !dbg !1082
  br i1 %9, label %bb12, label %bb17, !dbg !1082

bb12:                                             ; preds = %Flow
  %_43 = load ptr, ptr %my_thread, align 8, !dbg !1100, !nonnull !15, !noundef !15
  %_44 = load ptr, ptr %my_packet, align 8, !dbg !1101, !nonnull !15, !noundef !15
  %i105 = getelementptr inbounds %"std::thread::JoinInner<'_, ()>", ptr %_36, i32 0, i32 2, !dbg !1102
  store i64 %val, ptr %i105, align 8, !dbg !1102
  store ptr %_43, ptr %_36, align 8, !dbg !1102
  %i106 = getelementptr inbounds %"std::thread::JoinInner<'_, ()>", ptr %_36, i32 0, i32 1, !dbg !1102
  store ptr %_44, ptr %i106, align 8, !dbg !1102
  call void @llvm.memcpy.p0.p0.i64(ptr align 8 %_0, ptr align 8 %_36, i64 24, i1 false), !dbg !1103
  br label %bb17, !dbg !1104

bb14:                                             ; preds = %bb49
  store ptr %i108, ptr %residual, align 8, !dbg !1105
  %i109 = getelementptr inbounds %"core::result::Result<std::thread::JoinInner<'_, ()>, std::io::error::Error>::Err", ptr %_0, i32 0, i32 1, !dbg !1106
  store ptr %i108, ptr %i109, align 8, !dbg !1106
  store ptr null, ptr %_0, align 8, !dbg !1106
; call core::ptr::drop_in_place<alloc::sync::Arc<std::thread::Packet<()>>>
  call fastcc void @"_ZN4core3ptr80drop_in_place$LT$alloc..sync..Arc$LT$std..thread..Packet$LT$$LP$$RP$$GT$$GT$$GT$17hc618d9fd77f45283E"(ptr align 8 %my_packet) #30, !dbg !1113
; call core::ptr::drop_in_place<std::thread::Thread>
  call fastcc void @"_ZN4core3ptr40drop_in_place$LT$std..thread..Thread$GT$17h5b153a16629d89b5E"(ptr align 8 %my_thread) #30, !dbg !1114
  br label %Flow, !dbg !1104

bb17:                                             ; preds = %bb12, %Flow
  ret void, !dbg !1115
}

; std::thread::Builder::spawn_unchecked_::{{closure}}
; Function Attrs: inlinehint nounwind
define internal fastcc void @"_ZN3std6thread7Builder16spawn_unchecked_28_$u7b$$u7b$closure$u7d$$u7d$17h2b536c4203057e72E"(ptr align 8 %_1) unnamed_addr #1 personality ptr @rust_eh_personality !dbg !1116 {
start:
  %_26 = alloca i8, align 1
  %_25 = alloca i8, align 1
  %_24 = alloca i8, align 1
  %_23 = alloca i8, align 1
  %_22 = alloca i8, align 1
  %_x = alloca ptr, align 8
  %_17 = alloca %"core::option::Option<core::result::Result<(), alloc::boxed::Box<dyn core::any::Any + core::marker::Send>>>", align 8
  %_16 = alloca ptr, align 8
  %f1 = alloca ptr, align 8
  %_12 = alloca %"core::option::Option<core::ops::range::Range<usize>>", align 8
  %self = alloca ptr, align 8
  %f = alloca ptr, align 8
  %_7 = alloca ptr, align 8
  %_2 = alloca { ptr, i64 }, align 8
  store i8 1, ptr %_23, align 1, !dbg !1117
  store i8 1, ptr %_24, align 1, !dbg !1117
  store i8 1, ptr %_25, align 1, !dbg !1117
  store i8 1, ptr %_26, align 1, !dbg !1117
; call std::thread::Thread::cname
  %i = call { ptr, i64 } @_ZN3std6thread6Thread5cname17hbb2703584f053ab0E(ptr align 8 %_1) #30, !dbg !1118
  store { ptr, i64 } %i, ptr %_2, align 8, !dbg !1118
  %i11 = load ptr, ptr %_2, align 8, !dbg !1120, !noundef !15
  %i12 = ptrtoint ptr %i11 to i64, !dbg !1120
  %i13 = icmp eq i64 %i12, 0, !dbg !1120
  %_4 = select i1 %i13, i64 0, i64 1, !dbg !1120
  %i14 = icmp eq i64 %_4, 1, !dbg !1120
  br i1 %i14, label %bb2, label %bb3, !dbg !1120

bb2:                                              ; preds = %start
  %i15 = getelementptr inbounds { ptr, i64 }, ptr %_2, i32 0, i32 1, !dbg !1121
  %name.1 = load i64, ptr %i15, align 8, !dbg !1121, !noundef !15
; call std::sys::unix::thread::Thread::set_name
  call void @_ZN3std3sys4unix6thread6Thread8set_name17h8d8dc4aa80c8a3c0E(ptr align 1 %i11, i64 %name.1) #30, !dbg !1122
  br label %bb3, !dbg !1122

bb3:                                              ; preds = %bb2, %start
  store i8 0, ptr %_26, align 1, !dbg !1123
  %i16 = getelementptr inbounds %"{closure@std::thread::Builder::spawn_unchecked_<'_, '_, {closure@data/SAFE-RUSTSEC-2020-0116.rs:19:32: 19:39}, ()>::{closure#1}}", ptr %_1, i32 0, i32 2, !dbg !1123
  %_8 = load ptr, ptr %i16, align 8, !dbg !1123, !noundef !15
; call std::io::stdio::set_output_capture
  %i17 = call ptr @_ZN3std2io5stdio18set_output_capture17h065a585a611571f7E(ptr %_8) #30, !dbg !1124
  store ptr %i17, ptr %_7, align 8, !dbg !1124
  %i19 = ptrtoint ptr %i17 to i64, !dbg !1125
  %i20 = icmp ne i64 %i19, 0, !dbg !1125
  br i1 %i20, label %codeRepl.i7, label %bb5, !dbg !1125

codeRepl.i7:                                      ; preds = %bb3
; call core::ptr::drop_in_place<core::option::Option<alloc::sync::Arc<std::sync::mutex::Mutex<alloc::vec::Vec<u8>>>>>.24.bb2
  call fastcc void @"_ZN4core3ptr129drop_in_place$LT$core..option..Option$LT$alloc..sync..Arc$LT$std..sync..mutex..Mutex$LT$alloc..vec..Vec$LT$u8$GT$$GT$$GT$$GT$$GT$17h9f28c48bc50b6401E.24.bb2"(ptr %_7), !dbg !1125
  br label %bb5

bb5:                                              ; preds = %codeRepl.i7, %bb3
  store i8 0, ptr %_25, align 1, !dbg !1127
  %i21 = getelementptr inbounds %"{closure@std::thread::Builder::spawn_unchecked_<'_, '_, {closure@data/SAFE-RUSTSEC-2020-0116.rs:19:32: 19:39}, ()>::{closure#1}}", ptr %_1, i32 0, i32 3, !dbg !1127
  %i22 = load ptr, ptr %i21, align 8, !dbg !1127
  store ptr %i22, ptr %self, align 8, !dbg !1127
  store ptr %i22, ptr %f, align 8, !dbg !1128
  store i8 1, ptr %_22, align 1, !dbg !1145
; call std::sys::unix::thread::guard::current
  call void @_ZN3std3sys4unix6thread5guard7current17h755f65218ad3799aE(ptr sret(%"core::option::Option<core::ops::range::Range<usize>>") align 8 %_12) #30, !dbg !1146
  store i8 0, ptr %_24, align 1, !dbg !1149
  %_13 = load ptr, ptr %_1, align 8, !dbg !1149, !nonnull !15, !noundef !15
; call std::sys_common::thread_info::set
  call void @_ZN3std10sys_common11thread_info3set17h0398e903bd4752c0E(ptr align 8 %_12, ptr %_13) #30, !dbg !1150
  store i8 0, ptr %_22, align 1, !dbg !1151
  store ptr %i22, ptr %_16, align 8, !dbg !1151
  store ptr %i22, ptr %f1, align 8, !dbg !1152
; call std::panicking::try
  %i27 = call fastcc { ptr, ptr } @_ZN3std9panicking3try17h99c96cc97649e0d5E(ptr %i22) #30, !dbg !1153
  %try_result.0 = extractvalue { ptr, ptr } %i27, 0, !dbg !1153
  %try_result.1 = extractvalue { ptr, ptr } %i27, 1, !dbg !1153
  %i28 = getelementptr inbounds %"core::option::Option<core::result::Result<(), alloc::boxed::Box<dyn core::any::Any + core::marker::Send>>>::Some", ptr %_17, i32 0, i32 1, !dbg !1160
  store ptr %try_result.0, ptr %i28, align 8, !dbg !1160
  %i29 = getelementptr inbounds { ptr, ptr }, ptr %i28, i32 0, i32 1, !dbg !1160
  store ptr %try_result.1, ptr %i29, align 8, !dbg !1160
  store i64 1, ptr %_17, align 8, !dbg !1160
  %i30 = getelementptr inbounds %"{closure@std::thread::Builder::spawn_unchecked_<'_, '_, {closure@data/SAFE-RUSTSEC-2020-0116.rs:19:32: 19:39}, ()>::{closure#1}}", ptr %_1, i32 0, i32 1, !dbg !1163
  %self4 = load ptr, ptr %i30, align 8, !dbg !1163, !nonnull !15, !noundef !15
  %i31 = getelementptr inbounds %"alloc::sync::ArcInner<std::thread::Packet<'_, ()>>", ptr %self4, i32 0, i32 2, !dbg !1175
  %_39 = getelementptr inbounds %"std::thread::Packet<'_, ()>", ptr %i31, i32 0, i32 1, !dbg !1175
  %_2.i = load i64, ptr %_39, align 8, !dbg !1179, !range !142, !noundef !15
  %i32 = icmp ne i64 %_2.i, 0, !dbg !1179
  br i1 %i32, label %codeRepl.i, label %bb8, !dbg !1179

codeRepl.i:                                       ; preds = %bb5
; call core::ptr::drop_in_place<core::option::Option<core::result::Result<(),alloc::boxed::Box<dyn core::any::Any+core::marker::Send>>>>.22.bb2
  call fastcc void @"_ZN4core3ptr158drop_in_place$LT$core..option..Option$LT$core..result..Result$LT$$LP$$RP$$C$alloc..boxed..Box$LT$dyn$u20$core..any..Any$u2b$core..marker..Send$GT$$GT$$GT$$GT$17hb4a0149a477989f8E.22.bb2"(ptr %_39), !dbg !1179
  br label %bb8

bb8:                                              ; preds = %codeRepl.i, %bb5
  call void @llvm.memcpy.p0.p0.i64(ptr align 8 %_39, ptr align 8 %_17, i64 24, i1 false), !dbg !1182
  store i8 0, ptr %_23, align 1, !dbg !1183
  %i34 = load ptr, ptr %i30, align 8, !dbg !1183, !nonnull !15, !noundef !15
  store ptr %i34, ptr %_x, align 8, !dbg !1183
; call core::ptr::drop_in_place<alloc::sync::Arc<std::thread::Packet<()>>>
  call fastcc void @"_ZN4core3ptr80drop_in_place$LT$alloc..sync..Arc$LT$std..thread..Packet$LT$$LP$$RP$$GT$$GT$$GT$17hc618d9fd77f45283E"(ptr align 8 %_x) #30, !dbg !1184
  ret void, !dbg !1188
}

; std::thread::Builder::spawn_unchecked_::{{closure}}::{{closure}}
; Function Attrs: inlinehint nounwind
define internal fastcc void @"_ZN3std6thread7Builder16spawn_unchecked_28_$u7b$$u7b$closure$u7d$$u7d$28_$u7b$$u7b$closure$u7d$$u7d$17h092cb50209e8e619E"(ptr %_1) unnamed_addr #1 !dbg !1189 {
start:
; call std::sys_common::backtrace::__rust_begin_short_backtrace
  call fastcc void @_ZN3std10sys_common9backtrace28__rust_begin_short_backtrace17h5df54eb2e93d1f16E(ptr %_1) #30, !dbg !1191
  ret void, !dbg !1192
}

; std::panicking::panic_count::count_is_zero
; Function Attrs: inlinehint nounwind
define internal fastcc zeroext i1 @_ZN3std9panicking11panic_count13count_is_zero17hb319381f95494a90E() unnamed_addr #1 !dbg !1193 {
start:
  %_0 = alloca i8, align 1
; call core::sync::atomic::atomic_load
  %_2 = call fastcc i64 @_ZN4core4sync6atomic11atomic_load17h0ac1c24e09f93c18E(ptr @_ZN3std9panicking11panic_count18GLOBAL_PANIC_COUNT17hca5345081bf4881cE, i8 0) #30, !dbg !1195
  %_1 = and i64 %_2, 9223372036854775807, !dbg !1201
  %i = icmp ne i64 %_1, 0, !dbg !1201
  br i1 %i, label %bb2, label %Flow, !dbg !1201

Flow:                                             ; preds = %bb2, %start
  %0 = phi i1 [ %i1, %bb2 ], [ undef, %start ]
  %1 = phi i1 [ false, %bb2 ], [ true, %start ], !dbg !1201
  br i1 %1, label %bb1, label %bb3, !dbg !1201

bb1:                                              ; preds = %Flow
  store i8 1, ptr %_0, align 1, !dbg !1202
  br label %bb3, !dbg !1203

bb2:                                              ; preds = %start
; call std::panicking::panic_count::is_zero_slow_path
  %i1 = call zeroext i1 @_ZN3std9panicking11panic_count17is_zero_slow_path17h9846bfdff4f4da54E() #30, !dbg !1204
  %i2 = zext i1 %i1 to i8, !dbg !1204
  store i8 %i2, ptr %_0, align 1, !dbg !1204
  br label %Flow, !dbg !1204

bb3:                                              ; preds = %bb1, %Flow
  %i3 = phi i1 [ %0, %Flow ], [ true, %bb1 ], !dbg !1205
  ret i1 %i3, !dbg !1205
}

; std::panicking::try
; Function Attrs: nounwind
define internal fastcc { ptr, ptr } @_ZN3std9panicking3try17h99c96cc97649e0d5E(ptr %f) unnamed_addr #0 !dbg !1206 {
start:
  %i = alloca i32, align 4
  %_3 = alloca ptr, align 8
  %data = alloca %"std::panicking::try::Data<core::panic::unwind_safe::AssertUnwindSafe<{closure@std::thread::Builder::spawn_unchecked_<'_, '_, {closure@data/SAFE-RUSTSEC-2020-0116.rs:19:32: 19:39}, ()>::{closure#1}::{closure#0}}>, ()>", align 8
  %_0 = alloca { ptr, ptr }, align 8
  store ptr %f, ptr %_3, align 8, !dbg !1207
  store ptr %f, ptr %data, align 8, !dbg !1211
  %data.val = load ptr, ptr %data, align 8, !dbg !1212, !nonnull !15, !noundef !15
; call std::panicking::try::do_call
  call fastcc void @_ZN3std9panicking3try7do_call17hdc3be051c5cfe2d8E(ptr %data.val), !dbg !1212
  store i32 0, ptr %i, align 4, !dbg !1212
  br label %bb2

bb2:                                              ; preds = %start
  store ptr null, ptr %_0, align 8, !dbg !1216
  br label %bb4, !dbg !1217

bb4:                                              ; preds = %bb2
  ret { ptr, ptr } { ptr null, ptr undef }, !dbg !1218
}

; std::panicking::try
; Function Attrs: nounwind
define internal fastcc { ptr, ptr } @_ZN3std9panicking3try17hc58368f25b84183dE(ptr align 8 %f) unnamed_addr #0 !dbg !1219 {
start:
  %i = alloca i32, align 4
  %_3 = alloca ptr, align 8
  %data = alloca %"std::panicking::try::Data<core::panic::unwind_safe::AssertUnwindSafe<{closure@<std::thread::Packet<'_, ()> as core::ops::drop::Drop>::drop::{closure#0}}>, ()>", align 8
  %_0 = alloca { ptr, ptr }, align 8
  store ptr %f, ptr %_3, align 8, !dbg !1220
  store ptr %f, ptr %data, align 8, !dbg !1224
  %data.val = load ptr, ptr %data, align 8, !dbg !1225, !nonnull !15, !align !599, !noundef !15
; call std::panicking::try::do_call
  call fastcc void @_ZN3std9panicking3try7do_call17h585bae96e1c44dc1E(ptr %data.val), !dbg !1225
  store i32 0, ptr %i, align 4, !dbg !1225
  br label %bb2

bb2:                                              ; preds = %start
  store ptr null, ptr %_0, align 8, !dbg !1229
  br label %bb4, !dbg !1230

bb4:                                              ; preds = %bb2
  ret { ptr, ptr } { ptr null, ptr undef }, !dbg !1231
}

; std::panicking::try::do_call
; Function Attrs: inlinehint nounwind
define internal fastcc void @_ZN3std9panicking3try7do_call17h585bae96e1c44dc1E(ptr %data.0.val) unnamed_addr #1 !dbg !1232 {
start:
  %0 = icmp ne ptr %data.0.val, null
  call void @llvm.assume(i1 %0)
; call <core::panic::unwind_safe::AssertUnwindSafe<F> as core::ops::function::FnOnce<()>>::call_once
  call fastcc void @"_ZN115_$LT$core..panic..unwind_safe..AssertUnwindSafe$LT$F$GT$$u20$as$u20$core..ops..function..FnOnce$LT$$LP$$RP$$GT$$GT$9call_once17he3970fcae4a74d6cE"(ptr align 8 %data.0.val) #30, !dbg !1234
  ret void, !dbg !1239
}

; std::panicking::try::do_call
; Function Attrs: inlinehint nounwind
define internal fastcc void @_ZN3std9panicking3try7do_call17hdc3be051c5cfe2d8E(ptr %data.0.val) unnamed_addr #1 !dbg !1240 {
start:
  %0 = icmp ne ptr %data.0.val, null
  call void @llvm.assume(i1 %0)
; call <core::panic::unwind_safe::AssertUnwindSafe<F> as core::ops::function::FnOnce<()>>::call_once
  call fastcc void @"_ZN115_$LT$core..panic..unwind_safe..AssertUnwindSafe$LT$F$GT$$u20$as$u20$core..ops..function..FnOnce$LT$$LP$$RP$$GT$$GT$9call_once17h74c2387fc1a3a8ebE"(ptr %data.0.val) #30, !dbg !1241
  ret void, !dbg !1246
}

; <&T as core::fmt::Debug>::fmt
; Function Attrs: nounwind
define internal zeroext i1 @"_ZN42_$LT$$RF$T$u20$as$u20$core..fmt..Debug$GT$3fmt17h22624cf4458a0836E"(ptr nocapture readonly align 8 %self, ptr align 8 %f) unnamed_addr #0 !dbg !1247 {
start:
  %_3 = load ptr, ptr %self, align 8, !dbg !1251, !nonnull !15, !align !599, !noundef !15
  %0 = getelementptr i8, ptr %_3, i64 8, !dbg !1252
  %_3.val = load ptr, ptr %0, align 8, !dbg !1252, !nonnull !15, !noundef !15
  %1 = getelementptr i8, ptr %_3, i64 16, !dbg !1252
  %_3.val1 = load i64, ptr %1, align 8, !dbg !1252, !noundef !15
; call <alloc::vec::Vec<T,A> as core::fmt::Debug>::fmt
  %_0 = call fastcc zeroext i1 @"_ZN65_$LT$alloc..vec..Vec$LT$T$C$A$GT$$u20$as$u20$core..fmt..Debug$GT$3fmt17hf1be33e541514685E"(ptr %_3.val, i64 %_3.val1, ptr align 8 %f) #30, !dbg !1252
  ret i1 %_0, !dbg !1253
}

; <&T as core::fmt::Debug>::fmt
; Function Attrs: nounwind
define internal zeroext i1 @"_ZN42_$LT$$RF$T$u20$as$u20$core..fmt..Debug$GT$3fmt17ha475a0539b65b617E"(ptr nocapture readonly align 8 %self, ptr align 8 %f) unnamed_addr #0 !dbg !1254 {
start:
  %_3 = load ptr, ptr %self, align 8, !dbg !1255, !nonnull !15, !align !813, !noundef !15
; call core::fmt::num::<impl core::fmt::Debug for u8>::fmt
  %_0 = call fastcc zeroext i1 @"_ZN4core3fmt3num49_$LT$impl$u20$core..fmt..Debug$u20$for$u20$u8$GT$3fmt17h2c17d02e0aece416E"(ptr align 1 %_3, ptr align 8 %f) #30, !dbg !1256
  ret i1 %_0, !dbg !1257
}

; <&A as core::alloc::Allocator>::deallocate
; Function Attrs: inlinehint nounwind
define internal fastcc void @"_ZN48_$LT$$RF$A$u20$as$u20$core..alloc..Allocator$GT$10deallocate17h1ccf9cd700c05232E"(ptr %ptr, i64 %layout.0, i64 %layout.1) unnamed_addr #1 !dbg !1258 {
start:
; call <alloc::alloc::Global as core::alloc::Allocator>::deallocate
  call fastcc void @"_ZN63_$LT$alloc..alloc..Global$u20$as$u20$core..alloc..Allocator$GT$10deallocate17h5eecd4341dfebf71E"(ptr %ptr, i64 %layout.0, i64 %layout.1) #30, !dbg !1261
  ret void, !dbg !1263
}

; <[T] as core::fmt::Debug>::fmt
; Function Attrs: nounwind
define internal fastcc zeroext i1 @"_ZN48_$LT$$u5b$T$u5d$$u20$as$u20$core..fmt..Debug$GT$3fmt17hc49122d3eeb7c593E"(ptr align 1 %self.0, i64 %self.1, ptr align 8 %f) unnamed_addr #0 !dbg !1264 {
start:
  %_12 = alloca ptr, align 8
  %end_or_len = alloca ptr, align 8
  %_6 = alloca { ptr, ptr }, align 8
  %_5 = alloca %"core::fmt::builders::DebugList<'_, '_>", align 8
; call core::fmt::Formatter::debug_list
  call void @_ZN4core3fmt9Formatter10debug_list17h311134683f395adeE(ptr sret(%"core::fmt::builders::DebugList<'_, '_>") align 8 %_5, ptr align 8 %f) #30, !dbg !1266
  %i = getelementptr inbounds i8, ptr %self.0, i64 %self.1, !dbg !1267
  store ptr %i, ptr %end_or_len, align 8, !dbg !1267
  store ptr %self.0, ptr %_12, align 8, !dbg !1285
  store ptr %self.0, ptr %_6, align 8, !dbg !1291
  %i2 = getelementptr inbounds { ptr, ptr }, ptr %_6, i32 0, i32 1, !dbg !1291
  store ptr %i, ptr %i2, align 8, !dbg !1291
; call core::fmt::builders::DebugList::entries
  %_3 = call fastcc align 8 ptr @_ZN4core3fmt8builders9DebugList7entries17h0a06da6787c27177E(ptr align 8 %_5, ptr %self.0, ptr %i) #30, !dbg !1266
; call core::fmt::builders::DebugList::finish
  %_0 = call zeroext i1 @_ZN4core3fmt8builders9DebugList6finish17h86c2caac03b2d218E(ptr align 8 %_3) #30, !dbg !1266
  ret i1 %_0, !dbg !1292
}

; core::fmt::num::<impl core::fmt::Debug for u8>::fmt
; Function Attrs: inlinehint nounwind
define internal fastcc zeroext i1 @"_ZN4core3fmt3num49_$LT$impl$u20$core..fmt..Debug$u20$for$u20$u8$GT$3fmt17h2c17d02e0aece416E"(ptr align 1 %self, ptr align 8 %f) unnamed_addr #1 !dbg !1293 {
start:
  %_0 = alloca i8, align 1
  %i = getelementptr inbounds %"core::fmt::Formatter<'_>", ptr %f, i32 0, i32 4, !dbg !1297
  %_4 = load i32, ptr %i, align 4, !dbg !1297, !noundef !15
  %_3 = and i32 %_4, 16, !dbg !1297
  %i1 = icmp ne i32 %_3, 0, !dbg !1302
  br i1 %i1, label %bb1, label %Flow14, !dbg !1302

Flow14:                                           ; preds = %bb1, %start
  %0 = phi i1 [ %i4, %bb1 ], [ undef, %start ]
  %1 = phi i1 [ false, %bb1 ], [ true, %start ], !dbg !1302
  br i1 %1, label %bb2, label %bb5, !dbg !1302

bb2:                                              ; preds = %Flow14
  %_5 = and i32 %_4, 32, !dbg !1303
  %i3 = icmp ne i32 %_5, 0, !dbg !1307
  br i1 %i3, label %bb3, label %Flow, !dbg !1307

bb1:                                              ; preds = %start
; call core::fmt::num::<impl core::fmt::LowerHex for u8>::fmt
  %i4 = call zeroext i1 @"_ZN4core3fmt3num52_$LT$impl$u20$core..fmt..LowerHex$u20$for$u20$u8$GT$3fmt17h269e329ec0d206bdE"(ptr align 1 %self, ptr align 8 %f) #30, !dbg !1308
  %i5 = zext i1 %i4 to i8, !dbg !1308
  store i8 %i5, ptr %_0, align 1, !dbg !1308
  br label %Flow14, !dbg !1308

Flow:                                             ; preds = %bb3, %bb2
  %2 = phi i1 [ %i8, %bb3 ], [ undef, %bb2 ]
  %3 = phi i1 [ false, %bb3 ], [ true, %bb2 ], !dbg !1307
  br i1 %3, label %bb4, label %Flow13, !dbg !1307

bb4:                                              ; preds = %Flow
; call core::fmt::num::imp::<impl core::fmt::Display for u8>::fmt
  %i6 = call zeroext i1 @"_ZN4core3fmt3num3imp51_$LT$impl$u20$core..fmt..Display$u20$for$u20$u8$GT$3fmt17he05dc502c2c646ffE"(ptr align 1 %self, ptr align 8 %f) #30, !dbg !1309
  %i7 = zext i1 %i6 to i8, !dbg !1309
  store i8 %i7, ptr %_0, align 1, !dbg !1309
  br label %Flow13, !dbg !1309

bb3:                                              ; preds = %bb2
; call core::fmt::num::<impl core::fmt::UpperHex for u8>::fmt
  %i8 = call zeroext i1 @"_ZN4core3fmt3num52_$LT$impl$u20$core..fmt..UpperHex$u20$for$u20$u8$GT$3fmt17hb7a22b0e0f8a2a45E"(ptr align 1 %self, ptr align 8 %f) #30, !dbg !1310
  %i9 = zext i1 %i8 to i8, !dbg !1310
  store i8 %i9, ptr %_0, align 1, !dbg !1310
  br label %Flow, !dbg !1310

Flow13:                                           ; preds = %bb4, %Flow
  %4 = phi i1 [ %i6, %bb4 ], [ %2, %Flow ]
  br label %bb5, !dbg !1307

bb5:                                              ; preds = %Flow14, %Flow13
  %i10 = phi i1 [ %0, %Flow14 ], [ %4, %Flow13 ], !dbg !1311
  ret i1 %i10, !dbg !1311
}

; core::fmt::num::<impl core::fmt::Debug for usize>::fmt
; Function Attrs: inlinehint nounwind
define internal zeroext i1 @"_ZN4core3fmt3num52_$LT$impl$u20$core..fmt..Debug$u20$for$u20$usize$GT$3fmt17he0ac9809a087b55cE"(ptr align 8 %self, ptr align 8 %f) unnamed_addr #1 !dbg !1312 {
start:
  %_0 = alloca i8, align 1
  %i = getelementptr inbounds %"core::fmt::Formatter<'_>", ptr %f, i32 0, i32 4, !dbg !1314
  %_4 = load i32, ptr %i, align 4, !dbg !1314, !noundef !15
  %_3 = and i32 %_4, 16, !dbg !1314
  %i1 = icmp ne i32 %_3, 0, !dbg !1318
  br i1 %i1, label %bb1, label %Flow14, !dbg !1318

Flow14:                                           ; preds = %bb1, %start
  %0 = phi i1 [ %i4, %bb1 ], [ undef, %start ]
  %1 = phi i1 [ false, %bb1 ], [ true, %start ], !dbg !1318
  br i1 %1, label %bb2, label %bb5, !dbg !1318

bb2:                                              ; preds = %Flow14
  %_5 = and i32 %_4, 32, !dbg !1319
  %i3 = icmp ne i32 %_5, 0, !dbg !1323
  br i1 %i3, label %bb3, label %Flow, !dbg !1323

bb1:                                              ; preds = %start
; call core::fmt::num::<impl core::fmt::LowerHex for usize>::fmt
  %i4 = call zeroext i1 @"_ZN4core3fmt3num55_$LT$impl$u20$core..fmt..LowerHex$u20$for$u20$usize$GT$3fmt17h4adcb983e8e802e9E"(ptr align 8 %self, ptr align 8 %f) #30, !dbg !1324
  %i5 = zext i1 %i4 to i8, !dbg !1324
  store i8 %i5, ptr %_0, align 1, !dbg !1324
  br label %Flow14, !dbg !1324

Flow:                                             ; preds = %bb3, %bb2
  %2 = phi i1 [ %i8, %bb3 ], [ undef, %bb2 ]
  %3 = phi i1 [ false, %bb3 ], [ true, %bb2 ], !dbg !1323
  br i1 %3, label %bb4, label %Flow13, !dbg !1323

bb4:                                              ; preds = %Flow
; call core::fmt::num::imp::<impl core::fmt::Display for usize>::fmt
  %i6 = call zeroext i1 @"_ZN4core3fmt3num3imp54_$LT$impl$u20$core..fmt..Display$u20$for$u20$usize$GT$3fmt17h7ff1be1e6379c455E"(ptr align 8 %self, ptr align 8 %f) #30, !dbg !1325
  %i7 = zext i1 %i6 to i8, !dbg !1325
  store i8 %i7, ptr %_0, align 1, !dbg !1325
  br label %Flow13, !dbg !1325

bb3:                                              ; preds = %bb2
; call core::fmt::num::<impl core::fmt::UpperHex for usize>::fmt
  %i8 = call zeroext i1 @"_ZN4core3fmt3num55_$LT$impl$u20$core..fmt..UpperHex$u20$for$u20$usize$GT$3fmt17he38fdabe63c27877E"(ptr align 8 %self, ptr align 8 %f) #30, !dbg !1326
  %i9 = zext i1 %i8 to i8, !dbg !1326
  store i8 %i9, ptr %_0, align 1, !dbg !1326
  br label %Flow, !dbg !1326

Flow13:                                           ; preds = %bb4, %Flow
  %4 = phi i1 [ %i6, %bb4 ], [ %2, %Flow ]
  br label %bb5, !dbg !1323

bb5:                                              ; preds = %Flow14, %Flow13
  %i10 = phi i1 [ %0, %Flow14 ], [ %4, %Flow13 ], !dbg !1327
  ret i1 %i10, !dbg !1327
}

; core::fmt::Write::write_char
; Function Attrs: nounwind
define internal zeroext i1 @_ZN4core3fmt5Write10write_char17hca6676bb476b3032E(ptr nocapture align 8 %self, i32 %c) unnamed_addr #0 !dbg !1328 {
start:
  %_6 = alloca [4 x i8], align 1
  call void @llvm.memset.p0.i64(ptr align 1 %_6, i8 0, i64 4, i1 false), !dbg !1330
; call core::char::methods::encode_utf8_raw
  %i = call fastcc { ptr, i64 } @_ZN4core4char7methods15encode_utf8_raw17h29af2635d2de2703E(i32 %c, ptr align 1 %_6, i64 4) #30, !dbg !1331
  %v.0 = extractvalue { ptr, i64 } %i, 0, !dbg !1331
  %v.1 = extractvalue { ptr, i64 } %i, 1, !dbg !1331
; call <std::io::Write::write_fmt::Adapter<T> as core::fmt::Write>::write_str
  %_0 = call zeroext i1 @"_ZN80_$LT$std..io..Write..write_fmt..Adapter$LT$T$GT$$u20$as$u20$core..fmt..Write$GT$9write_str17h27c7de9b75c5a76bE"(ptr align 8 %self, ptr align 1 %v.0, i64 %v.1) #30, !dbg !1340
  ret i1 %_0, !dbg !1341
}

; core::fmt::Write::write_fmt
; Function Attrs: nounwind
define internal zeroext i1 @_ZN4core3fmt5Write9write_fmt17h2214d48118ea778eE(ptr align 8 %self, ptr align 8 %args) unnamed_addr #0 !dbg !1342 {
start:
; call <&mut W as core::fmt::Write::write_fmt::SpecWriteFmt>::spec_write_fmt
  %_0 = call fastcc zeroext i1 @"_ZN75_$LT$$RF$mut$u20$W$u20$as$u20$core..fmt..Write..write_fmt..SpecWriteFmt$GT$14spec_write_fmt17h6b530e9f73c9cf52E"(ptr align 8 %self, ptr align 8 %args) #30, !dbg !1343
  ret i1 %_0, !dbg !1344
}

; core::fmt::builders::DebugList::entries
; Function Attrs: nounwind
define internal fastcc align 8 ptr @_ZN4core3fmt8builders9DebugList7entries17h0a06da6787c27177E(ptr returned align 8 %self, ptr %entries.0, ptr %entries.1) unnamed_addr #0 personality ptr @rust_eh_personality !dbg !1345 {
start:
  %entry = alloca ptr, align 8
  %_5 = alloca ptr, align 8
  %iter = alloca { ptr, ptr }, align 8
; call <I as core::iter::traits::collect::IntoIterator>::into_iter
  %i = call fastcc { ptr, ptr } @"_ZN63_$LT$I$u20$as$u20$core..iter..traits..collect..IntoIterator$GT$9into_iter17h21160b0dc74efe63E"(ptr %entries.0, ptr %entries.1) #30, !dbg !1349
  %_3.0 = extractvalue { ptr, ptr } %i, 0, !dbg !1349
  %_3.1 = extractvalue { ptr, ptr } %i, 1, !dbg !1349
  store ptr %_3.0, ptr %iter, align 8, !dbg !1349
  %i1 = getelementptr inbounds { ptr, ptr }, ptr %iter, i32 0, i32 1, !dbg !1349
  store ptr %_3.1, ptr %i1, align 8, !dbg !1349
  br label %bb2, !dbg !1350

bb2:                                              ; preds = %Flow, %start
; call <core::slice::iter::Iter<T> as core::iter::traits::iterator::Iterator>::next
  %i2 = call fastcc align 1 ptr @"_ZN91_$LT$core..slice..iter..Iter$LT$T$GT$$u20$as$u20$core..iter..traits..iterator..Iterator$GT$4next17h9f350720ee0b241bE"(ptr align 8 %iter) #30, !dbg !1352
  store ptr %i2, ptr %_5, align 8, !dbg !1352
  %i4 = ptrtoint ptr %i2 to i64, !dbg !1352
  %i5 = icmp ne i64 %i4, 0, !dbg !1352
  br i1 %i5, label %bb4, label %Flow, !dbg !1352

Flow:                                             ; preds = %bb4, %bb2
  %0 = phi i1 [ false, %bb4 ], [ true, %bb2 ]
  br i1 %0, label %bb6, label %bb2, !dbg !1352

bb6:                                              ; preds = %Flow
  ret ptr %self, !dbg !1353

bb4:                                              ; preds = %bb2
  store ptr %i2, ptr %entry, align 8, !dbg !1354
; call core::fmt::builders::DebugList::entry
  %_9 = call align 8 ptr @_ZN4core3fmt8builders9DebugList5entry17h1965109398e3bfd7E(ptr align 8 %self, ptr align 1 %entry, ptr align 8 @vtable.3) #30, !dbg !1355
  br label %Flow, !dbg !1350
}

; core::fmt::Arguments::new_v1
; Function Attrs: inlinehint nounwind
define internal fastcc void @_ZN4core3fmt9Arguments6new_v117hb1e408c6d81a8e9eE(ptr noalias nocapture writeonly align 8 %_0, ptr align 8 %pieces.0, i64 %pieces.1, ptr align 8 %args.0, i64 %args.1) unnamed_addr #1 !dbg !1357 {
start:
  %_15 = alloca { ptr, i64 }, align 8
  %_13 = alloca { ptr, i64 }, align 8
  %_11 = alloca %"core::fmt::Arguments<'_>", align 8
  %_3 = icmp ult i64 %pieces.1, %args.1, !dbg !1359
  %_8 = add i64 %args.1, 1
  %_6 = icmp ugt i64 %pieces.1, %_8
  %or.cond = or i1 %_3, %_6, !dbg !1359
  br i1 %or.cond, label %bb3, label %bb4, !dbg !1359

bb4:                                              ; preds = %start
  store ptr null, ptr %_13, align 8, !dbg !1360
  store ptr %pieces.0, ptr %_0, align 8, !dbg !1361
  %i = getelementptr inbounds { ptr, i64 }, ptr %_0, i32 0, i32 1, !dbg !1361
  store i64 %pieces.1, ptr %i, align 8, !dbg !1361
  %i4 = getelementptr inbounds %"core::fmt::Arguments<'_>", ptr %_0, i32 0, i32 2, !dbg !1361
  store ptr null, ptr %i4, align 8, !dbg !1361
  %i5 = getelementptr inbounds { ptr, i64 }, ptr %i4, i32 0, i32 1, !dbg !1361
  store i64 undef, ptr %i5, align 8, !dbg !1361
  %i6 = getelementptr inbounds %"core::fmt::Arguments<'_>", ptr %_0, i32 0, i32 1, !dbg !1361
  store ptr %args.0, ptr %i6, align 8, !dbg !1361
  %i7 = getelementptr inbounds { ptr, i64 }, ptr %i6, i32 0, i32 1, !dbg !1361
  store i64 %args.1, ptr %i7, align 8, !dbg !1361
  ret void, !dbg !1362

bb3:                                              ; preds = %start
  store ptr null, ptr %_15, align 8, !dbg !1363
  store ptr @alloc_af99043bc04c419363a7f04d23183506, ptr %_11, align 8, !dbg !1369
  %i8 = getelementptr inbounds { ptr, i64 }, ptr %_11, i32 0, i32 1, !dbg !1369
  store i64 1, ptr %i8, align 8, !dbg !1369
  %i12 = getelementptr inbounds %"core::fmt::Arguments<'_>", ptr %_11, i32 0, i32 2, !dbg !1369
  store ptr null, ptr %i12, align 8, !dbg !1369
  %i13 = getelementptr inbounds { ptr, i64 }, ptr %i12, i32 0, i32 1, !dbg !1369
  store i64 undef, ptr %i13, align 8, !dbg !1369
  %i14 = getelementptr inbounds %"core::fmt::Arguments<'_>", ptr %_11, i32 0, i32 1, !dbg !1369
  store ptr @alloc_513570631223a12912d85da2bec3b15a, ptr %i14, align 8, !dbg !1369
  %i15 = getelementptr inbounds { ptr, i64 }, ptr %i14, i32 0, i32 1, !dbg !1369
  store i64 0, ptr %i15, align 8, !dbg !1369
; call core::panicking::panic_fmt
  call void @_ZN4core9panicking9panic_fmt17hff768cef35397791E(ptr align 8 %_11, ptr align 8 @alloc_5f330cd7dff757941d785f386d839300) #31, !dbg !1370
  unreachable, !dbg !1370
}

; core::mem::drop
; Function Attrs: inlinehint nounwind
define internal fastcc void @_ZN4core3mem4drop17hf2ed7d69cd9b4920E(ptr align 8 %arg, i1 zeroext %arg1) unnamed_addr #1 !dbg !1371 {
start:
  %_x = alloca { ptr, i8 }, align 8
  store ptr %arg, ptr %_x, align 8
  %i = getelementptr inbounds { ptr, i8 }, ptr %_x, i32 0, i32 1
  %i2 = zext i1 %arg1 to i8
  store i8 %i2, ptr %i, align 8
; call core::ptr::drop_in_place<std::sync::mutex::MutexGuard<SAFE_RUSTSEC_2020_0116::PinSlab<core::cell::Cell<i32>>>>
  call fastcc void @"_ZN4core3ptr123drop_in_place$LT$std..sync..mutex..MutexGuard$LT$SAFE_RUSTSEC_2020_0116..PinSlab$LT$core..cell..Cell$LT$i32$GT$$GT$$GT$$GT$17h63939d9a41260fa5E"(ptr align 8 %_x) #30, !dbg !1372
  ret void, !dbg !1373
}

; core::ops::function::FnOnce::call_once{{vtable.shim}}
; Function Attrs: inlinehint nounwind
define internal i32 @"_ZN4core3ops8function6FnOnce40call_once$u7b$$u7b$vtable.shim$u7d$$u7d$17h92237a4898bed3f6E"(ptr nocapture readonly %_1) unnamed_addr #1 !dbg !1374 {
start:
  %i = load ptr, ptr %_1, align 8, !dbg !1379, !nonnull !15, !noundef !15
; call core::ops::function::FnOnce::call_once
  %_0 = call fastcc i32 @_ZN4core3ops8function6FnOnce9call_once17h8c3c72c2d9e85b35E(ptr %i) #30, !dbg !1379
  ret i32 %_0, !dbg !1379
}

; core::ops::function::FnOnce::call_once{{vtable.shim}}
; Function Attrs: inlinehint nounwind
define internal void @"_ZN4core3ops8function6FnOnce40call_once$u7b$$u7b$vtable.shim$u7d$$u7d$17hd0b07e447cbcefe9E"(ptr %_1) unnamed_addr #1 !dbg !1380 {
start:
; call std::thread::Builder::spawn_unchecked_::{{closure}}
  call fastcc void @"_ZN3std6thread7Builder16spawn_unchecked_28_$u7b$$u7b$closure$u7d$$u7d$17h2b536c4203057e72E"(ptr align 8 %_1) #30, !dbg !1381
  ret void, !dbg !1381
}

; core::ops::function::FnOnce::call_once
; Function Attrs: inlinehint nounwind
define internal fastcc void @_ZN4core3ops8function6FnOnce9call_once17h603ea8c84fce9c07E(ptr nocapture readonly %_1) unnamed_addr #1 !dbg !1382 {
start:
  call void %_1() #30, !dbg !1383
  ret void, !dbg !1383
}

; core::ops::function::FnOnce::call_once
; Function Attrs: inlinehint nounwind
define internal fastcc void @_ZN4core3ops8function6FnOnce9call_once17h8b463785b7c1daefE(ptr align 8 %arg) unnamed_addr #1 !dbg !1384 {
start:
  %_1 = alloca ptr, align 8
  store ptr %arg, ptr %_1, align 8
  %_1.val = load ptr, ptr %_1, align 8, !dbg !1385, !nonnull !15, !align !599, !noundef !15
; call <std::thread::Packet<T> as core::ops::drop::Drop>::drop::{{closure}}
  call fastcc void @"_ZN70_$LT$std..thread..Packet$LT$T$GT$$u20$as$u20$core..ops..drop..Drop$GT$4drop28_$u7b$$u7b$closure$u7d$$u7d$17h033f653a183bd9ffE"(ptr %_1.val) #30, !dbg !1385
  ret void, !dbg !1385
}

; core::ops::function::FnOnce::call_once
; Function Attrs: inlinehint nounwind
define internal fastcc i32 @_ZN4core3ops8function6FnOnce9call_once17h8c3c72c2d9e85b35E(ptr %arg) unnamed_addr #1 !dbg !1386 {
start:
  %_1 = alloca ptr, align 8
  store ptr %arg, ptr %_1, align 8
; call std::rt::lang_start::{{closure}}
  %_0 = call i32 @"_ZN3std2rt10lang_start28_$u7b$$u7b$closure$u7d$$u7d$17h507a30a8d97e8affE"(ptr align 8 %_1) #30, !dbg !1387
  ret i32 %_0, !dbg !1387
}

; core::ops::function::FnOnce::call_once
; Function Attrs: inlinehint nounwind
define internal fastcc i64 @_ZN4core3ops8function6FnOnce9call_once17hf9d6c4e1c1d3b1f8E() unnamed_addr #1 !dbg !1388 {
start:
; call std::sys_common::thread::min_stack
  %_0 = call i64 @_ZN3std10sys_common6thread9min_stack17hec1aa11dc675dcecE() #30, !dbg !1389
  ret i64 %_0, !dbg !1389
}

; core::ptr::drop_in_place<alloc::sync::Arc<std::sync::mutex::Mutex<alloc::vec::Vec<u8>>>>
; Function Attrs: nounwind
define internal fastcc void @"_ZN4core3ptr101drop_in_place$LT$alloc..sync..Arc$LT$std..sync..mutex..Mutex$LT$alloc..vec..Vec$LT$u8$GT$$GT$$GT$$GT$17h2abf6c137be46564E"(ptr align 8 %_1) unnamed_addr #0 !dbg !1390 {
start:
; call <alloc::sync::Arc<T,A> as core::ops::drop::Drop>::drop
  call fastcc void @"_ZN71_$LT$alloc..sync..Arc$LT$T$C$A$GT$$u20$as$u20$core..ops..drop..Drop$GT$4drop17hb4948d0ee9709043E"(ptr align 8 %_1) #30, !dbg !1391
  ret void, !dbg !1391
}

; core::ptr::drop_in_place<std::io::error::ErrorData<alloc::boxed::Box<std::io::error::Custom>>>
; Function Attrs: nounwind
define internal fastcc void @"_ZN4core3ptr101drop_in_place$LT$std..io..error..ErrorData$LT$alloc..boxed..Box$LT$std..io..error..Custom$GT$$GT$$GT$17h88304bb5803aec12E"(ptr nocapture readonly align 8 %_1) unnamed_addr #0 !dbg !1392 {
start:
  br i1 undef, label %bb2, label %bb1, !dbg !1393

bb2:                                              ; preds = %start
  %i1 = getelementptr inbounds %"std::io::error::ErrorData<alloc::boxed::Box<std::io::error::Custom>>::Custom", ptr %_1, i32 0, i32 1, !dbg !1393
; call core::ptr::drop_in_place<alloc::boxed::Box<std::io::error::Custom>>
  call fastcc void @"_ZN4core3ptr68drop_in_place$LT$alloc..boxed..Box$LT$std..io..error..Custom$GT$$GT$17h1b9955aea60eab17E"(ptr align 8 %i1) #30, !dbg !1393
  br label %bb1, !dbg !1393

bb1:                                              ; preds = %bb2, %start
  ret void, !dbg !1393
}

; core::ptr::drop_in_place<alloc::sync::Weak<std::thread::scoped::ScopeData,&alloc::alloc::Global>>
; Function Attrs: nounwind
define internal fastcc void @"_ZN4core3ptr103drop_in_place$LT$alloc..sync..Weak$LT$std..thread..scoped..ScopeData$C$$RF$alloc..alloc..Global$GT$$GT$17h17d213ecb51e1eecE"(ptr nocapture readonly align 8 %_1) unnamed_addr #0 !dbg !1394 {
start:
; call <alloc::sync::Weak<T,A> as core::ops::drop::Drop>::drop
  call fastcc void @"_ZN72_$LT$alloc..sync..Weak$LT$T$C$A$GT$$u20$as$u20$core..ops..drop..Drop$GT$4drop17hb85d297e9f4387dfE"(ptr align 8 %_1) #30, !dbg !1395
  ret void, !dbg !1395
}

; core::ptr::drop_in_place<alloc::sync::Weak<std::thread::Packet<()>,&alloc::alloc::Global>>
; Function Attrs: nounwind
define internal fastcc void @"_ZN4core3ptr108drop_in_place$LT$alloc..sync..Weak$LT$std..thread..Packet$LT$$LP$$RP$$GT$$C$$RF$alloc..alloc..Global$GT$$GT$17h14cfc96d77ca1061E"(ptr nocapture readonly align 8 %_1) unnamed_addr #0 !dbg !1396 {
start:
; call <alloc::sync::Weak<T,A> as core::ops::drop::Drop>::drop
  call fastcc void @"_ZN72_$LT$alloc..sync..Weak$LT$T$C$A$GT$$u20$as$u20$core..ops..drop..Drop$GT$4drop17h93f02c48d7c2d964E"(ptr align 8 %_1) #30, !dbg !1397
  ret void, !dbg !1397
}

; core::ptr::drop_in_place<std::sys_common::lazy_box::LazyBox<std::sys::unix::locks::pthread_mutex::AllocatedMutex>>
; Function Attrs: nounwind
define internal fastcc void @"_ZN4core3ptr115drop_in_place$LT$std..sys_common..lazy_box..LazyBox$LT$std..sys..unix..locks..pthread_mutex..AllocatedMutex$GT$$GT$17h97514e607efc8f20E"(ptr %_1.0.val) unnamed_addr #0 !dbg !1398 {
start:
; call <std::sys_common::lazy_box::LazyBox<T> as core::ops::drop::Drop>::drop
  call fastcc void @"_ZN85_$LT$std..sys_common..lazy_box..LazyBox$LT$T$GT$$u20$as$u20$core..ops..drop..Drop$GT$4drop17h239f53f1b5c97c88E"(ptr %_1.0.val) #30, !dbg !1399
  ret void, !dbg !1399
}

; core::ptr::drop_in_place<core::cell::UnsafeCell<SAFE_RUSTSEC_2020_0116::PinSlab<core::cell::Cell<i32>>>>
; Function Attrs: nounwind
define internal fastcc void @"_ZN4core3ptr117drop_in_place$LT$core..cell..UnsafeCell$LT$SAFE_RUSTSEC_2020_0116..PinSlab$LT$core..cell..Cell$LT$i32$GT$$GT$$GT$$GT$17h2f1fc077be1c6b1cE"(ptr nocapture readonly align 8 %_1) unnamed_addr #0 !dbg !1400 {
start:
; call core::ptr::drop_in_place<SAFE_RUSTSEC_2020_0116::PinSlab<core::cell::Cell<i32>>>
  call fastcc void @"_ZN4core3ptr87drop_in_place$LT$SAFE_RUSTSEC_2020_0116..PinSlab$LT$core..cell..Cell$LT$i32$GT$$GT$$GT$17h343a595ad8dfd7c0E"(ptr align 8 %_1) #30, !dbg !1401
  ret void, !dbg !1401
}

; core::ptr::drop_in_place<alloc::boxed::Box<dyn core::error::Error+core::marker::Send+core::marker::Sync>>
; Function Attrs: nounwind
define internal fastcc void @"_ZN4core3ptr118drop_in_place$LT$alloc..boxed..Box$LT$dyn$u20$core..error..Error$u2b$core..marker..Send$u2b$core..marker..Sync$GT$$GT$17hcfde4171dda558a2E"(ptr nocapture readonly align 8 %_1) unnamed_addr #0 !dbg !1402 {
start:
  %_6.0 = load ptr, ptr %_1, align 8, !dbg !1403, !noundef !15
  %i = getelementptr inbounds { ptr, ptr }, ptr %_1, i32 0, i32 1, !dbg !1403
  %_6.1 = load ptr, ptr %i, align 8, !dbg !1403, !nonnull !15, !align !599, !noundef !15
  %i1 = load ptr, ptr %_6.1, align 8, !dbg !1403, !invariant.load !15, !nonnull !15
  call void %i1(ptr align 1 %_6.0) #30, !dbg !1403
  %_1.val = load ptr, ptr %_1, align 8, !dbg !1403, !nonnull !15, !noundef !15
  %0 = getelementptr i8, ptr %_1, i64 8, !dbg !1403
  %_1.val2 = load ptr, ptr %0, align 8, !dbg !1403, !nonnull !15, !align !599, !noundef !15
; call <alloc::boxed::Box<T,A> as core::ops::drop::Drop>::drop
  call fastcc void @"_ZN72_$LT$alloc..boxed..Box$LT$T$C$A$GT$$u20$as$u20$core..ops..drop..Drop$GT$4drop17h74a0ed263656927dE"(ptr %_1.val, ptr %_1.val2) #30, !dbg !1403
  ret void, !dbg !1403
}

; core::ptr::drop_in_place<std::sync::mutex::Mutex<SAFE_RUSTSEC_2020_0116::PinSlab<core::cell::Cell<i32>>>>
; Function Attrs: nounwind
define internal fastcc void @"_ZN4core3ptr118drop_in_place$LT$std..sync..mutex..Mutex$LT$SAFE_RUSTSEC_2020_0116..PinSlab$LT$core..cell..Cell$LT$i32$GT$$GT$$GT$$GT$17hd46a942dab0e697dE"(ptr nocapture readonly align 8 %_1) unnamed_addr #0 !dbg !1404 {
start:
  %_1.val = load ptr, ptr %_1, align 8, !dbg !1405, !noundef !15
; call core::ptr::drop_in_place<std::sys::unix::locks::pthread_mutex::Mutex>
  call fastcc void @"_ZN4core3ptr64drop_in_place$LT$std..sys..unix..locks..pthread_mutex..Mutex$GT$17h39cc58c6d24270ffE"(ptr %_1.val) #30, !dbg !1405
  %i = getelementptr inbounds %"std::sync::mutex::Mutex<PinSlab<core::cell::Cell<i32>>>", ptr %_1, i32 0, i32 3, !dbg !1405
; call core::ptr::drop_in_place<core::cell::UnsafeCell<SAFE_RUSTSEC_2020_0116::PinSlab<core::cell::Cell<i32>>>>
  call fastcc void @"_ZN4core3ptr117drop_in_place$LT$core..cell..UnsafeCell$LT$SAFE_RUSTSEC_2020_0116..PinSlab$LT$core..cell..Cell$LT$i32$GT$$GT$$GT$$GT$17h2f1fc077be1c6b1cE"(ptr align 8 %i) #30, !dbg !1405
  ret void, !dbg !1405
}

; core::ptr::drop_in_place<std::sync::mutex::MutexGuard<SAFE_RUSTSEC_2020_0116::PinSlab<core::cell::Cell<i32>>>>
; Function Attrs: nounwind
define internal fastcc void @"_ZN4core3ptr123drop_in_place$LT$std..sync..mutex..MutexGuard$LT$SAFE_RUSTSEC_2020_0116..PinSlab$LT$core..cell..Cell$LT$i32$GT$$GT$$GT$$GT$17h63939d9a41260fa5E"(ptr nocapture readonly align 8 %_1) unnamed_addr #0 !dbg !1406 {
start:
; call <std::sync::mutex::MutexGuard<T> as core::ops::drop::Drop>::drop
  call fastcc void @"_ZN79_$LT$std..sync..mutex..MutexGuard$LT$T$GT$$u20$as$u20$core..ops..drop..Drop$GT$4drop17he2dc4d1da7685959E"(ptr align 8 %_1) #30, !dbg !1407
  ret void, !dbg !1407
}

; core::ptr::drop_in_place<alloc::sync::Weak<std::sync::mutex::Mutex<alloc::vec::Vec<u8>>,&alloc::alloc::Global>>
; Function Attrs: nounwind
define internal fastcc void @"_ZN4core3ptr129drop_in_place$LT$alloc..sync..Weak$LT$std..sync..mutex..Mutex$LT$alloc..vec..Vec$LT$u8$GT$$GT$$C$$RF$alloc..alloc..Global$GT$$GT$17hdf9130a58e964246E"(ptr nocapture readonly align 8 %_1) unnamed_addr #0 !dbg !1408 {
start:
; call <alloc::sync::Weak<T,A> as core::ops::drop::Drop>::drop
  call fastcc void @"_ZN72_$LT$alloc..sync..Weak$LT$T$C$A$GT$$u20$as$u20$core..ops..drop..Drop$GT$4drop17h2fdb25122e63ce6bE"(ptr align 8 %_1) #30, !dbg !1409
  ret void, !dbg !1409
}

; core::ptr::drop_in_place<std::thread::Builder::spawn_unchecked_::MaybeDangling<SAFE_RUSTSEC_2020_0116::main::{{closure}}>>
; Function Attrs: nounwind
define internal fastcc void @"_ZN4core3ptr139drop_in_place$LT$std..thread..Builder..spawn_unchecked_..MaybeDangling$LT$SAFE_RUSTSEC_2020_0116..main..$u7b$$u7b$closure$u7d$$u7d$$GT$$GT$17hcb740d780dfbcb5bE"(ptr align 8 %_1) unnamed_addr #0 !dbg !1410 {
start:
; call <std::thread::Builder::spawn_unchecked_::MaybeDangling<T> as core::ops::drop::Drop>::drop
  call fastcc void @"_ZN104_$LT$std..thread..Builder..spawn_unchecked_..MaybeDangling$LT$T$GT$$u20$as$u20$core..ops..drop..Drop$GT$4drop17h7ade9643b50a370aE"(ptr align 8 %_1) #30, !dbg !1411
  ret void, !dbg !1411
}

; core::ptr::drop_in_place<alloc::sync::Arc<std::sync::mutex::Mutex<SAFE_RUSTSEC_2020_0116::PinSlab<core::cell::Cell<i32>>>>>
; Function Attrs: nounwind
define internal fastcc void @"_ZN4core3ptr142drop_in_place$LT$alloc..sync..Arc$LT$std..sync..mutex..Mutex$LT$SAFE_RUSTSEC_2020_0116..PinSlab$LT$core..cell..Cell$LT$i32$GT$$GT$$GT$$GT$$GT$17h63dd075e2d3d2d29E"(ptr align 8 %_1) unnamed_addr #0 !dbg !1412 {
start:
; call <alloc::sync::Arc<T,A> as core::ops::drop::Drop>::drop
  call fastcc void @"_ZN71_$LT$alloc..sync..Arc$LT$T$C$A$GT$$u20$as$u20$core..ops..drop..Drop$GT$4drop17h9abebadea3df792eE"(ptr align 8 %_1) #30, !dbg !1413
  ret void, !dbg !1413
}

; core::ptr::drop_in_place<std::sync::poison::PoisonError<std::sync::mutex::MutexGuard<SAFE_RUSTSEC_2020_0116::PinSlab<core::cell::Cell<i32>>>>>
; Function Attrs: nounwind
define internal void @"_ZN4core3ptr161drop_in_place$LT$std..sync..poison..PoisonError$LT$std..sync..mutex..MutexGuard$LT$SAFE_RUSTSEC_2020_0116..PinSlab$LT$core..cell..Cell$LT$i32$GT$$GT$$GT$$GT$$GT$17he6e13851cfd370a5E"(ptr nocapture readonly align 8 %_1) unnamed_addr #0 !dbg !1414 {
start:
; call core::ptr::drop_in_place<std::sync::mutex::MutexGuard<SAFE_RUSTSEC_2020_0116::PinSlab<core::cell::Cell<i32>>>>
  call fastcc void @"_ZN4core3ptr123drop_in_place$LT$std..sync..mutex..MutexGuard$LT$SAFE_RUSTSEC_2020_0116..PinSlab$LT$core..cell..Cell$LT$i32$GT$$GT$$GT$$GT$17h63939d9a41260fa5E"(ptr align 8 %_1) #30, !dbg !1415
  ret void, !dbg !1415
}

; core::ptr::drop_in_place<std::thread::Builder::spawn_unchecked_<SAFE_RUSTSEC_2020_0116::main::{{closure}},()>::{{closure}}>
; Function Attrs: nounwind
define internal void @"_ZN4core3ptr164drop_in_place$LT$std..thread..Builder..spawn_unchecked_$LT$SAFE_RUSTSEC_2020_0116..main..$u7b$$u7b$closure$u7d$$u7d$$C$$LP$$RP$$GT$..$u7b$$u7b$closure$u7d$$u7d$$GT$17hbddd1f16c44af89aE"(ptr align 8 %_1) unnamed_addr #0 !dbg !1416 {
start:
; call core::ptr::drop_in_place<std::thread::Thread>
  call fastcc void @"_ZN4core3ptr40drop_in_place$LT$std..thread..Thread$GT$17h5b153a16629d89b5E"(ptr align 8 %_1) #30, !dbg !1417
  %i = getelementptr inbounds %"{closure@std::thread::Builder::spawn_unchecked_<'_, '_, {closure@data/SAFE-RUSTSEC-2020-0116.rs:19:32: 19:39}, ()>::{closure#1}}", ptr %_1, i32 0, i32 2, !dbg !1417
  %i1 = load ptr, ptr %i, align 8, !dbg !1418, !noundef !15
  %i2 = ptrtoint ptr %i1 to i64, !dbg !1418
  %i3 = icmp ne i64 %i2, 0, !dbg !1418
  br i1 %i3, label %codeRepl.i, label %"_ZN4core3ptr129drop_in_place$LT$core..option..Option$LT$alloc..sync..Arc$LT$std..sync..mutex..Mutex$LT$alloc..vec..Vec$LT$u8$GT$$GT$$GT$$GT$$GT$17h9f28c48bc50b6401E.24.exit", !dbg !1418

codeRepl.i:                                       ; preds = %start
; call core::ptr::drop_in_place<core::option::Option<alloc::sync::Arc<std::sync::mutex::Mutex<alloc::vec::Vec<u8>>>>>.24.bb2
  call fastcc void @"_ZN4core3ptr129drop_in_place$LT$core..option..Option$LT$alloc..sync..Arc$LT$std..sync..mutex..Mutex$LT$alloc..vec..Vec$LT$u8$GT$$GT$$GT$$GT$$GT$17h9f28c48bc50b6401E.24.bb2"(ptr %i), !dbg !1418
  br label %"_ZN4core3ptr129drop_in_place$LT$core..option..Option$LT$alloc..sync..Arc$LT$std..sync..mutex..Mutex$LT$alloc..vec..Vec$LT$u8$GT$$GT$$GT$$GT$$GT$17h9f28c48bc50b6401E.24.exit"

"_ZN4core3ptr129drop_in_place$LT$core..option..Option$LT$alloc..sync..Arc$LT$std..sync..mutex..Mutex$LT$alloc..vec..Vec$LT$u8$GT$$GT$$GT$$GT$$GT$17h9f28c48bc50b6401E.24.exit": ; preds = %codeRepl.i, %start
  %i4 = getelementptr inbounds %"{closure@std::thread::Builder::spawn_unchecked_<'_, '_, {closure@data/SAFE-RUSTSEC-2020-0116.rs:19:32: 19:39}, ()>::{closure#1}}", ptr %_1, i32 0, i32 3, !dbg !1417
; call core::ptr::drop_in_place<std::thread::Builder::spawn_unchecked_::MaybeDangling<SAFE_RUSTSEC_2020_0116::main::{{closure}}>>
  call fastcc void @"_ZN4core3ptr139drop_in_place$LT$std..thread..Builder..spawn_unchecked_..MaybeDangling$LT$SAFE_RUSTSEC_2020_0116..main..$u7b$$u7b$closure$u7d$$u7d$$GT$$GT$17hcb740d780dfbcb5bE"(ptr align 8 %i4) #30, !dbg !1417
  %i5 = getelementptr inbounds %"{closure@std::thread::Builder::spawn_unchecked_<'_, '_, {closure@data/SAFE-RUSTSEC-2020-0116.rs:19:32: 19:39}, ()>::{closure#1}}", ptr %_1, i32 0, i32 1, !dbg !1417
; call core::ptr::drop_in_place<alloc::sync::Arc<std::thread::Packet<()>>>
  call fastcc void @"_ZN4core3ptr80drop_in_place$LT$alloc..sync..Arc$LT$std..thread..Packet$LT$$LP$$RP$$GT$$GT$$GT$17hc618d9fd77f45283E"(ptr align 8 %i5) #30, !dbg !1417
  ret void, !dbg !1417
}

; core::ptr::drop_in_place<core::cell::UnsafeCell<core::option::Option<core::result::Result<(),alloc::boxed::Box<dyn core::any::Any+core::marker::Send>>>>>
; Function Attrs: nounwind
define internal fastcc void @"_ZN4core3ptr188drop_in_place$LT$core..cell..UnsafeCell$LT$core..option..Option$LT$core..result..Result$LT$$LP$$RP$$C$alloc..boxed..Box$LT$dyn$u20$core..any..Any$u2b$core..marker..Send$GT$$GT$$GT$$GT$$GT$17h7c97ef6621754814E"(ptr nocapture readonly align 8 %_1) unnamed_addr #0 !dbg !1420 {
start:
  %_2.i = load i64, ptr %_1, align 8, !dbg !1421, !range !142, !noundef !15
  %i = icmp ne i64 %_2.i, 0, !dbg !1421
  br i1 %i, label %codeRepl.i, label %"_ZN4core3ptr158drop_in_place$LT$core..option..Option$LT$core..result..Result$LT$$LP$$RP$$C$alloc..boxed..Box$LT$dyn$u20$core..any..Any$u2b$core..marker..Send$GT$$GT$$GT$$GT$17hb4a0149a477989f8E.22.exit", !dbg !1421

codeRepl.i:                                       ; preds = %start
; call core::ptr::drop_in_place<core::option::Option<core::result::Result<(),alloc::boxed::Box<dyn core::any::Any+core::marker::Send>>>>.22.bb2
  call fastcc void @"_ZN4core3ptr158drop_in_place$LT$core..option..Option$LT$core..result..Result$LT$$LP$$RP$$C$alloc..boxed..Box$LT$dyn$u20$core..any..Any$u2b$core..marker..Send$GT$$GT$$GT$$GT$17hb4a0149a477989f8E.22.bb2"(ptr %_1), !dbg !1421
  br label %"_ZN4core3ptr158drop_in_place$LT$core..option..Option$LT$core..result..Result$LT$$LP$$RP$$C$alloc..boxed..Box$LT$dyn$u20$core..any..Any$u2b$core..marker..Send$GT$$GT$$GT$$GT$17hb4a0149a477989f8E.22.exit"

"_ZN4core3ptr158drop_in_place$LT$core..option..Option$LT$core..result..Result$LT$$LP$$RP$$C$alloc..boxed..Box$LT$dyn$u20$core..any..Any$u2b$core..marker..Send$GT$$GT$$GT$$GT$17hb4a0149a477989f8E.22.exit": ; preds = %codeRepl.i, %start
  ret void, !dbg !1423
}

; core::ptr::drop_in_place<usize>
; Function Attrs: inlinehint mustprogress nofree norecurse nosync nounwind willreturn memory(none)
define internal void @"_ZN4core3ptr26drop_in_place$LT$usize$GT$17h939c4064a0041d5fE"(ptr nocapture align 8 %_1) unnamed_addr #5 !dbg !1424 {
start:
  ret void, !dbg !1425
}

; core::ptr::drop_in_place<std::thread::Thread>
; Function Attrs: nounwind
define internal fastcc void @"_ZN4core3ptr40drop_in_place$LT$std..thread..Thread$GT$17h5b153a16629d89b5E"(ptr align 8 %_1) unnamed_addr #0 !dbg !1426 {
start:
; call core::ptr::drop_in_place<core::pin::Pin<alloc::sync::Arc<std::thread::Inner>>>
  call fastcc void @"_ZN4core3ptr85drop_in_place$LT$core..pin..Pin$LT$alloc..sync..Arc$LT$std..thread..Inner$GT$$GT$$GT$17h1730d9fdb99aba2bE"(ptr align 8 %_1) #30, !dbg !1427
  ret void, !dbg !1427
}

; core::ptr::drop_in_place<std::io::error::Error>
; Function Attrs: nounwind
define internal void @"_ZN4core3ptr42drop_in_place$LT$std..io..error..Error$GT$17hf10971cd02fbdd39E"(ptr nocapture readonly align 8 %_1) unnamed_addr #0 !dbg !1428 {
start:
  %_1.val = load ptr, ptr %_1, align 8, !dbg !1429, !nonnull !15, !noundef !15
; call core::ptr::drop_in_place<std::io::error::repr_bitpacked::Repr>
  call fastcc void @"_ZN4core3ptr57drop_in_place$LT$std..io..error..repr_bitpacked..Repr$GT$17h53157f53a2b8e4deE"(ptr %_1.val) #30, !dbg !1429
  ret void, !dbg !1429
}

; core::ptr::drop_in_place<std::io::error::Custom>
; Function Attrs: nounwind
define internal fastcc void @"_ZN4core3ptr43drop_in_place$LT$std..io..error..Custom$GT$17h55f776e26bf910a5E"(ptr nocapture readonly align 8 %_1) unnamed_addr #0 !dbg !1430 {
start:
; call core::ptr::drop_in_place<alloc::boxed::Box<dyn core::error::Error+core::marker::Send+core::marker::Sync>>
  call fastcc void @"_ZN4core3ptr118drop_in_place$LT$alloc..boxed..Box$LT$dyn$u20$core..error..Error$u2b$core..marker..Send$u2b$core..marker..Sync$GT$$GT$17hcfde4171dda558a2E"(ptr align 8 %_1) #30, !dbg !1431
  ret void, !dbg !1431
}

; core::ptr::drop_in_place<alloc::ffi::c_str::CString>
; Function Attrs: nounwind
define internal fastcc void @"_ZN4core3ptr47drop_in_place$LT$alloc..ffi..c_str..CString$GT$17hf0b8d1e3f1616a80E"(ptr nocapture readonly align 8 %_1) unnamed_addr #0 !dbg !1432 {
start:
  %_1.val = load ptr, ptr %_1, align 8, !dbg !1433, !nonnull !15, !align !813, !noundef !15
; call <alloc::ffi::c_str::CString as core::ops::drop::Drop>::drop
  call fastcc void @"_ZN68_$LT$alloc..ffi..c_str..CString$u20$as$u20$core..ops..drop..Drop$GT$4drop17h9e8110de4a95f654E"(ptr %_1.val) #30, !dbg !1433
  %_1.val1 = load ptr, ptr %_1, align 8, !dbg !1433, !nonnull !15, !noundef !15
  %0 = getelementptr i8, ptr %_1, i64 8, !dbg !1433
  %_1.val2 = load i64, ptr %0, align 8, !dbg !1433, !noundef !15
; call core::ptr::drop_in_place<alloc::boxed::Box<[u8]>>
  call fastcc void @"_ZN4core3ptr58drop_in_place$LT$alloc..boxed..Box$LT$$u5b$u8$u5d$$GT$$GT$17hba81ee3fa93ddfb7E"(ptr %_1.val1, i64 %_1.val2) #30, !dbg !1433
  ret void, !dbg !1433
}

; core::ptr::drop_in_place<alloc::ffi::c_str::NulError>
; Function Attrs: nounwind
define internal void @"_ZN4core3ptr48drop_in_place$LT$alloc..ffi..c_str..NulError$GT$17hfbb21b6797d7dde3E"(ptr nocapture readonly align 8 %_1) unnamed_addr #0 !dbg !1434 {
start:
  %_2.i.i.i = alloca %"core::option::Option<(core::ptr::non_null::NonNull<u8>, core::alloc::layout::Layout)>", align 8
  call void @llvm.lifetime.start.p0(i64 24, ptr %_2.i.i.i), !dbg !1435
; call alloc::raw_vec::RawVec<T,A>::current_memory
  call fastcc void @"_ZN5alloc7raw_vec19RawVec$LT$T$C$A$GT$14current_memory17hf22dbf8892d3cc69E"(ptr noalias align 8 %_2.i.i.i, ptr align 8 %_1) #30, !dbg !1435
  %i = getelementptr inbounds %"core::option::Option<(core::ptr::non_null::NonNull<u8>, core::alloc::layout::Layout)>", ptr %_2.i.i.i, i32 0, i32 1, !dbg !1446
  %i1 = load i64, ptr %i, align 8, !dbg !1446, !range !887, !noundef !15
  %i2 = icmp eq i64 %i1, 0, !dbg !1446
  %_4.i.i.i = select i1 %i2, i64 0, i64 1, !dbg !1446
  %i3 = icmp eq i64 %_4.i.i.i, 1, !dbg !1446
  br i1 %i3, label %codeRepl.i, label %"_ZN4core3ptr46drop_in_place$LT$alloc..vec..Vec$LT$u8$GT$$GT$17h847bf2c902b4894cE.19.exit", !dbg !1446

codeRepl.i:                                       ; preds = %start
; call core::ptr::drop_in_place<alloc::vec::Vec<u8>>.19.codeRepl.i
  call fastcc void @"_ZN4core3ptr46drop_in_place$LT$alloc..vec..Vec$LT$u8$GT$$GT$17h847bf2c902b4894cE.19.codeRepl.i"(ptr %_2.i.i.i), !dbg !1447
  br label %"_ZN4core3ptr46drop_in_place$LT$alloc..vec..Vec$LT$u8$GT$$GT$17h847bf2c902b4894cE.19.exit"

"_ZN4core3ptr46drop_in_place$LT$alloc..vec..Vec$LT$u8$GT$$GT$17h847bf2c902b4894cE.19.exit": ; preds = %codeRepl.i, %start
  call void @llvm.lifetime.end.p0(i64 24, ptr %_2.i.i.i), !dbg !1448
  ret void, !dbg !1449
}

; core::ptr::drop_in_place<std::thread::scoped::ScopeData>
; Function Attrs: nounwind
define internal fastcc void @"_ZN4core3ptr51drop_in_place$LT$std..thread..scoped..ScopeData$GT$17h3420b6e9af41b3c1E"(ptr align 8 %_1) unnamed_addr #0 !dbg !1450 {
start:
; call core::ptr::drop_in_place<std::thread::Thread>
  call fastcc void @"_ZN4core3ptr40drop_in_place$LT$std..thread..Thread$GT$17h5b153a16629d89b5E"(ptr align 8 %_1) #30, !dbg !1451
  ret void, !dbg !1451
}

; core::ptr::drop_in_place<std::thread::Packet<()>>
; Function Attrs: nounwind
define internal fastcc void @"_ZN4core3ptr56drop_in_place$LT$std..thread..Packet$LT$$LP$$RP$$GT$$GT$17h0ad858d0ab4cb101E"(ptr align 8 %_1) unnamed_addr #0 !dbg !1452 {
start:
; call <std::thread::Packet<T> as core::ops::drop::Drop>::drop
  call fastcc void @"_ZN70_$LT$std..thread..Packet$LT$T$GT$$u20$as$u20$core..ops..drop..Drop$GT$4drop17h9131cc2ec7cde47dE"(ptr align 8 %_1) #30, !dbg !1453
  %i = load ptr, ptr %_1, align 8, !dbg !1454, !noundef !15
  %i1 = ptrtoint ptr %i to i64, !dbg !1454
  %i2 = icmp ne i64 %i1, 0, !dbg !1454
  br i1 %i2, label %codeRepl.i, label %"_ZN4core3ptr103drop_in_place$LT$core..option..Option$LT$alloc..sync..Arc$LT$std..thread..scoped..ScopeData$GT$$GT$$GT$17h6b12620ddb54f28aE.25.exit", !dbg !1454

codeRepl.i:                                       ; preds = %start
; call core::ptr::drop_in_place<core::option::Option<alloc::sync::Arc<std::thread::scoped::ScopeData>>>.25.bb2
  call fastcc void @"_ZN4core3ptr103drop_in_place$LT$core..option..Option$LT$alloc..sync..Arc$LT$std..thread..scoped..ScopeData$GT$$GT$$GT$17h6b12620ddb54f28aE.25.bb2"(ptr %_1), !dbg !1454
  br label %"_ZN4core3ptr103drop_in_place$LT$core..option..Option$LT$alloc..sync..Arc$LT$std..thread..scoped..ScopeData$GT$$GT$$GT$17h6b12620ddb54f28aE.25.exit"

"_ZN4core3ptr103drop_in_place$LT$core..option..Option$LT$alloc..sync..Arc$LT$std..thread..scoped..ScopeData$GT$$GT$$GT$17h6b12620ddb54f28aE.25.exit": ; preds = %codeRepl.i, %start
  %i3 = getelementptr inbounds %"std::thread::Packet<'_, ()>", ptr %_1, i32 0, i32 1, !dbg !1453
; call core::ptr::drop_in_place<core::cell::UnsafeCell<core::option::Option<core::result::Result<(),alloc::boxed::Box<dyn core::any::Any+core::marker::Send>>>>>
  call fastcc void @"_ZN4core3ptr188drop_in_place$LT$core..cell..UnsafeCell$LT$core..option..Option$LT$core..result..Result$LT$$LP$$RP$$C$alloc..boxed..Box$LT$dyn$u20$core..any..Any$u2b$core..marker..Send$GT$$GT$$GT$$GT$$GT$17h7c97ef6621754814E"(ptr align 8 %i3) #30, !dbg !1453
  ret void, !dbg !1453
}

; core::ptr::drop_in_place<std::io::error::repr_bitpacked::Repr>
; Function Attrs: nounwind
define internal fastcc void @"_ZN4core3ptr57drop_in_place$LT$std..io..error..repr_bitpacked..Repr$GT$17h53157f53a2b8e4deE"(ptr %_1.0.val) unnamed_addr #0 !dbg !1457 {
start:
  %0 = icmp ne ptr %_1.0.val, null
  call void @llvm.assume(i1 %0)
; call <std::io::error::repr_bitpacked::Repr as core::ops::drop::Drop>::drop
  call fastcc void @"_ZN78_$LT$std..io..error..repr_bitpacked..Repr$u20$as$u20$core..ops..drop..Drop$GT$4drop17h798c5098db24a960E"(ptr %_1.0.val) #30, !dbg !1458
  ret void, !dbg !1458
}

; core::ptr::drop_in_place<alloc::boxed::Box<[u8]>>
; Function Attrs: nounwind
define internal fastcc void @"_ZN4core3ptr58drop_in_place$LT$alloc..boxed..Box$LT$$u5b$u8$u5d$$GT$$GT$17hba81ee3fa93ddfb7E"(ptr %_1.0.val, i64 %_1.8.val) unnamed_addr #0 !dbg !1459 {
start:
  %0 = icmp ne ptr %_1.0.val, null
  call void @llvm.assume(i1 %0)
; call <alloc::boxed::Box<T,A> as core::ops::drop::Drop>::drop
  call fastcc void @"_ZN72_$LT$alloc..boxed..Box$LT$T$C$A$GT$$u20$as$u20$core..ops..drop..Drop$GT$4drop17h2c37c46e81639ed7E"(ptr %_1.0.val, i64 %_1.8.val) #30, !dbg !1460
  ret void, !dbg !1460
}

; core::ptr::drop_in_place<alloc::sync::Arc<std::thread::Inner>>
; Function Attrs: nounwind
define internal fastcc void @"_ZN4core3ptr63drop_in_place$LT$alloc..sync..Arc$LT$std..thread..Inner$GT$$GT$17h0cab95804de09a7bE"(ptr align 8 %_1) unnamed_addr #0 !dbg !1461 {
start:
; call <alloc::sync::Arc<T,A> as core::ops::drop::Drop>::drop
  call fastcc void @"_ZN71_$LT$alloc..sync..Arc$LT$T$C$A$GT$$u20$as$u20$core..ops..drop..Drop$GT$4drop17h2d483f3e265bb89cE"(ptr align 8 %_1) #30, !dbg !1462
  ret void, !dbg !1462
}

; core::ptr::drop_in_place<std::sys::unix::locks::pthread_mutex::Mutex>
; Function Attrs: nounwind
define internal fastcc void @"_ZN4core3ptr64drop_in_place$LT$std..sys..unix..locks..pthread_mutex..Mutex$GT$17h39cc58c6d24270ffE"(ptr %_1.0.val) unnamed_addr #0 !dbg !1463 {
start:
; call core::ptr::drop_in_place<std::sys_common::lazy_box::LazyBox<std::sys::unix::locks::pthread_mutex::AllocatedMutex>>
  call fastcc void @"_ZN4core3ptr115drop_in_place$LT$std..sys_common..lazy_box..LazyBox$LT$std..sys..unix..locks..pthread_mutex..AllocatedMutex$GT$$GT$17h97514e607efc8f20E"(ptr %_1.0.val) #30, !dbg !1464
  ret void, !dbg !1464
}

; core::ptr::drop_in_place<std::sys::unix::thread_parking::darwin::Parker>
; Function Attrs: nounwind
define internal fastcc void @"_ZN4core3ptr67drop_in_place$LT$std..sys..unix..thread_parking..darwin..Parker$GT$17hc26251f5a5759dc3E"(ptr align 8 %_1) unnamed_addr #0 !dbg !1465 {
start:
; call <std::sys::unix::thread_parking::darwin::Parker as core::ops::drop::Drop>::drop
  call void @"_ZN88_$LT$std..sys..unix..thread_parking..darwin..Parker$u20$as$u20$core..ops..drop..Drop$GT$4drop17h0972e81f45f7d157E"(ptr align 8 %_1) #30, !dbg !1466
  ret void, !dbg !1466
}

; core::ptr::drop_in_place<alloc::boxed::Box<std::io::error::Custom>>
; Function Attrs: nounwind
define internal fastcc void @"_ZN4core3ptr68drop_in_place$LT$alloc..boxed..Box$LT$std..io..error..Custom$GT$$GT$17h1b9955aea60eab17E"(ptr nocapture readonly align 8 %_1) unnamed_addr #0 !dbg !1467 {
start:
  %_6 = load ptr, ptr %_1, align 8, !dbg !1468, !noundef !15
; call core::ptr::drop_in_place<std::io::error::Custom>
  call fastcc void @"_ZN4core3ptr43drop_in_place$LT$std..io..error..Custom$GT$17h55f776e26bf910a5E"(ptr align 8 %_6) #30, !dbg !1468
  %_1.val = load ptr, ptr %_1, align 8, !dbg !1468, !nonnull !15, !noundef !15
; call <alloc::boxed::Box<T,A> as core::ops::drop::Drop>::drop
  call fastcc void @"_ZN72_$LT$alloc..boxed..Box$LT$T$C$A$GT$$u20$as$u20$core..ops..drop..Drop$GT$4drop17h1b8b558c9ba83a7aE"(ptr %_1.val) #30, !dbg !1468
  ret void, !dbg !1468
}

; core::ptr::drop_in_place<alloc::sync::Arc<std::thread::scoped::ScopeData>>
; Function Attrs: nounwind
define internal fastcc void @"_ZN4core3ptr75drop_in_place$LT$alloc..sync..Arc$LT$std..thread..scoped..ScopeData$GT$$GT$17hbf2928889b0ebae0E"(ptr align 8 %_1) unnamed_addr #0 !dbg !1469 {
start:
; call <alloc::sync::Arc<T,A> as core::ops::drop::Drop>::drop
  call fastcc void @"_ZN71_$LT$alloc..sync..Arc$LT$T$C$A$GT$$u20$as$u20$core..ops..drop..Drop$GT$4drop17hde3c79e800c90d26E"(ptr align 8 %_1) #30, !dbg !1470
  ret void, !dbg !1470
}

; core::ptr::drop_in_place<core::cell::UnsafeCell<alloc::vec::Vec<u8>>>
; Function Attrs: nounwind
define internal fastcc void @"_ZN4core3ptr76drop_in_place$LT$core..cell..UnsafeCell$LT$alloc..vec..Vec$LT$u8$GT$$GT$$GT$17h89c7896183e1d032E"(ptr nocapture readonly align 8 %_1) unnamed_addr #0 !dbg !1471 {
start:
  %_2.i.i.i = alloca %"core::option::Option<(core::ptr::non_null::NonNull<u8>, core::alloc::layout::Layout)>", align 8
  call void @llvm.lifetime.start.p0(i64 24, ptr %_2.i.i.i), !dbg !1472
; call alloc::raw_vec::RawVec<T,A>::current_memory
  call fastcc void @"_ZN5alloc7raw_vec19RawVec$LT$T$C$A$GT$14current_memory17hf22dbf8892d3cc69E"(ptr noalias align 8 %_2.i.i.i, ptr align 8 %_1) #30, !dbg !1472
  %i = getelementptr inbounds %"core::option::Option<(core::ptr::non_null::NonNull<u8>, core::alloc::layout::Layout)>", ptr %_2.i.i.i, i32 0, i32 1, !dbg !1476
  %i1 = load i64, ptr %i, align 8, !dbg !1476, !range !887, !noundef !15
  %i2 = icmp eq i64 %i1, 0, !dbg !1476
  %_4.i.i.i = select i1 %i2, i64 0, i64 1, !dbg !1476
  %i3 = icmp eq i64 %_4.i.i.i, 1, !dbg !1476
  br i1 %i3, label %codeRepl.i, label %"_ZN4core3ptr46drop_in_place$LT$alloc..vec..Vec$LT$u8$GT$$GT$17h847bf2c902b4894cE.19.exit", !dbg !1476

codeRepl.i:                                       ; preds = %start
; call core::ptr::drop_in_place<alloc::vec::Vec<u8>>.19.codeRepl.i
  call fastcc void @"_ZN4core3ptr46drop_in_place$LT$alloc..vec..Vec$LT$u8$GT$$GT$17h847bf2c902b4894cE.19.codeRepl.i"(ptr %_2.i.i.i), !dbg !1477
  br label %"_ZN4core3ptr46drop_in_place$LT$alloc..vec..Vec$LT$u8$GT$$GT$17h847bf2c902b4894cE.19.exit"

"_ZN4core3ptr46drop_in_place$LT$alloc..vec..Vec$LT$u8$GT$$GT$17h847bf2c902b4894cE.19.exit": ; preds = %codeRepl.i, %start
  call void @llvm.lifetime.end.p0(i64 24, ptr %_2.i.i.i), !dbg !1478
  ret void, !dbg !1479
}

; core::ptr::drop_in_place<std::sync::mutex::Mutex<alloc::vec::Vec<u8>>>
; Function Attrs: nounwind
define internal fastcc void @"_ZN4core3ptr77drop_in_place$LT$std..sync..mutex..Mutex$LT$alloc..vec..Vec$LT$u8$GT$$GT$$GT$17hb90d64378631447eE"(ptr nocapture readonly align 8 %_1) unnamed_addr #0 !dbg !1480 {
start:
  %_1.val = load ptr, ptr %_1, align 8, !dbg !1481, !noundef !15
; call core::ptr::drop_in_place<std::sys::unix::locks::pthread_mutex::Mutex>
  call fastcc void @"_ZN4core3ptr64drop_in_place$LT$std..sys..unix..locks..pthread_mutex..Mutex$GT$17h39cc58c6d24270ffE"(ptr %_1.val) #30, !dbg !1481
  %i = getelementptr inbounds %"std::sync::mutex::Mutex<alloc::vec::Vec<u8>>", ptr %_1, i32 0, i32 3, !dbg !1481
; call core::ptr::drop_in_place<core::cell::UnsafeCell<alloc::vec::Vec<u8>>>
  call fastcc void @"_ZN4core3ptr76drop_in_place$LT$core..cell..UnsafeCell$LT$alloc..vec..Vec$LT$u8$GT$$GT$$GT$17h89c7896183e1d032E"(ptr align 8 %i) #30, !dbg !1481
  ret void, !dbg !1481
}

; core::ptr::drop_in_place<SAFE_RUSTSEC_2020_0116::main::{{closure}}>
; Function Attrs: nounwind
define internal fastcc void @"_ZN4core3ptr78drop_in_place$LT$SAFE_RUSTSEC_2020_0116..main..$u7b$$u7b$closure$u7d$$u7d$$GT$17hb69a9a9ec89df80eE"(ptr align 8 %_1) unnamed_addr #0 !dbg !1482 {
start:
; call core::ptr::drop_in_place<alloc::sync::Arc<std::sync::mutex::Mutex<SAFE_RUSTSEC_2020_0116::PinSlab<core::cell::Cell<i32>>>>>
  call fastcc void @"_ZN4core3ptr142drop_in_place$LT$alloc..sync..Arc$LT$std..sync..mutex..Mutex$LT$SAFE_RUSTSEC_2020_0116..PinSlab$LT$core..cell..Cell$LT$i32$GT$$GT$$GT$$GT$$GT$17h63dd075e2d3d2d29E"(ptr align 8 %_1) #30, !dbg !1483
  ret void, !dbg !1483
}

; core::ptr::drop_in_place<alloc::sync::Arc<std::thread::Packet<()>>>
; Function Attrs: nounwind
define internal fastcc void @"_ZN4core3ptr80drop_in_place$LT$alloc..sync..Arc$LT$std..thread..Packet$LT$$LP$$RP$$GT$$GT$$GT$17hc618d9fd77f45283E"(ptr align 8 %_1) unnamed_addr #0 !dbg !1484 {
start:
; call <alloc::sync::Arc<T,A> as core::ops::drop::Drop>::drop
  call fastcc void @"_ZN71_$LT$alloc..sync..Arc$LT$T$C$A$GT$$u20$as$u20$core..ops..drop..Drop$GT$4drop17hca991ca6003a0e55E"(ptr align 8 %_1) #30, !dbg !1485
  ret void, !dbg !1485
}

; core::ptr::drop_in_place<core::pin::Pin<alloc::sync::Arc<std::thread::Inner>>>
; Function Attrs: nounwind
define internal fastcc void @"_ZN4core3ptr85drop_in_place$LT$core..pin..Pin$LT$alloc..sync..Arc$LT$std..thread..Inner$GT$$GT$$GT$17h1730d9fdb99aba2bE"(ptr align 8 %_1) unnamed_addr #0 !dbg !1486 {
start:
; call core::ptr::drop_in_place<alloc::sync::Arc<std::thread::Inner>>
  call fastcc void @"_ZN4core3ptr63drop_in_place$LT$alloc..sync..Arc$LT$std..thread..Inner$GT$$GT$17h0cab95804de09a7bE"(ptr align 8 %_1) #30, !dbg !1487
  ret void, !dbg !1487
}

; core::ptr::drop_in_place<SAFE_RUSTSEC_2020_0116::PinSlab<core::cell::Cell<i32>>>
; Function Attrs: nounwind
define internal fastcc void @"_ZN4core3ptr87drop_in_place$LT$SAFE_RUSTSEC_2020_0116..PinSlab$LT$core..cell..Cell$LT$i32$GT$$GT$$GT$17h343a595ad8dfd7c0E"(ptr nocapture readonly align 8 %_1) unnamed_addr #0 !dbg !1488 {
start:
  %_2.i.i.i = alloca %"core::option::Option<(core::ptr::non_null::NonNull<u8>, core::alloc::layout::Layout)>", align 8
  call void @llvm.lifetime.start.p0(i64 24, ptr %_2.i.i.i), !dbg !1489
; call alloc::raw_vec::RawVec<T,A>::current_memory
  call fastcc void @"_ZN5alloc7raw_vec19RawVec$LT$T$C$A$GT$14current_memory17h28dc61afab3ba7b7E"(ptr noalias align 8 %_2.i.i.i, ptr align 8 %_1) #30, !dbg !1489
  %i = getelementptr inbounds %"core::option::Option<(core::ptr::non_null::NonNull<u8>, core::alloc::layout::Layout)>", ptr %_2.i.i.i, i32 0, i32 1, !dbg !1497
  %i1 = load i64, ptr %i, align 8, !dbg !1497, !range !887, !noundef !15
  %i2 = icmp eq i64 %i1, 0, !dbg !1497
  %_4.i.i.i = select i1 %i2, i64 0, i64 1, !dbg !1497
  %i3 = icmp eq i64 %_4.i.i.i, 1, !dbg !1497
  br i1 %i3, label %codeRepl.i, label %"_ZN4core3ptr71drop_in_place$LT$alloc..vec..Vec$LT$core..cell..Cell$LT$i32$GT$$GT$$GT$17h392ce5eb9a054f93E.16.exit", !dbg !1497

codeRepl.i:                                       ; preds = %start
; call core::ptr::drop_in_place<alloc::vec::Vec<u8>>.19.codeRepl.i
  call fastcc void @"_ZN4core3ptr46drop_in_place$LT$alloc..vec..Vec$LT$u8$GT$$GT$17h847bf2c902b4894cE.19.codeRepl.i"(ptr %_2.i.i.i), !dbg !1498
  br label %"_ZN4core3ptr71drop_in_place$LT$alloc..vec..Vec$LT$core..cell..Cell$LT$i32$GT$$GT$$GT$17h392ce5eb9a054f93E.16.exit"

"_ZN4core3ptr71drop_in_place$LT$alloc..vec..Vec$LT$core..cell..Cell$LT$i32$GT$$GT$$GT$17h392ce5eb9a054f93E.16.exit": ; preds = %codeRepl.i, %start
  call void @llvm.lifetime.end.p0(i64 24, ptr %_2.i.i.i), !dbg !1499
  ret void, !dbg !1500
}

; core::ptr::drop_in_place<alloc::boxed::Box<dyn core::any::Any+core::marker::Send>>
; Function Attrs: nounwind
define internal void @"_ZN4core3ptr91drop_in_place$LT$alloc..boxed..Box$LT$dyn$u20$core..any..Any$u2b$core..marker..Send$GT$$GT$17hadf7a9e5b1b4939eE"(ptr nocapture readonly align 8 %_1) unnamed_addr #0 !dbg !1501 {
start:
  %_6.0 = load ptr, ptr %_1, align 8, !dbg !1502, !noundef !15
  %i = getelementptr inbounds { ptr, ptr }, ptr %_1, i32 0, i32 1, !dbg !1502
  %_6.1 = load ptr, ptr %i, align 8, !dbg !1502, !nonnull !15, !align !599, !noundef !15
  %i1 = load ptr, ptr %_6.1, align 8, !dbg !1502, !invariant.load !15, !nonnull !15
  call void %i1(ptr align 1 %_6.0) #30, !dbg !1502
  %_1.val = load ptr, ptr %_1, align 8, !dbg !1502, !nonnull !15, !noundef !15
  %0 = getelementptr i8, ptr %_1, i64 8, !dbg !1502
  %_1.val2 = load ptr, ptr %0, align 8, !dbg !1502, !nonnull !15, !align !599, !noundef !15
; call <alloc::boxed::Box<T,A> as core::ops::drop::Drop>::drop
  call fastcc void @"_ZN72_$LT$alloc..boxed..Box$LT$T$C$A$GT$$u20$as$u20$core..ops..drop..Drop$GT$4drop17h74a0ed263656927dE"(ptr %_1.val, ptr %_1.val2) #30, !dbg !1502
  ret void, !dbg !1502
}

; core::ptr::drop_in_place<std::io::Write::write_fmt::Adapter<std::sys::unix::stdio::Stderr>>
; Function Attrs: nounwind
define internal void @"_ZN4core3ptr92drop_in_place$LT$std..io..Write..write_fmt..Adapter$LT$std..sys..unix..stdio..Stderr$GT$$GT$17h60f6f2af5f3ab2d4E"(ptr nocapture readonly align 8 %_1) unnamed_addr #0 !dbg !1503 {
start:
  %i = getelementptr inbounds { ptr, ptr }, ptr %_1, i32 0, i32 1, !dbg !1504
  %i1 = load ptr, ptr %i, align 8, !dbg !1505, !noundef !15
  %i2 = ptrtoint ptr %i1 to i64, !dbg !1505
  %i3 = icmp ne i64 %i2, 0, !dbg !1505
  br i1 %i3, label %codeRepl.i, label %"_ZN4core3ptr81drop_in_place$LT$core..result..Result$LT$$LP$$RP$$C$std..io..error..Error$GT$$GT$17h56e924c45d7789d9E.13.exit", !dbg !1505

codeRepl.i:                                       ; preds = %start
; call core::ptr::drop_in_place<core::result::Result<(),std::io::error::Error>>.13.bb2
  call fastcc void @"_ZN4core3ptr81drop_in_place$LT$core..result..Result$LT$$LP$$RP$$C$std..io..error..Error$GT$$GT$17h56e924c45d7789d9E.13.bb2"(ptr %i), !dbg !1505
  br label %"_ZN4core3ptr81drop_in_place$LT$core..result..Result$LT$$LP$$RP$$C$std..io..error..Error$GT$$GT$17h56e924c45d7789d9E.13.exit"

"_ZN4core3ptr81drop_in_place$LT$core..result..Result$LT$$LP$$RP$$C$std..io..error..Error$GT$$GT$17h56e924c45d7789d9E.13.exit": ; preds = %codeRepl.i, %start
  ret void, !dbg !1504
}

; core::cell::Cell<T>::new
; Function Attrs: inlinehint mustprogress nofree norecurse nosync nounwind willreturn memory(none)
define internal fastcc i32 @"_ZN4core4cell13Cell$LT$T$GT$3new17h88ef1541e6c38209E"(i32 returned %value) unnamed_addr #5 !dbg !1507 {
start:
  %_2 = alloca i32, align 4
  %_0 = alloca i32, align 4
  store i32 %value, ptr %_2, align 4, !dbg !1509
  store i32 %value, ptr %_0, align 4, !dbg !1513
  ret i32 %value, !dbg !1514
}

; core::cell::Cell<T>::set
; Function Attrs: inlinehint mustprogress nofree norecurse nosync nounwind willreturn memory(argmem: write)
define internal fastcc void @"_ZN4core4cell13Cell$LT$T$GT$3set17h2066ce4ac4b82b99E"(ptr nocapture writeonly align 4 %self, i32 %val) unnamed_addr #9 !dbg !1515 {
start:
  store i32 %val, ptr %self, align 4, !dbg !1516
  ret void, !dbg !1529
}

; core::char::methods::encode_utf8_raw
; Function Attrs: inlinehint nounwind
define internal fastcc { ptr, i64 } @_ZN4core4char7methods15encode_utf8_raw17h29af2635d2de2703E(i32 %arg, ptr align 1 %dst.0, i64 %dst.1) unnamed_addr #1 !dbg !1530 {
start:
  %_85 = alloca { i64, i64 }, align 8
  %_70 = alloca i64, align 8
  %_68 = alloca { ptr, ptr }, align 8
  %_66 = alloca { ptr, ptr }, align 8
  %_64 = alloca { ptr, ptr }, align 8
  %_63 = alloca [3 x { ptr, ptr }], align 8
  %_59 = alloca %"core::fmt::Arguments<'_>", align 8
  %len = alloca i64, align 8
  %code = alloca i32, align 4
  store i32 %arg, ptr %code, align 4
  %_73 = icmp uge i32 %arg, 128, !dbg !1531
  br i1 %_73, label %bb13, label %Flow49, !dbg !1531

bb13:                                             ; preds = %start
  %_74 = icmp uge i32 %arg, 2048, !dbg !1535
  br i1 %_74, label %bb15, label %Flow47, !dbg !1535

Flow49:                                           ; preds = %Flow48, %start
  %0 = phi i64 [ %6, %Flow48 ], [ undef, %start ]
  %1 = phi i1 [ false, %Flow48 ], [ true, %start ], !dbg !1531
  br i1 %1, label %bb12, label %bb20, !dbg !1531

bb12:                                             ; preds = %Flow49
  store i64 1, ptr %len, align 8, !dbg !1536
  br label %bb20, !dbg !1537

bb15:                                             ; preds = %bb13
  %_75 = icmp uge i32 %arg, 65536, !dbg !1538
  br i1 %_75, label %bb17, label %Flow, !dbg !1538

Flow47:                                           ; preds = %Flow46, %bb13
  %2 = phi i64 [ %5, %Flow46 ], [ undef, %bb13 ]
  %3 = phi i1 [ false, %Flow46 ], [ true, %bb13 ], !dbg !1535
  br i1 %3, label %bb14, label %Flow48, !dbg !1535

bb14:                                             ; preds = %Flow47
  store i64 2, ptr %len, align 8, !dbg !1539
  br label %Flow48, !dbg !1540

bb17:                                             ; preds = %bb15
  store i64 4, ptr %len, align 8, !dbg !1541
  br label %Flow, !dbg !1542

Flow:                                             ; preds = %bb17, %bb15
  %4 = phi i1 [ false, %bb17 ], [ true, %bb15 ], !dbg !1538
  br i1 %4, label %bb16, label %Flow46, !dbg !1538

bb16:                                             ; preds = %Flow
  store i64 3, ptr %len, align 8, !dbg !1543
  br label %Flow46, !dbg !1542

Flow46:                                           ; preds = %bb16, %Flow
  %5 = phi i64 [ 3, %bb16 ], [ 4, %Flow ]
  br label %Flow47, !dbg !1538

Flow48:                                           ; preds = %bb14, %Flow47
  %6 = phi i64 [ 2, %bb14 ], [ %2, %Flow47 ]
  br label %Flow49, !dbg !1535

bb20:                                             ; preds = %bb12, %Flow49
  %index = phi i64 [ %0, %Flow49 ], [ 1, %bb12 ], !dbg !1544
  switch i64 %index, label %bb2 [
    i64 1, label %bb1
    i64 2, label %bb3
    i64 3, label %bb4
    i64 4, label %bb5
  ], !dbg !1546

bb2:                                              ; preds = %bb5, %bb4, %bb3, %bb1, %bb20
  store ptr %len, ptr %_64, align 8, !dbg !1547
  %i = getelementptr inbounds { ptr, ptr }, ptr %_64, i32 0, i32 1, !dbg !1547
  store ptr @"_ZN4core3fmt3num3imp54_$LT$impl$u20$core..fmt..Display$u20$for$u20$usize$GT$3fmt17h7ff1be1e6379c455E", ptr %i, align 8, !dbg !1547
  store ptr %code, ptr %_66, align 8, !dbg !1558
  %i8 = getelementptr inbounds { ptr, ptr }, ptr %_66, i32 0, i32 1, !dbg !1558
  store ptr @"_ZN4core3fmt3num53_$LT$impl$u20$core..fmt..UpperHex$u20$for$u20$u32$GT$3fmt17h2a2e8b4c1c811399E", ptr %i8, align 8, !dbg !1558
  store i64 %dst.1, ptr %_70, align 8, !dbg !1566
  store ptr %_70, ptr %_68, align 8, !dbg !1567
  %i9 = getelementptr inbounds { ptr, ptr }, ptr %_68, i32 0, i32 1, !dbg !1567
  store ptr @"_ZN4core3fmt3num3imp54_$LT$impl$u20$core..fmt..Display$u20$for$u20$usize$GT$3fmt17h7ff1be1e6379c455E", ptr %i9, align 8, !dbg !1567
  store ptr %len, ptr %_63, align 8, !dbg !1573
  %i13 = getelementptr inbounds { ptr, ptr }, ptr %_63, i32 0, i32 1, !dbg !1573
  store ptr @"_ZN4core3fmt3num3imp54_$LT$impl$u20$core..fmt..Display$u20$for$u20$usize$GT$3fmt17h7ff1be1e6379c455E", ptr %i13, align 8, !dbg !1573
  %i17 = getelementptr inbounds [3 x { ptr, ptr }], ptr %_63, i64 0, i64 1, !dbg !1573
  store ptr %code, ptr %i17, align 8, !dbg !1573
  %i18 = getelementptr inbounds { ptr, ptr }, ptr %i17, i32 0, i32 1, !dbg !1573
  store ptr @"_ZN4core3fmt3num53_$LT$impl$u20$core..fmt..UpperHex$u20$for$u20$u32$GT$3fmt17h2a2e8b4c1c811399E", ptr %i18, align 8, !dbg !1573
  %i22 = getelementptr inbounds [3 x { ptr, ptr }], ptr %_63, i64 0, i64 2, !dbg !1573
  store ptr %_70, ptr %i22, align 8, !dbg !1573
  %i23 = getelementptr inbounds { ptr, ptr }, ptr %i22, i32 0, i32 1, !dbg !1573
  store ptr @"_ZN4core3fmt3num3imp54_$LT$impl$u20$core..fmt..Display$u20$for$u20$usize$GT$3fmt17h7ff1be1e6379c455E", ptr %i23, align 8, !dbg !1573
; call core::fmt::Arguments::new_v1
  call fastcc void @_ZN4core3fmt9Arguments6new_v117hb1e408c6d81a8e9eE(ptr noalias align 8 %_59, ptr align 8 @alloc_d51214f097f67314513b76e97e13aa6b, i64 3, ptr align 8 %_63, i64 3) #30, !dbg !1573
; call core::panicking::panic_fmt
  call void @_ZN4core9panicking9panic_fmt17hff768cef35397791E(ptr align 8 %_59, ptr align 8 @alloc_15e56ccbce15945ea86b75a3c6d59ec8) #31, !dbg !1573
  unreachable, !dbg !1573

bb1:                                              ; preds = %bb20
  %_7 = icmp uge i64 %dst.1, 1, !dbg !1574
  br i1 %_7, label %bb6, label %bb2, !dbg !1574

bb3:                                              ; preds = %bb20
  %_9 = icmp uge i64 %dst.1, 2, !dbg !1575
  br i1 %_9, label %bb7, label %bb2, !dbg !1575

bb4:                                              ; preds = %bb20
  %_11 = icmp uge i64 %dst.1, 3, !dbg !1576
  br i1 %_11, label %bb8, label %bb2, !dbg !1576

bb5:                                              ; preds = %bb20
  %_13 = icmp uge i64 %dst.1, 4, !dbg !1577
  br i1 %_13, label %bb9, label %bb2, !dbg !1577

bb6:                                              ; preds = %bb1
  %i24 = trunc i32 %arg to i8, !dbg !1578
  store i8 %i24, ptr %dst.0, align 1, !dbg !1578
  br label %bb11, !dbg !1580

bb11:                                             ; preds = %bb9, %bb8, %bb7, %bb6
  store i64 0, ptr %_85, align 8, !dbg !1581
  %i25 = getelementptr inbounds { i64, i64 }, ptr %_85, i32 0, i32 1, !dbg !1581
  store i64 %index, ptr %i25, align 8, !dbg !1581
; call <core::ops::range::Range<usize> as core::slice::index::SliceIndex<[T]>>::index_mut
  %i29 = call fastcc { ptr, i64 } @"_ZN106_$LT$core..ops..range..Range$LT$usize$GT$$u20$as$u20$core..slice..index..SliceIndex$LT$$u5b$T$u5d$$GT$$GT$9index_mut17had77882a4e0aeb23E"(i64 0, i64 %index, ptr align 1 %dst.0, i64 %dst.1, ptr align 8 @alloc_6a0114d2661e84bef3991f7200e47da8) #30, !dbg !1581
  ret { ptr, i64 } %i29, !dbg !1590

bb7:                                              ; preds = %bb3
  %_20 = lshr i32 %arg, 6, !dbg !1591
  %_19 = and i32 %_20, 31, !dbg !1593
  %_18 = trunc i32 %_19 to i8, !dbg !1593
  %i30 = or i8 %_18, -64, !dbg !1594
  store i8 %i30, ptr %dst.0, align 1, !dbg !1594
  %_23 = and i32 %arg, 63, !dbg !1595
  %_22 = trunc i32 %_23 to i8, !dbg !1595
  %i31 = getelementptr inbounds [0 x i8], ptr %dst.0, i64 0, i64 1, !dbg !1596
  %i32 = or i8 %_22, -128, !dbg !1596
  store i8 %i32, ptr %i31, align 1, !dbg !1596
  br label %bb11, !dbg !1597

bb8:                                              ; preds = %bb4
  %_30 = lshr i32 %arg, 12, !dbg !1598
  %_29 = and i32 %_30, 15, !dbg !1600
  %_28 = trunc i32 %_29 to i8, !dbg !1600
  %i33 = or i8 %_28, -32, !dbg !1601
  store i8 %i33, ptr %dst.0, align 1, !dbg !1601
  %_34 = lshr i32 %arg, 6, !dbg !1602
  %_33 = and i32 %_34, 63, !dbg !1603
  %_32 = trunc i32 %_33 to i8, !dbg !1603
  %i34 = getelementptr inbounds [0 x i8], ptr %dst.0, i64 0, i64 1, !dbg !1604
  %i35 = or i8 %_32, -128, !dbg !1604
  store i8 %i35, ptr %i34, align 1, !dbg !1604
  %_37 = and i32 %arg, 63, !dbg !1605
  %_36 = trunc i32 %_37 to i8, !dbg !1605
  %i36 = getelementptr inbounds [0 x i8], ptr %dst.0, i64 0, i64 2, !dbg !1606
  %i37 = or i8 %_36, -128, !dbg !1606
  store i8 %i37, ptr %i36, align 1, !dbg !1606
  br label %bb11, !dbg !1607

bb9:                                              ; preds = %bb5
  %_45 = lshr i32 %arg, 18, !dbg !1608
  %_44 = and i32 %_45, 7, !dbg !1610
  %_43 = trunc i32 %_44 to i8, !dbg !1610
  %i38 = or i8 %_43, -16, !dbg !1611
  store i8 %i38, ptr %dst.0, align 1, !dbg !1611
  %_49 = lshr i32 %arg, 12, !dbg !1612
  %_48 = and i32 %_49, 63, !dbg !1613
  %_47 = trunc i32 %_48 to i8, !dbg !1613
  %i39 = getelementptr inbounds [0 x i8], ptr %dst.0, i64 0, i64 1, !dbg !1614
  %i40 = or i8 %_47, -128, !dbg !1614
  store i8 %i40, ptr %i39, align 1, !dbg !1614
  %_53 = lshr i32 %arg, 6, !dbg !1615
  %_52 = and i32 %_53, 63, !dbg !1616
  %_51 = trunc i32 %_52 to i8, !dbg !1616
  %i41 = getelementptr inbounds [0 x i8], ptr %dst.0, i64 0, i64 2, !dbg !1617
  %i42 = or i8 %_51, -128, !dbg !1617
  store i8 %i42, ptr %i41, align 1, !dbg !1617
  %_56 = and i32 %arg, 63, !dbg !1618
  %_55 = trunc i32 %_56 to i8, !dbg !1618
  %i43 = getelementptr inbounds [0 x i8], ptr %dst.0, i64 0, i64 3, !dbg !1619
  %i44 = or i8 %_55, -128, !dbg !1619
  store i8 %i44, ptr %i43, align 1, !dbg !1619
  br label %bb11, !dbg !1620
}

; core::sync::atomic::atomic_load
; Function Attrs: inlinehint nounwind
define internal fastcc i64 @_ZN4core4sync6atomic11atomic_load17h0ac1c24e09f93c18E(ptr nocapture readonly %dst, i8 %arg) unnamed_addr #1 !dbg !1621 {
start:
  %_26 = alloca { ptr, i64 }, align 8
  %_17 = alloca { ptr, i64 }, align 8
  %_8 = alloca %"core::fmt::Arguments<'_>", align 8
  %_5 = alloca %"core::fmt::Arguments<'_>", align 8
  %_0 = alloca i64, align 8
  %order = alloca i8, align 1
  store i8 %arg, ptr %order, align 1
  %_3 = zext i8 %arg to i64, !dbg !1622
  switch i64 %_3, label %bb2 [
    i64 0, label %bb3
    i64 1, label %bb13
    i64 2, label %bb4
    i64 3, label %bb10
    i64 4, label %bb5
  ], !dbg !1624

bb2:                                              ; preds = %start
  unreachable

bb3:                                              ; preds = %start
  %i2 = load atomic i64, ptr %dst monotonic, align 8, !dbg !1625
  store i64 %i2, ptr %_0, align 8, !dbg !1625
  br label %bb7, !dbg !1625

bb4:                                              ; preds = %start
  %i3 = load atomic i64, ptr %dst acquire, align 8, !dbg !1626
  store i64 %i3, ptr %_0, align 8, !dbg !1626
  br label %bb7, !dbg !1626

bb5:                                              ; preds = %start
  %i4 = load atomic i64, ptr %dst seq_cst, align 8, !dbg !1627
  store i64 %i4, ptr %_0, align 8, !dbg !1627
  br label %bb7, !dbg !1627

bb7:                                              ; preds = %bb5, %bb4, %bb3
  %i5 = phi i64 [ %i4, %bb5 ], [ %i3, %bb4 ], [ %i2, %bb3 ], !dbg !1628
  ret i64 %i5, !dbg !1628

bb13:                                             ; preds = %start
  store ptr null, ptr %_26, align 8, !dbg !1629
  store ptr @alloc_cf8f91dd8bc9347b20052f6ccc905cd7, ptr %_5, align 8, !dbg !1634
  %i6 = getelementptr inbounds { ptr, i64 }, ptr %_5, i32 0, i32 1, !dbg !1634
  store i64 1, ptr %i6, align 8, !dbg !1634
  %i10 = getelementptr inbounds %"core::fmt::Arguments<'_>", ptr %_5, i32 0, i32 2, !dbg !1634
  store ptr null, ptr %i10, align 8, !dbg !1634
  %i11 = getelementptr inbounds { ptr, i64 }, ptr %i10, i32 0, i32 1, !dbg !1634
  store i64 undef, ptr %i11, align 8, !dbg !1634
  %i12 = getelementptr inbounds %"core::fmt::Arguments<'_>", ptr %_5, i32 0, i32 1, !dbg !1634
  store ptr @alloc_513570631223a12912d85da2bec3b15a, ptr %i12, align 8, !dbg !1634
  %i13 = getelementptr inbounds { ptr, i64 }, ptr %i12, i32 0, i32 1, !dbg !1634
  store i64 0, ptr %i13, align 8, !dbg !1634
; call core::panicking::panic_fmt
  call void @_ZN4core9panicking9panic_fmt17hff768cef35397791E(ptr align 8 %_5, ptr align 8 @alloc_4c32346d01eeb3c0619dc95e0468893e) #31, !dbg !1635
  unreachable

bb10:                                             ; preds = %start
  store ptr null, ptr %_17, align 8, !dbg !1636
  store ptr @alloc_7e8e9a1d4bc7d0bbec692f0a50681e22, ptr %_8, align 8, !dbg !1638
  %i14 = getelementptr inbounds { ptr, i64 }, ptr %_8, i32 0, i32 1, !dbg !1638
  store i64 1, ptr %i14, align 8, !dbg !1638
  %i18 = getelementptr inbounds %"core::fmt::Arguments<'_>", ptr %_8, i32 0, i32 2, !dbg !1638
  store ptr null, ptr %i18, align 8, !dbg !1638
  %i19 = getelementptr inbounds { ptr, i64 }, ptr %i18, i32 0, i32 1, !dbg !1638
  store i64 undef, ptr %i19, align 8, !dbg !1638
  %i20 = getelementptr inbounds %"core::fmt::Arguments<'_>", ptr %_8, i32 0, i32 1, !dbg !1638
  store ptr @alloc_513570631223a12912d85da2bec3b15a, ptr %i20, align 8, !dbg !1638
  %i21 = getelementptr inbounds { ptr, i64 }, ptr %i20, i32 0, i32 1, !dbg !1638
  store i64 0, ptr %i21, align 8, !dbg !1638
; call core::panicking::panic_fmt
  call void @_ZN4core9panicking9panic_fmt17hff768cef35397791E(ptr align 8 %_8, ptr align 8 @alloc_93c532d79ae5a1fe4b07989efd8a35e4) #31, !dbg !1639
  unreachable
}

; core::sync::atomic::atomic_load
; Function Attrs: inlinehint nounwind
define internal fastcc i8 @_ZN4core4sync6atomic11atomic_load17h6919fcb1ea23728cE(ptr nocapture readonly %dst, i8 %arg) unnamed_addr #1 !dbg !1640 {
start:
  %_26 = alloca { ptr, i64 }, align 8
  %_17 = alloca { ptr, i64 }, align 8
  %_8 = alloca %"core::fmt::Arguments<'_>", align 8
  %_5 = alloca %"core::fmt::Arguments<'_>", align 8
  %_0 = alloca i8, align 1
  %order = alloca i8, align 1
  store i8 %arg, ptr %order, align 1
  %_3 = zext i8 %arg to i64, !dbg !1641
  switch i64 %_3, label %bb2 [
    i64 0, label %bb3
    i64 1, label %bb13
    i64 2, label %bb4
    i64 3, label %bb10
    i64 4, label %bb5
  ], !dbg !1643

bb2:                                              ; preds = %start
  unreachable

bb3:                                              ; preds = %start
  %i2 = load atomic i8, ptr %dst monotonic, align 1, !dbg !1644
  store i8 %i2, ptr %_0, align 1, !dbg !1644
  br label %bb7, !dbg !1644

bb4:                                              ; preds = %start
  %i3 = load atomic i8, ptr %dst acquire, align 1, !dbg !1645
  store i8 %i3, ptr %_0, align 1, !dbg !1645
  br label %bb7, !dbg !1645

bb5:                                              ; preds = %start
  %i4 = load atomic i8, ptr %dst seq_cst, align 1, !dbg !1646
  store i8 %i4, ptr %_0, align 1, !dbg !1646
  br label %bb7, !dbg !1646

bb7:                                              ; preds = %bb5, %bb4, %bb3
  %i5 = phi i8 [ %i4, %bb5 ], [ %i3, %bb4 ], [ %i2, %bb3 ], !dbg !1647
  ret i8 %i5, !dbg !1647

bb13:                                             ; preds = %start
  store ptr null, ptr %_26, align 8, !dbg !1648
  store ptr @alloc_cf8f91dd8bc9347b20052f6ccc905cd7, ptr %_5, align 8, !dbg !1653
  %i6 = getelementptr inbounds { ptr, i64 }, ptr %_5, i32 0, i32 1, !dbg !1653
  store i64 1, ptr %i6, align 8, !dbg !1653
  %i10 = getelementptr inbounds %"core::fmt::Arguments<'_>", ptr %_5, i32 0, i32 2, !dbg !1653
  store ptr null, ptr %i10, align 8, !dbg !1653
  %i11 = getelementptr inbounds { ptr, i64 }, ptr %i10, i32 0, i32 1, !dbg !1653
  store i64 undef, ptr %i11, align 8, !dbg !1653
  %i12 = getelementptr inbounds %"core::fmt::Arguments<'_>", ptr %_5, i32 0, i32 1, !dbg !1653
  store ptr @alloc_513570631223a12912d85da2bec3b15a, ptr %i12, align 8, !dbg !1653
  %i13 = getelementptr inbounds { ptr, i64 }, ptr %i12, i32 0, i32 1, !dbg !1653
  store i64 0, ptr %i13, align 8, !dbg !1653
; call core::panicking::panic_fmt
  call void @_ZN4core9panicking9panic_fmt17hff768cef35397791E(ptr align 8 %_5, ptr align 8 @alloc_4c32346d01eeb3c0619dc95e0468893e) #31, !dbg !1654
  unreachable

bb10:                                             ; preds = %start
  store ptr null, ptr %_17, align 8, !dbg !1655
  store ptr @alloc_7e8e9a1d4bc7d0bbec692f0a50681e22, ptr %_8, align 8, !dbg !1657
  %i14 = getelementptr inbounds { ptr, i64 }, ptr %_8, i32 0, i32 1, !dbg !1657
  store i64 1, ptr %i14, align 8, !dbg !1657
  %i18 = getelementptr inbounds %"core::fmt::Arguments<'_>", ptr %_8, i32 0, i32 2, !dbg !1657
  store ptr null, ptr %i18, align 8, !dbg !1657
  %i19 = getelementptr inbounds { ptr, i64 }, ptr %i18, i32 0, i32 1, !dbg !1657
  store i64 undef, ptr %i19, align 8, !dbg !1657
  %i20 = getelementptr inbounds %"core::fmt::Arguments<'_>", ptr %_8, i32 0, i32 1, !dbg !1657
  store ptr @alloc_513570631223a12912d85da2bec3b15a, ptr %i20, align 8, !dbg !1657
  %i21 = getelementptr inbounds { ptr, i64 }, ptr %i20, i32 0, i32 1, !dbg !1657
  store i64 0, ptr %i21, align 8, !dbg !1657
; call core::panicking::panic_fmt
  call void @_ZN4core9panicking9panic_fmt17hff768cef35397791E(ptr align 8 %_8, ptr align 8 @alloc_93c532d79ae5a1fe4b07989efd8a35e4) #31, !dbg !1658
  unreachable
}

; core::sync::atomic::atomic_load
; Function Attrs: inlinehint nounwind
define internal fastcc ptr @_ZN4core4sync6atomic11atomic_load17hf0c380524e307fa1E(ptr nocapture readonly %dst, i8 %arg) unnamed_addr #1 !dbg !1659 {
start:
  %_26 = alloca { ptr, i64 }, align 8
  %_17 = alloca { ptr, i64 }, align 8
  %_8 = alloca %"core::fmt::Arguments<'_>", align 8
  %_5 = alloca %"core::fmt::Arguments<'_>", align 8
  %_0 = alloca ptr, align 8
  %order = alloca i8, align 1
  store i8 %arg, ptr %order, align 1
  %_3 = zext i8 %arg to i64, !dbg !1660
  switch i64 %_3, label %bb2 [
    i64 0, label %bb3
    i64 1, label %bb13
    i64 2, label %bb4
    i64 3, label %bb10
    i64 4, label %bb5
  ], !dbg !1662

bb2:                                              ; preds = %start
  unreachable

bb3:                                              ; preds = %start
  %i2 = load atomic i64, ptr %dst monotonic, align 8, !dbg !1663
  %i3 = inttoptr i64 %i2 to ptr, !dbg !1663
  store ptr %i3, ptr %_0, align 8, !dbg !1663
  br label %bb7, !dbg !1663

bb4:                                              ; preds = %start
  %i4 = load atomic i64, ptr %dst acquire, align 8, !dbg !1664
  %i5 = inttoptr i64 %i4 to ptr, !dbg !1664
  store ptr %i5, ptr %_0, align 8, !dbg !1664
  br label %bb7, !dbg !1664

bb5:                                              ; preds = %start
  %i6 = load atomic i64, ptr %dst seq_cst, align 8, !dbg !1665
  %i7 = inttoptr i64 %i6 to ptr, !dbg !1665
  store ptr %i7, ptr %_0, align 8, !dbg !1665
  br label %bb7, !dbg !1665

bb7:                                              ; preds = %bb5, %bb4, %bb3
  %i8 = phi ptr [ %i7, %bb5 ], [ %i5, %bb4 ], [ %i3, %bb3 ], !dbg !1666
  ret ptr %i8, !dbg !1666

bb13:                                             ; preds = %start
  store ptr null, ptr %_26, align 8, !dbg !1667
  store ptr @alloc_cf8f91dd8bc9347b20052f6ccc905cd7, ptr %_5, align 8, !dbg !1672
  %i9 = getelementptr inbounds { ptr, i64 }, ptr %_5, i32 0, i32 1, !dbg !1672
  store i64 1, ptr %i9, align 8, !dbg !1672
  %i13 = getelementptr inbounds %"core::fmt::Arguments<'_>", ptr %_5, i32 0, i32 2, !dbg !1672
  store ptr null, ptr %i13, align 8, !dbg !1672
  %i14 = getelementptr inbounds { ptr, i64 }, ptr %i13, i32 0, i32 1, !dbg !1672
  store i64 undef, ptr %i14, align 8, !dbg !1672
  %i15 = getelementptr inbounds %"core::fmt::Arguments<'_>", ptr %_5, i32 0, i32 1, !dbg !1672
  store ptr @alloc_513570631223a12912d85da2bec3b15a, ptr %i15, align 8, !dbg !1672
  %i16 = getelementptr inbounds { ptr, i64 }, ptr %i15, i32 0, i32 1, !dbg !1672
  store i64 0, ptr %i16, align 8, !dbg !1672
; call core::panicking::panic_fmt
  call void @_ZN4core9panicking9panic_fmt17hff768cef35397791E(ptr align 8 %_5, ptr align 8 @alloc_4c32346d01eeb3c0619dc95e0468893e) #31, !dbg !1673
  unreachable

bb10:                                             ; preds = %start
  store ptr null, ptr %_17, align 8, !dbg !1674
  store ptr @alloc_7e8e9a1d4bc7d0bbec692f0a50681e22, ptr %_8, align 8, !dbg !1676
  %i17 = getelementptr inbounds { ptr, i64 }, ptr %_8, i32 0, i32 1, !dbg !1676
  store i64 1, ptr %i17, align 8, !dbg !1676
  %i21 = getelementptr inbounds %"core::fmt::Arguments<'_>", ptr %_8, i32 0, i32 2, !dbg !1676
  store ptr null, ptr %i21, align 8, !dbg !1676
  %i22 = getelementptr inbounds { ptr, i64 }, ptr %i21, i32 0, i32 1, !dbg !1676
  store i64 undef, ptr %i22, align 8, !dbg !1676
  %i23 = getelementptr inbounds %"core::fmt::Arguments<'_>", ptr %_8, i32 0, i32 1, !dbg !1676
  store ptr @alloc_513570631223a12912d85da2bec3b15a, ptr %i23, align 8, !dbg !1676
  %i24 = getelementptr inbounds { ptr, i64 }, ptr %i23, i32 0, i32 1, !dbg !1676
  store i64 0, ptr %i24, align 8, !dbg !1676
; call core::panicking::panic_fmt
  call void @_ZN4core9panicking9panic_fmt17hff768cef35397791E(ptr align 8 %_8, ptr align 8 @alloc_93c532d79ae5a1fe4b07989efd8a35e4) #31, !dbg !1677
  unreachable
}

; core::sync::atomic::atomic_store
; Function Attrs: inlinehint nounwind
define internal fastcc void @_ZN4core4sync6atomic12atomic_store17h0a966aa79bcf2635E(ptr nocapture writeonly %dst, i64 %val, i8 %arg) unnamed_addr #1 !dbg !1678 {
start:
  %_27 = alloca { ptr, i64 }, align 8
  %_18 = alloca { ptr, i64 }, align 8
  %_9 = alloca %"core::fmt::Arguments<'_>", align 8
  %_6 = alloca %"core::fmt::Arguments<'_>", align 8
  %order = alloca i8, align 1
  store i8 %arg, ptr %order, align 1
  %_4 = zext i8 %arg to i64, !dbg !1679
  switch i64 %_4, label %bb2 [
    i64 0, label %bb3
    i64 1, label %bb4
    i64 2, label %bb13
    i64 3, label %bb10
    i64 4, label %bb5
  ], !dbg !1681

bb2:                                              ; preds = %start
  unreachable

bb3:                                              ; preds = %start
  store atomic i64 %val, ptr %dst monotonic, align 8, !dbg !1682
  br label %bb7, !dbg !1682

bb4:                                              ; preds = %start
  store atomic i64 %val, ptr %dst release, align 8, !dbg !1683
  br label %bb7, !dbg !1683

bb5:                                              ; preds = %start
  store atomic i64 %val, ptr %dst seq_cst, align 8, !dbg !1684
  br label %bb7, !dbg !1684

bb7:                                              ; preds = %bb5, %bb4, %bb3
  ret void, !dbg !1685

bb13:                                             ; preds = %start
  store ptr null, ptr %_27, align 8, !dbg !1686
  store ptr @alloc_47c752ba42fbab56d43a37cfd56e4899, ptr %_6, align 8, !dbg !1691
  %i2 = getelementptr inbounds { ptr, i64 }, ptr %_6, i32 0, i32 1, !dbg !1691
  store i64 1, ptr %i2, align 8, !dbg !1691
  %i6 = getelementptr inbounds %"core::fmt::Arguments<'_>", ptr %_6, i32 0, i32 2, !dbg !1691
  store ptr null, ptr %i6, align 8, !dbg !1691
  %i7 = getelementptr inbounds { ptr, i64 }, ptr %i6, i32 0, i32 1, !dbg !1691
  store i64 undef, ptr %i7, align 8, !dbg !1691
  %i8 = getelementptr inbounds %"core::fmt::Arguments<'_>", ptr %_6, i32 0, i32 1, !dbg !1691
  store ptr @alloc_513570631223a12912d85da2bec3b15a, ptr %i8, align 8, !dbg !1691
  %i9 = getelementptr inbounds { ptr, i64 }, ptr %i8, i32 0, i32 1, !dbg !1691
  store i64 0, ptr %i9, align 8, !dbg !1691
; call core::panicking::panic_fmt
  call void @_ZN4core9panicking9panic_fmt17hff768cef35397791E(ptr align 8 %_6, ptr align 8 @alloc_cb63d255000c7e9fed7db8f9c4b60326) #31, !dbg !1692
  unreachable

bb10:                                             ; preds = %start
  store ptr null, ptr %_18, align 8, !dbg !1693
  store ptr @alloc_f8dbac861f87e25e445761cc4af66745, ptr %_9, align 8, !dbg !1695
  %i10 = getelementptr inbounds { ptr, i64 }, ptr %_9, i32 0, i32 1, !dbg !1695
  store i64 1, ptr %i10, align 8, !dbg !1695
  %i14 = getelementptr inbounds %"core::fmt::Arguments<'_>", ptr %_9, i32 0, i32 2, !dbg !1695
  store ptr null, ptr %i14, align 8, !dbg !1695
  %i15 = getelementptr inbounds { ptr, i64 }, ptr %i14, i32 0, i32 1, !dbg !1695
  store i64 undef, ptr %i15, align 8, !dbg !1695
  %i16 = getelementptr inbounds %"core::fmt::Arguments<'_>", ptr %_9, i32 0, i32 1, !dbg !1695
  store ptr @alloc_513570631223a12912d85da2bec3b15a, ptr %i16, align 8, !dbg !1695
  %i17 = getelementptr inbounds { ptr, i64 }, ptr %i16, i32 0, i32 1, !dbg !1695
  store i64 0, ptr %i17, align 8, !dbg !1695
; call core::panicking::panic_fmt
  call void @_ZN4core9panicking9panic_fmt17hff768cef35397791E(ptr align 8 %_9, ptr align 8 @alloc_2061bd2e099bb1065f735aed396f79a4) #31, !dbg !1696
  unreachable
}

; core::sync::atomic::atomic_store
; Function Attrs: inlinehint nounwind
define internal fastcc void @_ZN4core4sync6atomic12atomic_store17hdeb02921d57c9a26E(ptr nocapture writeonly %dst, i8 %val, i8 %arg) unnamed_addr #1 !dbg !1697 {
start:
  %_27 = alloca { ptr, i64 }, align 8
  %_18 = alloca { ptr, i64 }, align 8
  %_9 = alloca %"core::fmt::Arguments<'_>", align 8
  %_6 = alloca %"core::fmt::Arguments<'_>", align 8
  %order = alloca i8, align 1
  store i8 %arg, ptr %order, align 1
  %_4 = zext i8 %arg to i64, !dbg !1698
  switch i64 %_4, label %bb2 [
    i64 0, label %bb3
    i64 1, label %bb4
    i64 2, label %bb13
    i64 3, label %bb10
    i64 4, label %bb5
  ], !dbg !1700

bb2:                                              ; preds = %start
  unreachable

bb3:                                              ; preds = %start
  store atomic i8 %val, ptr %dst monotonic, align 1, !dbg !1701
  br label %bb7, !dbg !1701

bb4:                                              ; preds = %start
  store atomic i8 %val, ptr %dst release, align 1, !dbg !1702
  br label %bb7, !dbg !1702

bb5:                                              ; preds = %start
  store atomic i8 %val, ptr %dst seq_cst, align 1, !dbg !1703
  br label %bb7, !dbg !1703

bb7:                                              ; preds = %bb5, %bb4, %bb3
  ret void, !dbg !1704

bb13:                                             ; preds = %start
  store ptr null, ptr %_27, align 8, !dbg !1705
  store ptr @alloc_47c752ba42fbab56d43a37cfd56e4899, ptr %_6, align 8, !dbg !1710
  %i2 = getelementptr inbounds { ptr, i64 }, ptr %_6, i32 0, i32 1, !dbg !1710
  store i64 1, ptr %i2, align 8, !dbg !1710
  %i6 = getelementptr inbounds %"core::fmt::Arguments<'_>", ptr %_6, i32 0, i32 2, !dbg !1710
  store ptr null, ptr %i6, align 8, !dbg !1710
  %i7 = getelementptr inbounds { ptr, i64 }, ptr %i6, i32 0, i32 1, !dbg !1710
  store i64 undef, ptr %i7, align 8, !dbg !1710
  %i8 = getelementptr inbounds %"core::fmt::Arguments<'_>", ptr %_6, i32 0, i32 1, !dbg !1710
  store ptr @alloc_513570631223a12912d85da2bec3b15a, ptr %i8, align 8, !dbg !1710
  %i9 = getelementptr inbounds { ptr, i64 }, ptr %i8, i32 0, i32 1, !dbg !1710
  store i64 0, ptr %i9, align 8, !dbg !1710
; call core::panicking::panic_fmt
  call void @_ZN4core9panicking9panic_fmt17hff768cef35397791E(ptr align 8 %_6, ptr align 8 @alloc_cb63d255000c7e9fed7db8f9c4b60326) #31, !dbg !1711
  unreachable

bb10:                                             ; preds = %start
  store ptr null, ptr %_18, align 8, !dbg !1712
  store ptr @alloc_f8dbac861f87e25e445761cc4af66745, ptr %_9, align 8, !dbg !1714
  %i10 = getelementptr inbounds { ptr, i64 }, ptr %_9, i32 0, i32 1, !dbg !1714
  store i64 1, ptr %i10, align 8, !dbg !1714
  %i14 = getelementptr inbounds %"core::fmt::Arguments<'_>", ptr %_9, i32 0, i32 2, !dbg !1714
  store ptr null, ptr %i14, align 8, !dbg !1714
  %i15 = getelementptr inbounds { ptr, i64 }, ptr %i14, i32 0, i32 1, !dbg !1714
  store i64 undef, ptr %i15, align 8, !dbg !1714
  %i16 = getelementptr inbounds %"core::fmt::Arguments<'_>", ptr %_9, i32 0, i32 1, !dbg !1714
  store ptr @alloc_513570631223a12912d85da2bec3b15a, ptr %i16, align 8, !dbg !1714
  %i17 = getelementptr inbounds { ptr, i64 }, ptr %i16, i32 0, i32 1, !dbg !1714
  store i64 0, ptr %i17, align 8, !dbg !1714
; call core::panicking::panic_fmt
  call void @_ZN4core9panicking9panic_fmt17hff768cef35397791E(ptr align 8 %_9, ptr align 8 @alloc_2061bd2e099bb1065f735aed396f79a4) #31, !dbg !1715
  unreachable
}

; core::sync::atomic::atomic_compare_exchange
; Function Attrs: inlinehint nounwind
define internal fastcc { i64, ptr } @_ZN4core4sync6atomic23atomic_compare_exchange17h4e46dcf2633c0122E(ptr nocapture %dst, ptr %old, ptr %new, i8 %arg, i8 %arg2) unnamed_addr #1 !dbg !1716 {
start:
  %_38 = alloca { ptr, i64 }, align 8
  %_29 = alloca { ptr, i64 }, align 8
  %_20 = alloca %"core::fmt::Arguments<'_>", align 8
  %_17 = alloca %"core::fmt::Arguments<'_>", align 8
  %_8 = alloca { ptr, i8 }, align 8
  %_0 = alloca { i64, ptr }, align 8
  %failure = alloca i8, align 1
  %success = alloca i8, align 1
  store i8 %arg, ptr %success, align 1
  store i8 %arg2, ptr %failure, align 1
  %_15 = zext i8 %arg to i64, !dbg !1717
  switch i64 %_15, label %bb7 [
    i64 0, label %bb1
    i64 1, label %bb3
    i64 2, label %bb4
    i64 3, label %bb5
    i64 4, label %bb6
  ], !dbg !1719

bb7:                                              ; preds = %start
  unreachable

bb1:                                              ; preds = %start
  %_9 = zext i8 %arg2 to i64, !dbg !1717
  switch i64 %_9, label %bb2 [
    i64 0, label %bb9
    i64 2, label %bb10
    i64 4, label %bb11
  ], !dbg !1719

bb3:                                              ; preds = %start
  %_10 = zext i8 %arg2 to i64, !dbg !1717
  switch i64 %_10, label %bb2 [
    i64 0, label %bb15
    i64 2, label %bb16
    i64 4, label %bb17
  ], !dbg !1719

bb4:                                              ; preds = %start
  %_11 = zext i8 %arg2 to i64, !dbg !1717
  switch i64 %_11, label %bb2 [
    i64 0, label %bb12
    i64 2, label %bb13
    i64 4, label %bb14
  ], !dbg !1719

bb5:                                              ; preds = %start
  %_12 = zext i8 %arg2 to i64, !dbg !1717
  switch i64 %_12, label %bb2 [
    i64 0, label %bb18
    i64 2, label %bb19
    i64 4, label %bb20
  ], !dbg !1719

bb6:                                              ; preds = %start
  %_13 = zext i8 %arg2 to i64, !dbg !1717
  switch i64 %_13, label %bb2 [
    i64 0, label %bb21
    i64 2, label %bb22
    i64 4, label %bb23
  ], !dbg !1719

bb2:                                              ; preds = %bb6, %bb5, %bb4, %bb3, %bb1
  %_14.pre-phi = phi i64 [ %_13, %bb6 ], [ %_12, %bb5 ], [ %_11, %bb4 ], [ %_10, %bb3 ], [ %_9, %bb1 ], !dbg !1717
  %i9 = icmp eq i64 %_14.pre-phi, 1, !dbg !1719
  br i1 %i9, label %bb31, label %bb34, !dbg !1719

bb9:                                              ; preds = %bb1
  %i10 = ptrtoint ptr %old to i64, !dbg !1720
  %i11 = ptrtoint ptr %new to i64, !dbg !1720
  %i12 = cmpxchg ptr %dst, i64 %i10, i64 %i11 monotonic monotonic, align 8, !dbg !1720
  %i13 = extractvalue { i64, i1 } %i12, 0, !dbg !1720
  %i14 = extractvalue { i64, i1 } %i12, 1, !dbg !1720
  %i15 = zext i1 %i14 to i8, !dbg !1720
  store i64 %i13, ptr %_8, align 8, !dbg !1720
  %i16 = getelementptr inbounds { ptr, i8 }, ptr %_8, i32 0, i32 1, !dbg !1720
  store i8 %i15, ptr %i16, align 8, !dbg !1720
  %0 = inttoptr i64 %i13 to ptr, !dbg !1720
  br label %bb25, !dbg !1720

bb10:                                             ; preds = %bb1
  %i17 = ptrtoint ptr %old to i64, !dbg !1721
  %i18 = ptrtoint ptr %new to i64, !dbg !1721
  %i19 = cmpxchg ptr %dst, i64 %i17, i64 %i18 monotonic acquire, align 8, !dbg !1721
  %i20 = extractvalue { i64, i1 } %i19, 0, !dbg !1721
  %i21 = extractvalue { i64, i1 } %i19, 1, !dbg !1721
  %i22 = zext i1 %i21 to i8, !dbg !1721
  store i64 %i20, ptr %_8, align 8, !dbg !1721
  %i23 = getelementptr inbounds { ptr, i8 }, ptr %_8, i32 0, i32 1, !dbg !1721
  store i8 %i22, ptr %i23, align 8, !dbg !1721
  %1 = inttoptr i64 %i20 to ptr, !dbg !1721
  br label %bb25, !dbg !1721

bb11:                                             ; preds = %bb1
  %i24 = ptrtoint ptr %old to i64, !dbg !1722
  %i25 = ptrtoint ptr %new to i64, !dbg !1722
  %i26 = cmpxchg ptr %dst, i64 %i24, i64 %i25 monotonic seq_cst, align 8, !dbg !1722
  %i27 = extractvalue { i64, i1 } %i26, 0, !dbg !1722
  %i28 = extractvalue { i64, i1 } %i26, 1, !dbg !1722
  %i29 = zext i1 %i28 to i8, !dbg !1722
  store i64 %i27, ptr %_8, align 8, !dbg !1722
  %i30 = getelementptr inbounds { ptr, i8 }, ptr %_8, i32 0, i32 1, !dbg !1722
  store i8 %i29, ptr %i30, align 8, !dbg !1722
  %2 = inttoptr i64 %i27 to ptr, !dbg !1722
  br label %bb25, !dbg !1722

bb25:                                             ; preds = %bb23, %bb22, %bb21, %bb20, %bb19, %bb18, %bb14, %bb13, %bb12, %bb17, %bb16, %bb15, %bb11, %bb10, %bb9
  %i32 = phi i1 [ %i114, %bb23 ], [ %i107, %bb22 ], [ %i100, %bb21 ], [ %i93, %bb20 ], [ %i86, %bb19 ], [ %i79, %bb18 ], [ %i72, %bb14 ], [ %i65, %bb13 ], [ %i58, %bb12 ], [ %i51, %bb17 ], [ %i44, %bb16 ], [ %i37, %bb15 ], [ %i28, %bb11 ], [ %i21, %bb10 ], [ %i14, %bb9 ], !dbg !1723
  %i121 = phi ptr [ %14, %bb23 ], [ %13, %bb22 ], [ %12, %bb21 ], [ %11, %bb20 ], [ %10, %bb19 ], [ %9, %bb18 ], [ %8, %bb14 ], [ %7, %bb13 ], [ %6, %bb12 ], [ %5, %bb17 ], [ %4, %bb16 ], [ %3, %bb15 ], [ %2, %bb11 ], [ %1, %bb10 ], [ %0, %bb9 ], !dbg !1724
  %i32.inv = xor i1 %i32, true
  br i1 %i32.inv, label %bb27, label %Flow, !dbg !1725

bb15:                                             ; preds = %bb3
  %i33 = ptrtoint ptr %old to i64, !dbg !1727
  %i34 = ptrtoint ptr %new to i64, !dbg !1727
  %i35 = cmpxchg ptr %dst, i64 %i33, i64 %i34 release monotonic, align 8, !dbg !1727
  %i36 = extractvalue { i64, i1 } %i35, 0, !dbg !1727
  %i37 = extractvalue { i64, i1 } %i35, 1, !dbg !1727
  %i38 = zext i1 %i37 to i8, !dbg !1727
  store i64 %i36, ptr %_8, align 8, !dbg !1727
  %i39 = getelementptr inbounds { ptr, i8 }, ptr %_8, i32 0, i32 1, !dbg !1727
  store i8 %i38, ptr %i39, align 8, !dbg !1727
  %3 = inttoptr i64 %i36 to ptr, !dbg !1727
  br label %bb25, !dbg !1727

bb16:                                             ; preds = %bb3
  %i40 = ptrtoint ptr %old to i64, !dbg !1728
  %i41 = ptrtoint ptr %new to i64, !dbg !1728
  %i42 = cmpxchg ptr %dst, i64 %i40, i64 %i41 release acquire, align 8, !dbg !1728
  %i43 = extractvalue { i64, i1 } %i42, 0, !dbg !1728
  %i44 = extractvalue { i64, i1 } %i42, 1, !dbg !1728
  %i45 = zext i1 %i44 to i8, !dbg !1728
  store i64 %i43, ptr %_8, align 8, !dbg !1728
  %i46 = getelementptr inbounds { ptr, i8 }, ptr %_8, i32 0, i32 1, !dbg !1728
  store i8 %i45, ptr %i46, align 8, !dbg !1728
  %4 = inttoptr i64 %i43 to ptr, !dbg !1728
  br label %bb25, !dbg !1728

bb17:                                             ; preds = %bb3
  %i47 = ptrtoint ptr %old to i64, !dbg !1729
  %i48 = ptrtoint ptr %new to i64, !dbg !1729
  %i49 = cmpxchg ptr %dst, i64 %i47, i64 %i48 release seq_cst, align 8, !dbg !1729
  %i50 = extractvalue { i64, i1 } %i49, 0, !dbg !1729
  %i51 = extractvalue { i64, i1 } %i49, 1, !dbg !1729
  %i52 = zext i1 %i51 to i8, !dbg !1729
  store i64 %i50, ptr %_8, align 8, !dbg !1729
  %i53 = getelementptr inbounds { ptr, i8 }, ptr %_8, i32 0, i32 1, !dbg !1729
  store i8 %i52, ptr %i53, align 8, !dbg !1729
  %5 = inttoptr i64 %i50 to ptr, !dbg !1729
  br label %bb25, !dbg !1729

bb12:                                             ; preds = %bb4
  %i54 = ptrtoint ptr %old to i64, !dbg !1730
  %i55 = ptrtoint ptr %new to i64, !dbg !1730
  %i56 = cmpxchg ptr %dst, i64 %i54, i64 %i55 acquire monotonic, align 8, !dbg !1730
  %i57 = extractvalue { i64, i1 } %i56, 0, !dbg !1730
  %i58 = extractvalue { i64, i1 } %i56, 1, !dbg !1730
  %i59 = zext i1 %i58 to i8, !dbg !1730
  store i64 %i57, ptr %_8, align 8, !dbg !1730
  %i60 = getelementptr inbounds { ptr, i8 }, ptr %_8, i32 0, i32 1, !dbg !1730
  store i8 %i59, ptr %i60, align 8, !dbg !1730
  %6 = inttoptr i64 %i57 to ptr, !dbg !1730
  br label %bb25, !dbg !1730

bb13:                                             ; preds = %bb4
  %i61 = ptrtoint ptr %old to i64, !dbg !1731
  %i62 = ptrtoint ptr %new to i64, !dbg !1731
  %i63 = cmpxchg ptr %dst, i64 %i61, i64 %i62 acquire acquire, align 8, !dbg !1731
  %i64 = extractvalue { i64, i1 } %i63, 0, !dbg !1731
  %i65 = extractvalue { i64, i1 } %i63, 1, !dbg !1731
  %i66 = zext i1 %i65 to i8, !dbg !1731
  store i64 %i64, ptr %_8, align 8, !dbg !1731
  %i67 = getelementptr inbounds { ptr, i8 }, ptr %_8, i32 0, i32 1, !dbg !1731
  store i8 %i66, ptr %i67, align 8, !dbg !1731
  %7 = inttoptr i64 %i64 to ptr, !dbg !1731
  br label %bb25, !dbg !1731

bb14:                                             ; preds = %bb4
  %i68 = ptrtoint ptr %old to i64, !dbg !1732
  %i69 = ptrtoint ptr %new to i64, !dbg !1732
  %i70 = cmpxchg ptr %dst, i64 %i68, i64 %i69 acquire seq_cst, align 8, !dbg !1732
  %i71 = extractvalue { i64, i1 } %i70, 0, !dbg !1732
  %i72 = extractvalue { i64, i1 } %i70, 1, !dbg !1732
  %i73 = zext i1 %i72 to i8, !dbg !1732
  store i64 %i71, ptr %_8, align 8, !dbg !1732
  %i74 = getelementptr inbounds { ptr, i8 }, ptr %_8, i32 0, i32 1, !dbg !1732
  store i8 %i73, ptr %i74, align 8, !dbg !1732
  %8 = inttoptr i64 %i71 to ptr, !dbg !1732
  br label %bb25, !dbg !1732

bb18:                                             ; preds = %bb5
  %i75 = ptrtoint ptr %old to i64, !dbg !1733
  %i76 = ptrtoint ptr %new to i64, !dbg !1733
  %i77 = cmpxchg ptr %dst, i64 %i75, i64 %i76 acq_rel monotonic, align 8, !dbg !1733
  %i78 = extractvalue { i64, i1 } %i77, 0, !dbg !1733
  %i79 = extractvalue { i64, i1 } %i77, 1, !dbg !1733
  %i80 = zext i1 %i79 to i8, !dbg !1733
  store i64 %i78, ptr %_8, align 8, !dbg !1733
  %i81 = getelementptr inbounds { ptr, i8 }, ptr %_8, i32 0, i32 1, !dbg !1733
  store i8 %i80, ptr %i81, align 8, !dbg !1733
  %9 = inttoptr i64 %i78 to ptr, !dbg !1733
  br label %bb25, !dbg !1733

bb19:                                             ; preds = %bb5
  %i82 = ptrtoint ptr %old to i64, !dbg !1734
  %i83 = ptrtoint ptr %new to i64, !dbg !1734
  %i84 = cmpxchg ptr %dst, i64 %i82, i64 %i83 acq_rel acquire, align 8, !dbg !1734
  %i85 = extractvalue { i64, i1 } %i84, 0, !dbg !1734
  %i86 = extractvalue { i64, i1 } %i84, 1, !dbg !1734
  %i87 = zext i1 %i86 to i8, !dbg !1734
  store i64 %i85, ptr %_8, align 8, !dbg !1734
  %i88 = getelementptr inbounds { ptr, i8 }, ptr %_8, i32 0, i32 1, !dbg !1734
  store i8 %i87, ptr %i88, align 8, !dbg !1734
  %10 = inttoptr i64 %i85 to ptr, !dbg !1734
  br label %bb25, !dbg !1734

bb20:                                             ; preds = %bb5
  %i89 = ptrtoint ptr %old to i64, !dbg !1735
  %i90 = ptrtoint ptr %new to i64, !dbg !1735
  %i91 = cmpxchg ptr %dst, i64 %i89, i64 %i90 acq_rel seq_cst, align 8, !dbg !1735
  %i92 = extractvalue { i64, i1 } %i91, 0, !dbg !1735
  %i93 = extractvalue { i64, i1 } %i91, 1, !dbg !1735
  %i94 = zext i1 %i93 to i8, !dbg !1735
  store i64 %i92, ptr %_8, align 8, !dbg !1735
  %i95 = getelementptr inbounds { ptr, i8 }, ptr %_8, i32 0, i32 1, !dbg !1735
  store i8 %i94, ptr %i95, align 8, !dbg !1735
  %11 = inttoptr i64 %i92 to ptr, !dbg !1735
  br label %bb25, !dbg !1735

bb21:                                             ; preds = %bb6
  %i96 = ptrtoint ptr %old to i64, !dbg !1736
  %i97 = ptrtoint ptr %new to i64, !dbg !1736
  %i98 = cmpxchg ptr %dst, i64 %i96, i64 %i97 seq_cst monotonic, align 8, !dbg !1736
  %i99 = extractvalue { i64, i1 } %i98, 0, !dbg !1736
  %i100 = extractvalue { i64, i1 } %i98, 1, !dbg !1736
  %i101 = zext i1 %i100 to i8, !dbg !1736
  store i64 %i99, ptr %_8, align 8, !dbg !1736
  %i102 = getelementptr inbounds { ptr, i8 }, ptr %_8, i32 0, i32 1, !dbg !1736
  store i8 %i101, ptr %i102, align 8, !dbg !1736
  %12 = inttoptr i64 %i99 to ptr, !dbg !1736
  br label %bb25, !dbg !1736

bb22:                                             ; preds = %bb6
  %i103 = ptrtoint ptr %old to i64, !dbg !1737
  %i104 = ptrtoint ptr %new to i64, !dbg !1737
  %i105 = cmpxchg ptr %dst, i64 %i103, i64 %i104 seq_cst acquire, align 8, !dbg !1737
  %i106 = extractvalue { i64, i1 } %i105, 0, !dbg !1737
  %i107 = extractvalue { i64, i1 } %i105, 1, !dbg !1737
  %i108 = zext i1 %i107 to i8, !dbg !1737
  store i64 %i106, ptr %_8, align 8, !dbg !1737
  %i109 = getelementptr inbounds { ptr, i8 }, ptr %_8, i32 0, i32 1, !dbg !1737
  store i8 %i108, ptr %i109, align 8, !dbg !1737
  %13 = inttoptr i64 %i106 to ptr, !dbg !1737
  br label %bb25, !dbg !1737

bb23:                                             ; preds = %bb6
  %i110 = ptrtoint ptr %old to i64, !dbg !1738
  %i111 = ptrtoint ptr %new to i64, !dbg !1738
  %i112 = cmpxchg ptr %dst, i64 %i110, i64 %i111 seq_cst seq_cst, align 8, !dbg !1738
  %i113 = extractvalue { i64, i1 } %i112, 0, !dbg !1738
  %i114 = extractvalue { i64, i1 } %i112, 1, !dbg !1738
  %i115 = zext i1 %i114 to i8, !dbg !1738
  store i64 %i113, ptr %_8, align 8, !dbg !1738
  %i116 = getelementptr inbounds { ptr, i8 }, ptr %_8, i32 0, i32 1, !dbg !1738
  store i8 %i115, ptr %i116, align 8, !dbg !1738
  %14 = inttoptr i64 %i113 to ptr, !dbg !1738
  br label %bb25, !dbg !1738

bb27:                                             ; preds = %bb25
  %i117 = getelementptr inbounds { i64, ptr }, ptr %_0, i32 0, i32 1, !dbg !1739
  store ptr %i121, ptr %i117, align 8, !dbg !1739
  store i64 1, ptr %_0, align 8, !dbg !1739
  br label %Flow, !dbg !1740

Flow:                                             ; preds = %bb27, %bb25
  %15 = phi i1 [ false, %bb27 ], [ true, %bb25 ], !dbg !1725
  br i1 %15, label %bb26, label %bb28, !dbg !1725

bb26:                                             ; preds = %Flow
  %i118 = getelementptr inbounds { i64, ptr }, ptr %_0, i32 0, i32 1, !dbg !1741
  store ptr %i121, ptr %i118, align 8, !dbg !1741
  store i64 0, ptr %_0, align 8, !dbg !1741
  br label %bb28, !dbg !1740

bb28:                                             ; preds = %bb26, %Flow
  %i119 = phi i64 [ 1, %Flow ], [ 0, %bb26 ], !dbg !1742
  %i122 = insertvalue { i64, ptr } poison, i64 %i119, 0, !dbg !1742
  %i123 = insertvalue { i64, ptr } %i122, ptr %i121, 1, !dbg !1742
  ret { i64, ptr } %i123, !dbg !1742

bb31:                                             ; preds = %bb2
  store ptr null, ptr %_29, align 8, !dbg !1743
  store ptr @alloc_04ab601c54c6e0a22ff11d72dc7f4511, ptr %_20, align 8, !dbg !1748
  %i124 = getelementptr inbounds { ptr, i64 }, ptr %_20, i32 0, i32 1, !dbg !1748
  store i64 1, ptr %i124, align 8, !dbg !1748
  %i128 = getelementptr inbounds %"core::fmt::Arguments<'_>", ptr %_20, i32 0, i32 2, !dbg !1748
  store ptr null, ptr %i128, align 8, !dbg !1748
  %i129 = getelementptr inbounds { ptr, i64 }, ptr %i128, i32 0, i32 1, !dbg !1748
  store i64 undef, ptr %i129, align 8, !dbg !1748
  %i130 = getelementptr inbounds %"core::fmt::Arguments<'_>", ptr %_20, i32 0, i32 1, !dbg !1748
  store ptr @alloc_513570631223a12912d85da2bec3b15a, ptr %i130, align 8, !dbg !1748
  %i131 = getelementptr inbounds { ptr, i64 }, ptr %i130, i32 0, i32 1, !dbg !1748
  store i64 0, ptr %i131, align 8, !dbg !1748
; call core::panicking::panic_fmt
  call void @_ZN4core9panicking9panic_fmt17hff768cef35397791E(ptr align 8 %_20, ptr align 8 @alloc_826fa8dc4bf9d95988bea67cf29fdc26) #31, !dbg !1749
  unreachable

bb34:                                             ; preds = %bb2
  store ptr null, ptr %_38, align 8, !dbg !1750
  store ptr @alloc_dd7d8f77c173bf31726eae321f955bec, ptr %_17, align 8, !dbg !1752
  %i132 = getelementptr inbounds { ptr, i64 }, ptr %_17, i32 0, i32 1, !dbg !1752
  store i64 1, ptr %i132, align 8, !dbg !1752
  %i136 = getelementptr inbounds %"core::fmt::Arguments<'_>", ptr %_17, i32 0, i32 2, !dbg !1752
  store ptr null, ptr %i136, align 8, !dbg !1752
  %i137 = getelementptr inbounds { ptr, i64 }, ptr %i136, i32 0, i32 1, !dbg !1752
  store i64 undef, ptr %i137, align 8, !dbg !1752
  %i138 = getelementptr inbounds %"core::fmt::Arguments<'_>", ptr %_17, i32 0, i32 1, !dbg !1752
  store ptr @alloc_513570631223a12912d85da2bec3b15a, ptr %i138, align 8, !dbg !1752
  %i139 = getelementptr inbounds { ptr, i64 }, ptr %i138, i32 0, i32 1, !dbg !1752
  store i64 0, ptr %i139, align 8, !dbg !1752
; call core::panicking::panic_fmt
  call void @_ZN4core9panicking9panic_fmt17hff768cef35397791E(ptr align 8 %_17, ptr align 8 @alloc_69680bf1a9adc0c1931d0dbd2195eaef) #31, !dbg !1753
  unreachable
}

; core::sync::atomic::atomic_compare_exchange
; Function Attrs: inlinehint nounwind
define internal fastcc { i64, i64 } @_ZN4core4sync6atomic23atomic_compare_exchange17hd1d7e6a6846015d3E(ptr nocapture %dst, i64 %old, i64 %new, i8 %arg, i8 %arg2) unnamed_addr #1 !dbg !1754 {
start:
  %_38 = alloca { ptr, i64 }, align 8
  %_29 = alloca { ptr, i64 }, align 8
  %_20 = alloca %"core::fmt::Arguments<'_>", align 8
  %_17 = alloca %"core::fmt::Arguments<'_>", align 8
  %_8 = alloca { i64, i8 }, align 8
  %_0 = alloca { i64, i64 }, align 8
  %failure = alloca i8, align 1
  %success = alloca i8, align 1
  store i8 %arg, ptr %success, align 1
  store i8 %arg2, ptr %failure, align 1
  %_15 = zext i8 %arg to i64, !dbg !1755
  switch i64 %_15, label %bb7 [
    i64 0, label %bb1
    i64 1, label %bb3
    i64 2, label %bb4
    i64 3, label %bb5
    i64 4, label %bb6
  ], !dbg !1757

bb7:                                              ; preds = %start
  unreachable

bb1:                                              ; preds = %start
  %_9 = zext i8 %arg2 to i64, !dbg !1755
  switch i64 %_9, label %bb2 [
    i64 0, label %bb9
    i64 2, label %bb10
    i64 4, label %bb11
  ], !dbg !1757

bb3:                                              ; preds = %start
  %_10 = zext i8 %arg2 to i64, !dbg !1755
  switch i64 %_10, label %bb2 [
    i64 0, label %bb15
    i64 2, label %bb16
    i64 4, label %bb17
  ], !dbg !1757

bb4:                                              ; preds = %start
  %_11 = zext i8 %arg2 to i64, !dbg !1755
  switch i64 %_11, label %bb2 [
    i64 0, label %bb12
    i64 2, label %bb13
    i64 4, label %bb14
  ], !dbg !1757

bb5:                                              ; preds = %start
  %_12 = zext i8 %arg2 to i64, !dbg !1755
  switch i64 %_12, label %bb2 [
    i64 0, label %bb18
    i64 2, label %bb19
    i64 4, label %bb20
  ], !dbg !1757

bb6:                                              ; preds = %start
  %_13 = zext i8 %arg2 to i64, !dbg !1755
  switch i64 %_13, label %bb2 [
    i64 0, label %bb21
    i64 2, label %bb22
    i64 4, label %bb23
  ], !dbg !1757

bb2:                                              ; preds = %bb6, %bb5, %bb4, %bb3, %bb1
  %_14.pre-phi = phi i64 [ %_13, %bb6 ], [ %_12, %bb5 ], [ %_11, %bb4 ], [ %_10, %bb3 ], [ %_9, %bb1 ], !dbg !1755
  %i9 = icmp eq i64 %_14.pre-phi, 1, !dbg !1757
  br i1 %i9, label %bb31, label %bb34, !dbg !1757

bb9:                                              ; preds = %bb1
  %i10 = cmpxchg ptr %dst, i64 %old, i64 %new monotonic monotonic, align 8, !dbg !1758
  %i11 = extractvalue { i64, i1 } %i10, 0, !dbg !1758
  %i12 = extractvalue { i64, i1 } %i10, 1, !dbg !1758
  %i13 = zext i1 %i12 to i8, !dbg !1758
  store i64 %i11, ptr %_8, align 8, !dbg !1758
  %i14 = getelementptr inbounds { i64, i8 }, ptr %_8, i32 0, i32 1, !dbg !1758
  store i8 %i13, ptr %i14, align 8, !dbg !1758
  br label %bb25, !dbg !1758

bb10:                                             ; preds = %bb1
  %i15 = cmpxchg ptr %dst, i64 %old, i64 %new monotonic acquire, align 8, !dbg !1759
  %i16 = extractvalue { i64, i1 } %i15, 0, !dbg !1759
  %i17 = extractvalue { i64, i1 } %i15, 1, !dbg !1759
  %i18 = zext i1 %i17 to i8, !dbg !1759
  store i64 %i16, ptr %_8, align 8, !dbg !1759
  %i19 = getelementptr inbounds { i64, i8 }, ptr %_8, i32 0, i32 1, !dbg !1759
  store i8 %i18, ptr %i19, align 8, !dbg !1759
  br label %bb25, !dbg !1759

bb11:                                             ; preds = %bb1
  %i20 = cmpxchg ptr %dst, i64 %old, i64 %new monotonic seq_cst, align 8, !dbg !1760
  %i21 = extractvalue { i64, i1 } %i20, 0, !dbg !1760
  %i22 = extractvalue { i64, i1 } %i20, 1, !dbg !1760
  %i23 = zext i1 %i22 to i8, !dbg !1760
  store i64 %i21, ptr %_8, align 8, !dbg !1760
  %i24 = getelementptr inbounds { i64, i8 }, ptr %_8, i32 0, i32 1, !dbg !1760
  store i8 %i23, ptr %i24, align 8, !dbg !1760
  br label %bb25, !dbg !1760

bb25:                                             ; preds = %bb23, %bb22, %bb21, %bb20, %bb19, %bb18, %bb14, %bb13, %bb12, %bb17, %bb16, %bb15, %bb11, %bb10, %bb9
  %i26 = phi i1 [ %i84, %bb23 ], [ %i79, %bb22 ], [ %i74, %bb21 ], [ %i69, %bb20 ], [ %i64, %bb19 ], [ %i59, %bb18 ], [ %i54, %bb14 ], [ %i49, %bb13 ], [ %i44, %bb12 ], [ %i39, %bb17 ], [ %i34, %bb16 ], [ %i29, %bb15 ], [ %i22, %bb11 ], [ %i17, %bb10 ], [ %i12, %bb9 ], !dbg !1761
  %i91 = phi i64 [ %i83, %bb23 ], [ %i78, %bb22 ], [ %i73, %bb21 ], [ %i68, %bb20 ], [ %i63, %bb19 ], [ %i58, %bb18 ], [ %i53, %bb14 ], [ %i48, %bb13 ], [ %i43, %bb12 ], [ %i38, %bb17 ], [ %i33, %bb16 ], [ %i28, %bb15 ], [ %i21, %bb11 ], [ %i16, %bb10 ], [ %i11, %bb9 ], !dbg !1762
  %i26.inv = xor i1 %i26, true
  br i1 %i26.inv, label %bb27, label %Flow, !dbg !1763

bb15:                                             ; preds = %bb3
  %i27 = cmpxchg ptr %dst, i64 %old, i64 %new release monotonic, align 8, !dbg !1765
  %i28 = extractvalue { i64, i1 } %i27, 0, !dbg !1765
  %i29 = extractvalue { i64, i1 } %i27, 1, !dbg !1765
  %i30 = zext i1 %i29 to i8, !dbg !1765
  store i64 %i28, ptr %_8, align 8, !dbg !1765
  %i31 = getelementptr inbounds { i64, i8 }, ptr %_8, i32 0, i32 1, !dbg !1765
  store i8 %i30, ptr %i31, align 8, !dbg !1765
  br label %bb25, !dbg !1765

bb16:                                             ; preds = %bb3
  %i32 = cmpxchg ptr %dst, i64 %old, i64 %new release acquire, align 8, !dbg !1766
  %i33 = extractvalue { i64, i1 } %i32, 0, !dbg !1766
  %i34 = extractvalue { i64, i1 } %i32, 1, !dbg !1766
  %i35 = zext i1 %i34 to i8, !dbg !1766
  store i64 %i33, ptr %_8, align 8, !dbg !1766
  %i36 = getelementptr inbounds { i64, i8 }, ptr %_8, i32 0, i32 1, !dbg !1766
  store i8 %i35, ptr %i36, align 8, !dbg !1766
  br label %bb25, !dbg !1766

bb17:                                             ; preds = %bb3
  %i37 = cmpxchg ptr %dst, i64 %old, i64 %new release seq_cst, align 8, !dbg !1767
  %i38 = extractvalue { i64, i1 } %i37, 0, !dbg !1767
  %i39 = extractvalue { i64, i1 } %i37, 1, !dbg !1767
  %i40 = zext i1 %i39 to i8, !dbg !1767
  store i64 %i38, ptr %_8, align 8, !dbg !1767
  %i41 = getelementptr inbounds { i64, i8 }, ptr %_8, i32 0, i32 1, !dbg !1767
  store i8 %i40, ptr %i41, align 8, !dbg !1767
  br label %bb25, !dbg !1767

bb12:                                             ; preds = %bb4
  %i42 = cmpxchg ptr %dst, i64 %old, i64 %new acquire monotonic, align 8, !dbg !1768
  %i43 = extractvalue { i64, i1 } %i42, 0, !dbg !1768
  %i44 = extractvalue { i64, i1 } %i42, 1, !dbg !1768
  %i45 = zext i1 %i44 to i8, !dbg !1768
  store i64 %i43, ptr %_8, align 8, !dbg !1768
  %i46 = getelementptr inbounds { i64, i8 }, ptr %_8, i32 0, i32 1, !dbg !1768
  store i8 %i45, ptr %i46, align 8, !dbg !1768
  br label %bb25, !dbg !1768

bb13:                                             ; preds = %bb4
  %i47 = cmpxchg ptr %dst, i64 %old, i64 %new acquire acquire, align 8, !dbg !1769
  %i48 = extractvalue { i64, i1 } %i47, 0, !dbg !1769
  %i49 = extractvalue { i64, i1 } %i47, 1, !dbg !1769
  %i50 = zext i1 %i49 to i8, !dbg !1769
  store i64 %i48, ptr %_8, align 8, !dbg !1769
  %i51 = getelementptr inbounds { i64, i8 }, ptr %_8, i32 0, i32 1, !dbg !1769
  store i8 %i50, ptr %i51, align 8, !dbg !1769
  br label %bb25, !dbg !1769

bb14:                                             ; preds = %bb4
  %i52 = cmpxchg ptr %dst, i64 %old, i64 %new acquire seq_cst, align 8, !dbg !1770
  %i53 = extractvalue { i64, i1 } %i52, 0, !dbg !1770
  %i54 = extractvalue { i64, i1 } %i52, 1, !dbg !1770
  %i55 = zext i1 %i54 to i8, !dbg !1770
  store i64 %i53, ptr %_8, align 8, !dbg !1770
  %i56 = getelementptr inbounds { i64, i8 }, ptr %_8, i32 0, i32 1, !dbg !1770
  store i8 %i55, ptr %i56, align 8, !dbg !1770
  br label %bb25, !dbg !1770

bb18:                                             ; preds = %bb5
  %i57 = cmpxchg ptr %dst, i64 %old, i64 %new acq_rel monotonic, align 8, !dbg !1771
  %i58 = extractvalue { i64, i1 } %i57, 0, !dbg !1771
  %i59 = extractvalue { i64, i1 } %i57, 1, !dbg !1771
  %i60 = zext i1 %i59 to i8, !dbg !1771
  store i64 %i58, ptr %_8, align 8, !dbg !1771
  %i61 = getelementptr inbounds { i64, i8 }, ptr %_8, i32 0, i32 1, !dbg !1771
  store i8 %i60, ptr %i61, align 8, !dbg !1771
  br label %bb25, !dbg !1771

bb19:                                             ; preds = %bb5
  %i62 = cmpxchg ptr %dst, i64 %old, i64 %new acq_rel acquire, align 8, !dbg !1772
  %i63 = extractvalue { i64, i1 } %i62, 0, !dbg !1772
  %i64 = extractvalue { i64, i1 } %i62, 1, !dbg !1772
  %i65 = zext i1 %i64 to i8, !dbg !1772
  store i64 %i63, ptr %_8, align 8, !dbg !1772
  %i66 = getelementptr inbounds { i64, i8 }, ptr %_8, i32 0, i32 1, !dbg !1772
  store i8 %i65, ptr %i66, align 8, !dbg !1772
  br label %bb25, !dbg !1772

bb20:                                             ; preds = %bb5
  %i67 = cmpxchg ptr %dst, i64 %old, i64 %new acq_rel seq_cst, align 8, !dbg !1773
  %i68 = extractvalue { i64, i1 } %i67, 0, !dbg !1773
  %i69 = extractvalue { i64, i1 } %i67, 1, !dbg !1773
  %i70 = zext i1 %i69 to i8, !dbg !1773
  store i64 %i68, ptr %_8, align 8, !dbg !1773
  %i71 = getelementptr inbounds { i64, i8 }, ptr %_8, i32 0, i32 1, !dbg !1773
  store i8 %i70, ptr %i71, align 8, !dbg !1773
  br label %bb25, !dbg !1773

bb21:                                             ; preds = %bb6
  %i72 = cmpxchg ptr %dst, i64 %old, i64 %new seq_cst monotonic, align 8, !dbg !1774
  %i73 = extractvalue { i64, i1 } %i72, 0, !dbg !1774
  %i74 = extractvalue { i64, i1 } %i72, 1, !dbg !1774
  %i75 = zext i1 %i74 to i8, !dbg !1774
  store i64 %i73, ptr %_8, align 8, !dbg !1774
  %i76 = getelementptr inbounds { i64, i8 }, ptr %_8, i32 0, i32 1, !dbg !1774
  store i8 %i75, ptr %i76, align 8, !dbg !1774
  br label %bb25, !dbg !1774

bb22:                                             ; preds = %bb6
  %i77 = cmpxchg ptr %dst, i64 %old, i64 %new seq_cst acquire, align 8, !dbg !1775
  %i78 = extractvalue { i64, i1 } %i77, 0, !dbg !1775
  %i79 = extractvalue { i64, i1 } %i77, 1, !dbg !1775
  %i80 = zext i1 %i79 to i8, !dbg !1775
  store i64 %i78, ptr %_8, align 8, !dbg !1775
  %i81 = getelementptr inbounds { i64, i8 }, ptr %_8, i32 0, i32 1, !dbg !1775
  store i8 %i80, ptr %i81, align 8, !dbg !1775
  br label %bb25, !dbg !1775

bb23:                                             ; preds = %bb6
  %i82 = cmpxchg ptr %dst, i64 %old, i64 %new seq_cst seq_cst, align 8, !dbg !1776
  %i83 = extractvalue { i64, i1 } %i82, 0, !dbg !1776
  %i84 = extractvalue { i64, i1 } %i82, 1, !dbg !1776
  %i85 = zext i1 %i84 to i8, !dbg !1776
  store i64 %i83, ptr %_8, align 8, !dbg !1776
  %i86 = getelementptr inbounds { i64, i8 }, ptr %_8, i32 0, i32 1, !dbg !1776
  store i8 %i85, ptr %i86, align 8, !dbg !1776
  br label %bb25, !dbg !1776

bb27:                                             ; preds = %bb25
  %i87 = getelementptr inbounds { i64, i64 }, ptr %_0, i32 0, i32 1, !dbg !1777
  store i64 %i91, ptr %i87, align 8, !dbg !1777
  store i64 1, ptr %_0, align 8, !dbg !1777
  br label %Flow, !dbg !1778

Flow:                                             ; preds = %bb27, %bb25
  %0 = phi i1 [ false, %bb27 ], [ true, %bb25 ], !dbg !1763
  br i1 %0, label %bb26, label %bb28, !dbg !1763

bb26:                                             ; preds = %Flow
  %i88 = getelementptr inbounds { i64, i64 }, ptr %_0, i32 0, i32 1, !dbg !1779
  store i64 %i91, ptr %i88, align 8, !dbg !1779
  store i64 0, ptr %_0, align 8, !dbg !1779
  br label %bb28, !dbg !1778

bb28:                                             ; preds = %bb26, %Flow
  %i89 = phi i64 [ 1, %Flow ], [ 0, %bb26 ], !dbg !1780
  %i92 = insertvalue { i64, i64 } poison, i64 %i89, 0, !dbg !1780
  %i93 = insertvalue { i64, i64 } %i92, i64 %i91, 1, !dbg !1780
  ret { i64, i64 } %i93, !dbg !1780

bb31:                                             ; preds = %bb2
  store ptr null, ptr %_29, align 8, !dbg !1781
  store ptr @alloc_04ab601c54c6e0a22ff11d72dc7f4511, ptr %_20, align 8, !dbg !1786
  %i94 = getelementptr inbounds { ptr, i64 }, ptr %_20, i32 0, i32 1, !dbg !1786
  store i64 1, ptr %i94, align 8, !dbg !1786
  %i98 = getelementptr inbounds %"core::fmt::Arguments<'_>", ptr %_20, i32 0, i32 2, !dbg !1786
  store ptr null, ptr %i98, align 8, !dbg !1786
  %i99 = getelementptr inbounds { ptr, i64 }, ptr %i98, i32 0, i32 1, !dbg !1786
  store i64 undef, ptr %i99, align 8, !dbg !1786
  %i100 = getelementptr inbounds %"core::fmt::Arguments<'_>", ptr %_20, i32 0, i32 1, !dbg !1786
  store ptr @alloc_513570631223a12912d85da2bec3b15a, ptr %i100, align 8, !dbg !1786
  %i101 = getelementptr inbounds { ptr, i64 }, ptr %i100, i32 0, i32 1, !dbg !1786
  store i64 0, ptr %i101, align 8, !dbg !1786
; call core::panicking::panic_fmt
  call void @_ZN4core9panicking9panic_fmt17hff768cef35397791E(ptr align 8 %_20, ptr align 8 @alloc_826fa8dc4bf9d95988bea67cf29fdc26) #31, !dbg !1787
  unreachable

bb34:                                             ; preds = %bb2
  store ptr null, ptr %_38, align 8, !dbg !1788
  store ptr @alloc_dd7d8f77c173bf31726eae321f955bec, ptr %_17, align 8, !dbg !1790
  %i102 = getelementptr inbounds { ptr, i64 }, ptr %_17, i32 0, i32 1, !dbg !1790
  store i64 1, ptr %i102, align 8, !dbg !1790
  %i106 = getelementptr inbounds %"core::fmt::Arguments<'_>", ptr %_17, i32 0, i32 2, !dbg !1790
  store ptr null, ptr %i106, align 8, !dbg !1790
  %i107 = getelementptr inbounds { ptr, i64 }, ptr %i106, i32 0, i32 1, !dbg !1790
